TN:
SF:/usr/include/c++/11/bits/char_traits.h
FN:106,_ZN9__gnu_cxx11char_traitsIcE2eqERKcS3_
FNDA:0,_ZN9__gnu_cxx11char_traitsIcE2eqERKcS3_
FN:167,_ZN9__gnu_cxx11char_traitsIcE6lengthEPKc
FNDA:0,_ZN9__gnu_cxx11char_traitsIcE6lengthEPKc
FN:190,_ZN9__gnu_cxx11char_traitsIcE4moveEPcPKcm
FNDA:0,_ZN9__gnu_cxx11char_traitsIcE4moveEPcPKcm
FN:240,_ZN9__gnu_cxx11char_traitsIcE4copyEPcPKcm
FNDA:0,_ZN9__gnu_cxx11char_traitsIcE4copyEPcPKcm
FN:356,_ZNSt11char_traitsIcE6assignERcRKc
FNDA:33119,_ZNSt11char_traitsIcE6assignERcRKc
FN:393,_ZNSt11char_traitsIcE6lengthEPKc
FNDA:14656,_ZNSt11char_traitsIcE6lengthEPKc
FN:417,_ZNSt11char_traitsIcE4moveEPcPKcm
FNDA:3,_ZNSt11char_traitsIcE4moveEPcPKcm
FN:429,_ZNSt11char_traitsIcE4copyEPcPKcm
FNDA:24508,_ZNSt11char_traitsIcE4copyEPcPKcm
DA:106,0
DA:107,0
DA:167,0
DA:170,0
DA:171,0
DA:172,0
DA:173,0
DA:190,0
DA:193,0
DA:194,0
DA:196,0
DA:198,0
DA:199,0
DA:203,0
DA:204,0
DA:205,0
DA:206,0
DA:230,0
DA:233,0
DA:234,0
DA:240,0
DA:244,0
DA:245,0
DA:290,14656
DA:356,33119
DA:357,33119
DA:393,14656
DA:396,14656
DA:397,0
DA:399,14656
DA:417,3
DA:419,3
DA:420,0
DA:422,3
DA:423,0
DA:425,3
DA:429,24508
DA:431,24508
DA:432,385
DA:434,24123
DA:435,0
DA:437,24123
end_of_record
SF:/usr/include/c++/11/bits/allocator.h
FN:156,_ZNSaISt10unique_ptrI14BaseControllerSt14default_deleteIS0_EEEC2Ev
FNDA:69,_ZNSaISt10unique_ptrI14BaseControllerSt14default_deleteIS0_EEEC2Ev
FN:156,_ZNSaISt13_Rb_tree_nodeISt4pairIKPKN5boost6system14error_categoryESt10unique_ptrINS2_6detail12std_categoryESt14default_deleteIS9_EEEEEC2Ev
FNDA:0,_ZNSaISt13_Rb_tree_nodeISt4pairIKPKN5boost6system14error_categoryESt10unique_ptrINS2_6detail12std_categoryESt14default_deleteIS9_EEEEEC2Ev
FN:174,_ZNSaISt10unique_ptrI14BaseControllerSt14default_deleteIS0_EEED2Ev
FNDA:67,_ZNSaISt10unique_ptrI14BaseControllerSt14default_deleteIS0_EEED2Ev
FN:174,_ZNSaISt13_Rb_tree_nodeISt4pairIKPKN5boost6system14error_categoryESt10unique_ptrINS2_6detail12std_categoryESt14default_deleteIS9_EEEEED2Ev
FNDA:0,_ZNSaISt13_Rb_tree_nodeISt4pairIKPKN5boost6system14error_categoryESt10unique_ptrINS2_6detail12std_categoryESt14default_deleteIS9_EEEEED2Ev
DA:156,69
DA:156,0
DA:174,67
DA:174,0
DA:182,15054
DA:183,0
DA:185,15054
DA:193,7729
DA:195,0
DA:196,0
DA:199,7729
end_of_record
SF:/usr/include/c++/11/bits/unique_ptr.h
FN:75,_ZNSt14default_deleteI14BaseControllerEC2I18MetadataControllervEERKS_IT_E
FNDA:69,_ZNSt14default_deleteI14BaseControllerEC2I18MetadataControllervEERKS_IT_E
FN:75,_ZNSt14default_deleteI14BaseControllerEC2I26DetailedPlaylistControllervEERKS_IT_E
FNDA:69,_ZNSt14default_deleteI14BaseControllerEC2I26DetailedPlaylistControllervEERKS_IT_E
FN:75,_ZNSt14default_deleteI14BaseControllerEC2I22PlayingMediaControllervEERKS_IT_E
FNDA:69,_ZNSt14default_deleteI14BaseControllerEC2I22PlayingMediaControllervEERKS_IT_E
FN:75,_ZNSt14default_deleteI14BaseControllerEC2I19MediaFileControllervEERKS_IT_E
FNDA:69,_ZNSt14default_deleteI14BaseControllerEC2I19MediaFileControllervEERKS_IT_E
FN:75,_ZNSt14default_deleteI14BaseControllerEC2I18PlaylistControllervEERKS_IT_E
FNDA:69,_ZNSt14default_deleteI14BaseControllerEC2I18PlaylistControllervEERKS_IT_E
FN:75,_ZNSt14default_deleteI14BaseControllerEC2I21ScanfOptionControllervEERKS_IT_E
FNDA:69,_ZNSt14default_deleteI14BaseControllerEC2I21ScanfOptionControllervEERKS_IT_E
FN:75,_ZNSt14default_deleteI14BaseControllerEC2I18MainMenuControllervEERKS_IT_E
FNDA:69,_ZNSt14default_deleteI14BaseControllerEC2I18MainMenuControllervEERKS_IT_E
FN:75,_ZNSt14default_deleteI14BaseControllerEC2I18HardwareControllervEERKS_IT_E
FNDA:69,_ZNSt14default_deleteI14BaseControllerEC2I18HardwareControllervEERKS_IT_E
FN:79,_ZNKSt14default_deleteI18MainMenuControllerEclEPS0_
FNDA:1,_ZNKSt14default_deleteI18MainMenuControllerEclEPS0_
FN:79,_ZNKSt14default_deleteI18MetadataControllerEclEPS0_
FNDA:6,_ZNKSt14default_deleteI18MetadataControllerEclEPS0_
FN:79,_ZNKSt14default_deleteI14BaseControllerEclEPS0_
FNDA:536,_ZNKSt14default_deleteI14BaseControllerEclEPS0_
FN:79,_ZNKSt14default_deleteI21ScanfOptionControllerEclEPS0_
FNDA:15,_ZNKSt14default_deleteI21ScanfOptionControllerEclEPS0_
FN:79,_ZNKSt14default_deleteI18PlaylistControllerEclEPS0_
FNDA:4,_ZNKSt14default_deleteI18PlaylistControllerEclEPS0_
FN:79,_ZNKSt14default_deleteI19MediaFileControllerEclEPS0_
FNDA:18,_ZNKSt14default_deleteI19MediaFileControllerEclEPS0_
FN:79,_ZNKSt14default_deleteI22PlayingMediaControllerEclEPS0_
FNDA:15,_ZNKSt14default_deleteI22PlayingMediaControllerEclEPS0_
FN:79,_ZNKSt14default_deleteI18HardwareControllerEclEPS0_
FNDA:10,_ZNKSt14default_deleteI18HardwareControllerEclEPS0_
FN:79,_ZNKSt14default_deleteI26DetailedPlaylistControllerEclEPS0_
FNDA:7,_ZNKSt14default_deleteI26DetailedPlaylistControllerEclEPS0_
FN:79,_ZNKSt14default_deleteIN5boost6system6detail12std_categoryEEclEPS3_
FNDA:0,_ZNKSt14default_deleteIN5boost6system6detail12std_categoryEEclEPS3_
FN:154,_ZNSt15__uniq_ptr_implI14BaseControllerSt14default_deleteIS0_EEC2Ev
FNDA:0,_ZNSt15__uniq_ptr_implI14BaseControllerSt14default_deleteIS0_EEC2Ev
FN:155,_ZNSt15__uniq_ptr_implI26DetailedPlaylistControllerSt14default_deleteIS0_EEC2EPS0_
FNDA:76,_ZNSt15__uniq_ptr_implI26DetailedPlaylistControllerSt14default_deleteIS0_EEC2EPS0_
FN:155,_ZNSt15__uniq_ptr_implI18MainMenuControllerSt14default_deleteIS0_EEC2EPS0_
FNDA:70,_ZNSt15__uniq_ptr_implI18MainMenuControllerSt14default_deleteIS0_EEC2EPS0_
FN:155,_ZNSt15__uniq_ptr_implI18HardwareControllerSt14default_deleteIS0_EEC2EPS0_
FNDA:79,_ZNSt15__uniq_ptr_implI18HardwareControllerSt14default_deleteIS0_EEC2EPS0_
FN:155,_ZNSt15__uniq_ptr_implIN5boost6system6detail12std_categoryESt14default_deleteIS3_EEC2EPS3_
FNDA:0,_ZNSt15__uniq_ptr_implIN5boost6system6detail12std_categoryESt14default_deleteIS3_EEC2EPS3_
FN:155,_ZNSt15__uniq_ptr_implI21ScanfOptionControllerSt14default_deleteIS0_EEC2EPS0_
FNDA:84,_ZNSt15__uniq_ptr_implI21ScanfOptionControllerSt14default_deleteIS0_EEC2EPS0_
FN:155,_ZNSt15__uniq_ptr_implI18MetadataControllerSt14default_deleteIS0_EEC2EPS0_
FNDA:75,_ZNSt15__uniq_ptr_implI18MetadataControllerSt14default_deleteIS0_EEC2EPS0_
FN:155,_ZNSt15__uniq_ptr_implI18PlaylistControllerSt14default_deleteIS0_EEC2EPS0_
FNDA:73,_ZNSt15__uniq_ptr_implI18PlaylistControllerSt14default_deleteIS0_EEC2EPS0_
FN:155,_ZNSt15__uniq_ptr_implI19MediaFileControllerSt14default_deleteIS0_EEC2EPS0_
FNDA:87,_ZNSt15__uniq_ptr_implI19MediaFileControllerSt14default_deleteIS0_EEC2EPS0_
FN:155,_ZNSt15__uniq_ptr_implI22PlayingMediaControllerSt14default_deleteIS0_EEC2EPS0_
FNDA:84,_ZNSt15__uniq_ptr_implI22PlayingMediaControllerSt14default_deleteIS0_EEC2EPS0_
FN:158,_ZNSt15__uniq_ptr_implI14BaseControllerSt14default_deleteIS0_EEC2IS1_I18MetadataControllerEEEPS0_OT_
FNDA:69,_ZNSt15__uniq_ptr_implI14BaseControllerSt14default_deleteIS0_EEC2IS1_I18MetadataControllerEEEPS0_OT_
FN:158,_ZNSt15__uniq_ptr_implI14BaseControllerSt14default_deleteIS0_EEC2IS1_I21ScanfOptionControllerEEEPS0_OT_
FNDA:69,_ZNSt15__uniq_ptr_implI14BaseControllerSt14default_deleteIS0_EEC2IS1_I21ScanfOptionControllerEEEPS0_OT_
FN:158,_ZNSt15__uniq_ptr_implI14BaseControllerSt14default_deleteIS0_EEC2IS1_I26DetailedPlaylistControllerEEEPS0_OT_
FNDA:69,_ZNSt15__uniq_ptr_implI14BaseControllerSt14default_deleteIS0_EEC2IS1_I26DetailedPlaylistControllerEEEPS0_OT_
FN:158,_ZNSt15__uniq_ptr_implI14BaseControllerSt14default_deleteIS0_EEC2IS1_I18PlaylistControllerEEEPS0_OT_
FNDA:69,_ZNSt15__uniq_ptr_implI14BaseControllerSt14default_deleteIS0_EEC2IS1_I18PlaylistControllerEEEPS0_OT_
FN:158,_ZNSt15__uniq_ptr_implI14BaseControllerSt14default_deleteIS0_EEC2IS1_I18MainMenuControllerEEEPS0_OT_
FNDA:69,_ZNSt15__uniq_ptr_implI14BaseControllerSt14default_deleteIS0_EEC2IS1_I18MainMenuControllerEEEPS0_OT_
FN:158,_ZNSt15__uniq_ptr_implI14BaseControllerSt14default_deleteIS0_EEC2IS1_I19MediaFileControllerEEEPS0_OT_
FNDA:69,_ZNSt15__uniq_ptr_implI14BaseControllerSt14default_deleteIS0_EEC2IS1_I19MediaFileControllerEEEPS0_OT_
FN:158,_ZNSt15__uniq_ptr_implI14BaseControllerSt14default_deleteIS0_EEC2IS1_I18HardwareControllerEEEPS0_OT_
FNDA:69,_ZNSt15__uniq_ptr_implI14BaseControllerSt14default_deleteIS0_EEC2IS1_I18HardwareControllerEEEPS0_OT_
FN:158,_ZNSt15__uniq_ptr_implI14BaseControllerSt14default_deleteIS0_EEC2IS1_I22PlayingMediaControllerEEEPS0_OT_
FNDA:69,_ZNSt15__uniq_ptr_implI14BaseControllerSt14default_deleteIS0_EEC2IS1_I22PlayingMediaControllerEEEPS0_OT_
FN:161,_ZNSt15__uniq_ptr_implI14BaseControllerSt14default_deleteIS0_EEC2EOS3_
FNDA:1035,_ZNSt15__uniq_ptr_implI14BaseControllerSt14default_deleteIS0_EEC2EOS3_
FN:161,_ZNSt15__uniq_ptr_implIN5boost6system6detail12std_categoryESt14default_deleteIS3_EEC2EOS6_
FNDA:0,_ZNSt15__uniq_ptr_implIN5boost6system6detail12std_categoryESt14default_deleteIS3_EEC2EOS6_
FN:172,_ZNSt15__uniq_ptr_implI18MetadataControllerSt14default_deleteIS0_EE6_M_ptrEv
FNDA:318,_ZNSt15__uniq_ptr_implI18MetadataControllerSt14default_deleteIS0_EE6_M_ptrEv
FN:172,_ZNSt15__uniq_ptr_implI26DetailedPlaylistControllerSt14default_deleteIS0_EE6_M_ptrEv
FNDA:325,_ZNSt15__uniq_ptr_implI26DetailedPlaylistControllerSt14default_deleteIS0_EE6_M_ptrEv
FN:172,_ZNSt15__uniq_ptr_implI19MediaFileControllerSt14default_deleteIS0_EE6_M_ptrEv
FNDA:393,_ZNSt15__uniq_ptr_implI19MediaFileControllerSt14default_deleteIS0_EE6_M_ptrEv
FN:172,_ZNSt15__uniq_ptr_implINSt10filesystem7__cxx114path5_List5_ImplENS3_13_Impl_deleterEE6_M_ptrEv
FNDA:324,_ZNSt15__uniq_ptr_implINSt10filesystem7__cxx114path5_List5_ImplENS3_13_Impl_deleterEE6_M_ptrEv
FN:172,_ZNSt15__uniq_ptr_implI22PlayingMediaControllerSt14default_deleteIS0_EE6_M_ptrEv
FNDA:381,_ZNSt15__uniq_ptr_implI22PlayingMediaControllerSt14default_deleteIS0_EE6_M_ptrEv
FN:172,_ZNSt15__uniq_ptr_implIN5boost6system6detail12std_categoryESt14default_deleteIS3_EE6_M_ptrEv
FNDA:0,_ZNSt15__uniq_ptr_implIN5boost6system6detail12std_categoryESt14default_deleteIS3_EE6_M_ptrEv
FN:172,_ZNSt15__uniq_ptr_implI18PlaylistControllerSt14default_deleteIS0_EE6_M_ptrEv
FNDA:304,_ZNSt15__uniq_ptr_implI18PlaylistControllerSt14default_deleteIS0_EE6_M_ptrEv
FN:172,_ZNSt15__uniq_ptr_implI21ScanfOptionControllerSt14default_deleteIS0_EE6_M_ptrEv
FNDA:381,_ZNSt15__uniq_ptr_implI21ScanfOptionControllerSt14default_deleteIS0_EE6_M_ptrEv
FN:172,_ZNSt15__uniq_ptr_implI14BaseControllerSt14default_deleteIS0_EE6_M_ptrEv
FNDA:2606,_ZNSt15__uniq_ptr_implI14BaseControllerSt14default_deleteIS0_EE6_M_ptrEv
FN:172,_ZNSt15__uniq_ptr_implI18MainMenuControllerSt14default_deleteIS0_EE6_M_ptrEv
FNDA:283,_ZNSt15__uniq_ptr_implI18MainMenuControllerSt14default_deleteIS0_EE6_M_ptrEv
FN:172,_ZNSt15__uniq_ptr_implI18HardwareControllerSt14default_deleteIS0_EE6_M_ptrEv
FNDA:346,_ZNSt15__uniq_ptr_implI18HardwareControllerSt14default_deleteIS0_EE6_M_ptrEv
FN:173,_ZNKSt15__uniq_ptr_implIN5boost6system6detail12std_categoryESt14default_deleteIS3_EE6_M_ptrEv
FNDA:0,_ZNKSt15__uniq_ptr_implIN5boost6system6detail12std_categoryESt14default_deleteIS3_EE6_M_ptrEv
FN:173,_ZNKSt15__uniq_ptr_implI14BaseControllerSt14default_deleteIS0_EE6_M_ptrEv
FNDA:16,_ZNKSt15__uniq_ptr_implI14BaseControllerSt14default_deleteIS0_EE6_M_ptrEv
FN:174,_ZNSt15__uniq_ptr_implI18HardwareControllerSt14default_deleteIS0_EE10_M_deleterEv
FNDA:99,_ZNSt15__uniq_ptr_implI18HardwareControllerSt14default_deleteIS0_EE10_M_deleterEv
FN:174,_ZNSt15__uniq_ptr_implI14BaseControllerSt14default_deleteIS0_EE10_M_deleterEv
FNDA:536,_ZNSt15__uniq_ptr_implI14BaseControllerSt14default_deleteIS0_EE10_M_deleterEv
FN:174,_ZNSt15__uniq_ptr_implI21ScanfOptionControllerSt14default_deleteIS0_EE10_M_deleterEv
FNDA:114,_ZNSt15__uniq_ptr_implI21ScanfOptionControllerSt14default_deleteIS0_EE10_M_deleterEv
FN:174,_ZNSt15__uniq_ptr_implI18MainMenuControllerSt14default_deleteIS0_EE10_M_deleterEv
FNDA:72,_ZNSt15__uniq_ptr_implI18MainMenuControllerSt14default_deleteIS0_EE10_M_deleterEv
FN:174,_ZNSt15__uniq_ptr_implI18PlaylistControllerSt14default_deleteIS0_EE10_M_deleterEv
FNDA:81,_ZNSt15__uniq_ptr_implI18PlaylistControllerSt14default_deleteIS0_EE10_M_deleterEv
FN:174,_ZNSt15__uniq_ptr_implIN5boost6system6detail12std_categoryESt14default_deleteIS3_EE10_M_deleterEv
FNDA:0,_ZNSt15__uniq_ptr_implIN5boost6system6detail12std_categoryESt14default_deleteIS3_EE10_M_deleterEv
FN:174,_ZNSt15__uniq_ptr_implI19MediaFileControllerSt14default_deleteIS0_EE10_M_deleterEv
FNDA:123,_ZNSt15__uniq_ptr_implI19MediaFileControllerSt14default_deleteIS0_EE10_M_deleterEv
FN:174,_ZNSt15__uniq_ptr_implI22PlayingMediaControllerSt14default_deleteIS0_EE10_M_deleterEv
FNDA:114,_ZNSt15__uniq_ptr_implI22PlayingMediaControllerSt14default_deleteIS0_EE10_M_deleterEv
FN:174,_ZNSt15__uniq_ptr_implI26DetailedPlaylistControllerSt14default_deleteIS0_EE10_M_deleterEv
FNDA:90,_ZNSt15__uniq_ptr_implI26DetailedPlaylistControllerSt14default_deleteIS0_EE10_M_deleterEv
FN:174,_ZNSt15__uniq_ptr_implI18MetadataControllerSt14default_deleteIS0_EE10_M_deleterEv
FNDA:87,_ZNSt15__uniq_ptr_implI18MetadataControllerSt14default_deleteIS0_EE10_M_deleterEv
FN:174,_ZNSt15__uniq_ptr_implINSt10filesystem7__cxx114path5_List5_ImplENS3_13_Impl_deleterEE10_M_deleterEv
FNDA:324,_ZNSt15__uniq_ptr_implINSt10filesystem7__cxx114path5_List5_ImplENS3_13_Impl_deleterEE10_M_deleterEv
FN:185,_ZNSt15__uniq_ptr_implI19MediaFileControllerSt14default_deleteIS0_EE7releaseEv
FNDA:87,_ZNSt15__uniq_ptr_implI19MediaFileControllerSt14default_deleteIS0_EE7releaseEv
FN:185,_ZNSt15__uniq_ptr_implI22PlayingMediaControllerSt14default_deleteIS0_EE7releaseEv
FNDA:84,_ZNSt15__uniq_ptr_implI22PlayingMediaControllerSt14default_deleteIS0_EE7releaseEv
FN:185,_ZNSt15__uniq_ptr_implI18PlaylistControllerSt14default_deleteIS0_EE7releaseEv
FNDA:73,_ZNSt15__uniq_ptr_implI18PlaylistControllerSt14default_deleteIS0_EE7releaseEv
FN:185,_ZNSt15__uniq_ptr_implI26DetailedPlaylistControllerSt14default_deleteIS0_EE7releaseEv
FNDA:76,_ZNSt15__uniq_ptr_implI26DetailedPlaylistControllerSt14default_deleteIS0_EE7releaseEv
FN:185,_ZNSt15__uniq_ptr_implI18MetadataControllerSt14default_deleteIS0_EE7releaseEv
FNDA:75,_ZNSt15__uniq_ptr_implI18MetadataControllerSt14default_deleteIS0_EE7releaseEv
FN:185,_ZNSt15__uniq_ptr_implI21ScanfOptionControllerSt14default_deleteIS0_EE7releaseEv
FNDA:84,_ZNSt15__uniq_ptr_implI21ScanfOptionControllerSt14default_deleteIS0_EE7releaseEv
FN:185,_ZNSt15__uniq_ptr_implI18HardwareControllerSt14default_deleteIS0_EE7releaseEv
FNDA:79,_ZNSt15__uniq_ptr_implI18HardwareControllerSt14default_deleteIS0_EE7releaseEv
FN:185,_ZNSt15__uniq_ptr_implI18MainMenuControllerSt14default_deleteIS0_EE7releaseEv
FNDA:70,_ZNSt15__uniq_ptr_implI18MainMenuControllerSt14default_deleteIS0_EE7releaseEv
FN:211,_ZNSt15__uniq_ptr_dataIN5boost6system6detail12std_categoryESt14default_deleteIS3_ELb1ELb1EEC2EOS6_
FNDA:0,_ZNSt15__uniq_ptr_dataIN5boost6system6detail12std_categoryESt14default_deleteIS3_ELb1ELb1EEC2EOS6_
FN:211,_ZNSt15__uniq_ptr_dataI14BaseControllerSt14default_deleteIS0_ELb1ELb1EEC2EOS3_
FNDA:1035,_ZNSt15__uniq_ptr_dataI14BaseControllerSt14default_deleteIS0_ELb1ELb1EEC2EOS3_
FN:281,_ZNSt10unique_ptrI22PlayingMediaControllerSt14default_deleteIS0_EEC2IS2_vEEPS0_
FNDA:84,_ZNSt10unique_ptrI22PlayingMediaControllerSt14default_deleteIS0_EEC2IS2_vEEPS0_
FN:281,_ZNSt10unique_ptrI18MainMenuControllerSt14default_deleteIS0_EEC2IS2_vEEPS0_
FNDA:70,_ZNSt10unique_ptrI18MainMenuControllerSt14default_deleteIS0_EEC2IS2_vEEPS0_
FN:281,_ZNSt10unique_ptrI26DetailedPlaylistControllerSt14default_deleteIS0_EEC2IS2_vEEPS0_
FNDA:76,_ZNSt10unique_ptrI26DetailedPlaylistControllerSt14default_deleteIS0_EEC2IS2_vEEPS0_
FN:281,_ZNSt10unique_ptrI19MediaFileControllerSt14default_deleteIS0_EEC2IS2_vEEPS0_
FNDA:87,_ZNSt10unique_ptrI19MediaFileControllerSt14default_deleteIS0_EEC2IS2_vEEPS0_
FN:281,_ZNSt10unique_ptrIN5boost6system6detail12std_categoryESt14default_deleteIS3_EEC2IS5_vEEPS3_
FNDA:0,_ZNSt10unique_ptrIN5boost6system6detail12std_categoryESt14default_deleteIS3_EEC2IS5_vEEPS3_
FN:281,_ZNSt10unique_ptrI18MetadataControllerSt14default_deleteIS0_EEC2IS2_vEEPS0_
FNDA:75,_ZNSt10unique_ptrI18MetadataControllerSt14default_deleteIS0_EEC2IS2_vEEPS0_
FN:281,_ZNSt10unique_ptrI21ScanfOptionControllerSt14default_deleteIS0_EEC2IS2_vEEPS0_
FNDA:84,_ZNSt10unique_ptrI21ScanfOptionControllerSt14default_deleteIS0_EEC2IS2_vEEPS0_
FN:281,_ZNSt10unique_ptrI18PlaylistControllerSt14default_deleteIS0_EEC2IS2_vEEPS0_
FNDA:73,_ZNSt10unique_ptrI18PlaylistControllerSt14default_deleteIS0_EEC2IS2_vEEPS0_
FN:281,_ZNSt10unique_ptrI18HardwareControllerSt14default_deleteIS0_EEC2IS2_vEEPS0_
FNDA:79,_ZNSt10unique_ptrI18HardwareControllerSt14default_deleteIS0_EEC2IS2_vEEPS0_
FN:320,_ZNSt10unique_ptrI14BaseControllerSt14default_deleteIS0_EEC2IS2_vEEDn
FNDA:0,_ZNSt10unique_ptrI14BaseControllerSt14default_deleteIS0_EEC2IS2_vEEDn
FN:327,_ZNSt10unique_ptrI14BaseControllerSt14default_deleteIS0_EEC2EOS3_
FNDA:1035,_ZNSt10unique_ptrI14BaseControllerSt14default_deleteIS0_EEC2EOS3_
FN:327,_ZNSt10unique_ptrIN5boost6system6detail12std_categoryESt14default_deleteIS3_EEC2EOS6_
FNDA:0,_ZNSt10unique_ptrIN5boost6system6detail12std_categoryESt14default_deleteIS3_EEC2EOS6_
FN:340,_ZNSt10unique_ptrI14BaseControllerSt14default_deleteIS0_EEC2I18HardwareControllerS1_IS5_EvEEOS_IT_T0_E
FNDA:69,_ZNSt10unique_ptrI14BaseControllerSt14default_deleteIS0_EEC2I18HardwareControllerS1_IS5_EvEEOS_IT_T0_E
FN:340,_ZNSt10unique_ptrI14BaseControllerSt14default_deleteIS0_EEC2I19MediaFileControllerS1_IS5_EvEEOS_IT_T0_E
FNDA:69,_ZNSt10unique_ptrI14BaseControllerSt14default_deleteIS0_EEC2I19MediaFileControllerS1_IS5_EvEEOS_IT_T0_E
FN:340,_ZNSt10unique_ptrI14BaseControllerSt14default_deleteIS0_EEC2I21ScanfOptionControllerS1_IS5_EvEEOS_IT_T0_E
FNDA:69,_ZNSt10unique_ptrI14BaseControllerSt14default_deleteIS0_EEC2I21ScanfOptionControllerS1_IS5_EvEEOS_IT_T0_E
FN:340,_ZNSt10unique_ptrI14BaseControllerSt14default_deleteIS0_EEC2I18MainMenuControllerS1_IS5_EvEEOS_IT_T0_E
FNDA:69,_ZNSt10unique_ptrI14BaseControllerSt14default_deleteIS0_EEC2I18MainMenuControllerS1_IS5_EvEEOS_IT_T0_E
FN:340,_ZNSt10unique_ptrI14BaseControllerSt14default_deleteIS0_EEC2I22PlayingMediaControllerS1_IS5_EvEEOS_IT_T0_E
FNDA:69,_ZNSt10unique_ptrI14BaseControllerSt14default_deleteIS0_EEC2I22PlayingMediaControllerS1_IS5_EvEEOS_IT_T0_E
FN:340,_ZNSt10unique_ptrI14BaseControllerSt14default_deleteIS0_EEC2I18MetadataControllerS1_IS5_EvEEOS_IT_T0_E
FNDA:69,_ZNSt10unique_ptrI14BaseControllerSt14default_deleteIS0_EEC2I18MetadataControllerS1_IS5_EvEEOS_IT_T0_E
FN:340,_ZNSt10unique_ptrI14BaseControllerSt14default_deleteIS0_EEC2I18PlaylistControllerS1_IS5_EvEEOS_IT_T0_E
FNDA:69,_ZNSt10unique_ptrI14BaseControllerSt14default_deleteIS0_EEC2I18PlaylistControllerS1_IS5_EvEEOS_IT_T0_E
FN:340,_ZNSt10unique_ptrI14BaseControllerSt14default_deleteIS0_EEC2I26DetailedPlaylistControllerS1_IS5_EvEEOS_IT_T0_E
FNDA:69,_ZNSt10unique_ptrI14BaseControllerSt14default_deleteIS0_EEC2I26DetailedPlaylistControllerS1_IS5_EvEEOS_IT_T0_E
FN:355,_ZNSt10unique_ptrI18HardwareControllerSt14default_deleteIS0_EED2Ev
FNDA:89,_ZNSt10unique_ptrI18HardwareControllerSt14default_deleteIS0_EED2Ev
FN:355,_ZNSt10unique_ptrI18MainMenuControllerSt14default_deleteIS0_EED2Ev
FNDA:71,_ZNSt10unique_ptrI18MainMenuControllerSt14default_deleteIS0_EED2Ev
FN:355,_ZNSt10unique_ptrINSt10filesystem7__cxx114path5_List5_ImplENS3_13_Impl_deleterEED2Ev
FNDA:324,_ZNSt10unique_ptrINSt10filesystem7__cxx114path5_List5_ImplENS3_13_Impl_deleterEED2Ev
FN:355,_ZNSt10unique_ptrIN5boost6system6detail12std_categoryESt14default_deleteIS3_EED2Ev
FNDA:0,_ZNSt10unique_ptrIN5boost6system6detail12std_categoryESt14default_deleteIS3_EED2Ev
FN:355,_ZNSt10unique_ptrI18MetadataControllerSt14default_deleteIS0_EED2Ev
FNDA:81,_ZNSt10unique_ptrI18MetadataControllerSt14default_deleteIS0_EED2Ev
FN:355,_ZNSt10unique_ptrI26DetailedPlaylistControllerSt14default_deleteIS0_EED2Ev
FNDA:83,_ZNSt10unique_ptrI26DetailedPlaylistControllerSt14default_deleteIS0_EED2Ev
FN:355,_ZNSt10unique_ptrI14BaseControllerSt14default_deleteIS0_EED2Ev
FNDA:1571,_ZNSt10unique_ptrI14BaseControllerSt14default_deleteIS0_EED2Ev
FN:355,_ZNSt10unique_ptrI22PlayingMediaControllerSt14default_deleteIS0_EED2Ev
FNDA:99,_ZNSt10unique_ptrI22PlayingMediaControllerSt14default_deleteIS0_EED2Ev
FN:355,_ZNSt10unique_ptrI21ScanfOptionControllerSt14default_deleteIS0_EED2Ev
FNDA:99,_ZNSt10unique_ptrI21ScanfOptionControllerSt14default_deleteIS0_EED2Ev
FN:355,_ZNSt10unique_ptrI19MediaFileControllerSt14default_deleteIS0_EED2Ev
FNDA:96,_ZNSt10unique_ptrI19MediaFileControllerSt14default_deleteIS0_EED2Ev
FN:355,_ZNSt10unique_ptrI18PlaylistControllerSt14default_deleteIS0_EED2Ev
FNDA:77,_ZNSt10unique_ptrI18PlaylistControllerSt14default_deleteIS0_EED2Ev
FN:405,_ZNKSt10unique_ptrIN5boost6system6detail12std_categoryESt14default_deleteIS3_EEdeEv
FNDA:0,_ZNKSt10unique_ptrIN5boost6system6detail12std_categoryESt14default_deleteIS3_EEdeEv
FN:421,_ZNKSt10unique_ptrIN5boost6system6detail12std_categoryESt14default_deleteIS3_EE3getEv
FNDA:0,_ZNKSt10unique_ptrIN5boost6system6detail12std_categoryESt14default_deleteIS3_EE3getEv
FN:421,_ZNKSt10unique_ptrI14BaseControllerSt14default_deleteIS0_EE3getEv
FNDA:16,_ZNKSt10unique_ptrI14BaseControllerSt14default_deleteIS0_EE3getEv
FN:426,_ZNSt10unique_ptrI18PlaylistControllerSt14default_deleteIS0_EE11get_deleterEv
FNDA:73,_ZNSt10unique_ptrI18PlaylistControllerSt14default_deleteIS0_EE11get_deleterEv
FN:426,_ZNSt10unique_ptrI18MetadataControllerSt14default_deleteIS0_EE11get_deleterEv
FNDA:75,_ZNSt10unique_ptrI18MetadataControllerSt14default_deleteIS0_EE11get_deleterEv
FN:426,_ZNSt10unique_ptrI26DetailedPlaylistControllerSt14default_deleteIS0_EE11get_deleterEv
FNDA:76,_ZNSt10unique_ptrI26DetailedPlaylistControllerSt14default_deleteIS0_EE11get_deleterEv
FN:426,_ZNSt10unique_ptrI18HardwareControllerSt14default_deleteIS0_EE11get_deleterEv
FNDA:79,_ZNSt10unique_ptrI18HardwareControllerSt14default_deleteIS0_EE11get_deleterEv
FN:426,_ZNSt10unique_ptrI22PlayingMediaControllerSt14default_deleteIS0_EE11get_deleterEv
FNDA:84,_ZNSt10unique_ptrI22PlayingMediaControllerSt14default_deleteIS0_EE11get_deleterEv
FN:426,_ZNSt10unique_ptrI19MediaFileControllerSt14default_deleteIS0_EE11get_deleterEv
FNDA:78,_ZNSt10unique_ptrI19MediaFileControllerSt14default_deleteIS0_EE11get_deleterEv
FN:426,_ZNSt10unique_ptrI21ScanfOptionControllerSt14default_deleteIS0_EE11get_deleterEv
FNDA:84,_ZNSt10unique_ptrI21ScanfOptionControllerSt14default_deleteIS0_EE11get_deleterEv
FN:426,_ZNSt10unique_ptrI18MainMenuControllerSt14default_deleteIS0_EE11get_deleterEv
FNDA:70,_ZNSt10unique_ptrI18MainMenuControllerSt14default_deleteIS0_EE11get_deleterEv
FN:426,_ZNSt10unique_ptrI14BaseControllerSt14default_deleteIS0_EE11get_deleterEv
FNDA:536,_ZNSt10unique_ptrI14BaseControllerSt14default_deleteIS0_EE11get_deleterEv
FN:426,_ZNSt10unique_ptrINSt10filesystem7__cxx114path5_List5_ImplENS3_13_Impl_deleterEE11get_deleterEv
FNDA:324,_ZNSt10unique_ptrINSt10filesystem7__cxx114path5_List5_ImplENS3_13_Impl_deleterEE11get_deleterEv
FN:426,_ZNSt10unique_ptrIN5boost6system6detail12std_categoryESt14default_deleteIS3_EE11get_deleterEv
FNDA:0,_ZNSt10unique_ptrIN5boost6system6detail12std_categoryESt14default_deleteIS3_EE11get_deleterEv
FN:435,_ZNKSt10unique_ptrI14BaseControllerSt14default_deleteIS0_EEcvbEv
FNDA:1,_ZNKSt10unique_ptrI14BaseControllerSt14default_deleteIS0_EEcvbEv
FN:442,_ZNSt10unique_ptrI18MainMenuControllerSt14default_deleteIS0_EE7releaseEv
FNDA:69,_ZNSt10unique_ptrI18MainMenuControllerSt14default_deleteIS0_EE7releaseEv
FN:442,_ZNSt10unique_ptrI21ScanfOptionControllerSt14default_deleteIS0_EE7releaseEv
FNDA:69,_ZNSt10unique_ptrI21ScanfOptionControllerSt14default_deleteIS0_EE7releaseEv
FN:442,_ZNSt10unique_ptrI18MetadataControllerSt14default_deleteIS0_EE7releaseEv
FNDA:69,_ZNSt10unique_ptrI18MetadataControllerSt14default_deleteIS0_EE7releaseEv
FN:442,_ZNSt10unique_ptrI26DetailedPlaylistControllerSt14default_deleteIS0_EE7releaseEv
FNDA:69,_ZNSt10unique_ptrI26DetailedPlaylistControllerSt14default_deleteIS0_EE7releaseEv
FN:442,_ZNSt10unique_ptrI18PlaylistControllerSt14default_deleteIS0_EE7releaseEv
FNDA:69,_ZNSt10unique_ptrI18PlaylistControllerSt14default_deleteIS0_EE7releaseEv
FN:442,_ZNSt10unique_ptrI19MediaFileControllerSt14default_deleteIS0_EE7releaseEv
FNDA:69,_ZNSt10unique_ptrI19MediaFileControllerSt14default_deleteIS0_EE7releaseEv
FN:442,_ZNSt10unique_ptrI22PlayingMediaControllerSt14default_deleteIS0_EE7releaseEv
FNDA:69,_ZNSt10unique_ptrI22PlayingMediaControllerSt14default_deleteIS0_EE7releaseEv
FN:442,_ZNSt10unique_ptrI18HardwareControllerSt14default_deleteIS0_EE7releaseEv
FNDA:69,_ZNSt10unique_ptrI18HardwareControllerSt14default_deleteIS0_EE7releaseEv
FN:961,_ZSt11make_uniqueI21ScanfOptionControllerJEENSt9_MakeUniqIT_E15__single_objectEDpOT0_
FNDA:84,_ZSt11make_uniqueI21ScanfOptionControllerJEENSt9_MakeUniqIT_E15__single_objectEDpOT0_
FN:961,_ZSt11make_uniqueI18HardwareControllerJRA13_KciEENSt9_MakeUniqIT_E15__single_objectEDpOT0_
FNDA:79,_ZSt11make_uniqueI18HardwareControllerJRA13_KciEENSt9_MakeUniqIT_E15__single_objectEDpOT0_
FN:961,_ZSt11make_uniqueI18MainMenuControllerJEENSt9_MakeUniqIT_E15__single_objectEDpOT0_
FNDA:70,_ZSt11make_uniqueI18MainMenuControllerJEENSt9_MakeUniqIT_E15__single_objectEDpOT0_
FN:961,_ZSt11make_uniqueI18MetadataControllerJEENSt9_MakeUniqIT_E15__single_objectEDpOT0_
FNDA:75,_ZSt11make_uniqueI18MetadataControllerJEENSt9_MakeUniqIT_E15__single_objectEDpOT0_
FN:961,_ZSt11make_uniqueI18PlaylistControllerJEENSt9_MakeUniqIT_E15__single_objectEDpOT0_
FNDA:73,_ZSt11make_uniqueI18PlaylistControllerJEENSt9_MakeUniqIT_E15__single_objectEDpOT0_
FN:961,_ZSt11make_uniqueI26DetailedPlaylistControllerJEENSt9_MakeUniqIT_E15__single_objectEDpOT0_
FNDA:76,_ZSt11make_uniqueI26DetailedPlaylistControllerJEENSt9_MakeUniqIT_E15__single_objectEDpOT0_
FN:961,_ZSt11make_uniqueI19MediaFileControllerJEENSt9_MakeUniqIT_E15__single_objectEDpOT0_
FNDA:87,_ZSt11make_uniqueI19MediaFileControllerJEENSt9_MakeUniqIT_E15__single_objectEDpOT0_
FN:961,_ZSt11make_uniqueI22PlayingMediaControllerJEENSt9_MakeUniqIT_E15__single_objectEDpOT0_
FNDA:84,_ZSt11make_uniqueI22PlayingMediaControllerJEENSt9_MakeUniqIT_E15__single_objectEDpOT0_
DA:75,69
DA:75,69
DA:75,69
DA:75,69
DA:75,69
DA:75,69
DA:75,69
DA:75,69
DA:79,10
DA:85,10
DA:86,10
DA:79,6
DA:85,6
DA:86,6
DA:79,7
DA:85,7
DA:86,7
DA:79,15
DA:85,15
DA:86,15
DA:79,18
DA:85,18
DA:86,18
DA:79,4
DA:85,4
DA:86,4
DA:79,15
DA:85,15
DA:86,15
DA:79,536
DA:85,536
DA:86,536
DA:79,1
DA:85,1
DA:86,1
DA:79,0
DA:85,0
DA:86,0
DA:154,0
DA:155,79
DA:155,75
DA:155,76
DA:155,84
DA:155,87
DA:155,73
DA:155,84
DA:155,70
DA:155,0
DA:158,69
DA:159,69
DA:158,69
DA:159,69
DA:158,69
DA:159,69
DA:158,69
DA:159,69
DA:158,69
DA:159,69
DA:158,69
DA:159,69
DA:158,69
DA:159,69
DA:158,69
DA:159,69
DA:161,1035
DA:162,1035
DA:163,1035
DA:161,0
DA:162,0
DA:163,0
DA:172,346
DA:172,318
DA:172,325
DA:172,381
DA:172,393
DA:172,304
DA:172,381
DA:172,2606
DA:172,283
DA:172,0
DA:172,324
DA:173,0
DA:173,16
DA:174,99
DA:174,87
DA:174,90
DA:174,114
DA:174,123
DA:174,81
DA:174,114
DA:174,536
DA:174,72
DA:174,0
DA:174,324
DA:185,79
DA:187,79
DA:188,79
DA:189,79
DA:185,75
DA:187,75
DA:188,75
DA:189,75
DA:185,76
DA:187,76
DA:188,76
DA:189,76
DA:185,84
DA:187,84
DA:188,84
DA:189,84
DA:185,87
DA:187,87
DA:188,87
DA:189,87
DA:185,73
DA:187,73
DA:188,73
DA:189,73
DA:185,84
DA:187,84
DA:188,84
DA:189,84
DA:185,70
DA:187,70
DA:188,70
DA:189,70
DA:211,1035
DA:211,0
DA:281,79
DA:282,79
DA:283,79
DA:281,75
DA:282,75
DA:283,75
DA:281,76
DA:282,76
DA:283,76
DA:281,84
DA:282,84
DA:283,84
DA:281,87
DA:282,87
DA:283,87
DA:281,73
DA:282,73
DA:283,73
DA:281,84
DA:282,84
DA:283,84
DA:281,70
DA:282,70
DA:283,70
DA:281,0
DA:282,0
DA:283,0
DA:320,0
DA:321,0
DA:322,0
DA:327,1035
DA:327,0
DA:340,69
DA:341,69
DA:342,69
DA:340,69
DA:341,69
DA:342,69
DA:340,69
DA:341,69
DA:342,69
DA:340,69
DA:341,69
DA:342,69
DA:340,69
DA:341,69
DA:342,69
DA:340,69
DA:341,69
DA:342,69
DA:340,69
DA:341,69
DA:342,69
DA:340,69
DA:341,69
DA:342,69
DA:355,89
DA:359,89
DA:360,89
DA:361,10
DA:362,89
DA:363,89
DA:355,81
DA:359,81
DA:360,81
DA:361,6
DA:362,81
DA:363,81
DA:355,83
DA:359,83
DA:360,83
DA:361,7
DA:362,83
DA:363,83
DA:355,99
DA:359,99
DA:360,99
DA:361,15
DA:362,99
DA:363,99
DA:355,96
DA:359,96
DA:360,96
DA:361,9
DA:362,96
DA:363,96
DA:355,77
DA:359,77
DA:360,77
DA:361,4
DA:362,77
DA:363,77
DA:355,99
DA:359,99
DA:360,99
DA:361,15
DA:362,99
DA:363,99
DA:355,1571
DA:359,1571
DA:360,1571
DA:361,536
DA:362,1571
DA:363,1571
DA:355,71
DA:359,71
DA:360,71
DA:361,1
DA:362,71
DA:363,71
DA:355,0
DA:359,0
DA:360,0
DA:361,0
DA:362,0
DA:363,0
DA:355,324
DA:359,324
DA:360,324
DA:361,324
DA:362,324
DA:363,324
DA:405,0
DA:407,0
DA:408,0
DA:421,0
DA:422,0
DA:421,16
DA:422,16
DA:426,79
DA:427,79
DA:426,75
DA:427,75
DA:426,76
DA:427,76
DA:426,84
DA:427,84
DA:426,78
DA:427,78
DA:426,73
DA:427,73
DA:426,84
DA:427,84
DA:426,536
DA:427,536
DA:426,70
DA:427,70
DA:426,0
DA:427,0
DA:426,324
DA:427,324
DA:435,1
DA:436,1
DA:442,69
DA:443,69
DA:442,69
DA:443,69
DA:442,69
DA:443,69
DA:442,69
DA:443,69
DA:442,69
DA:443,69
DA:442,69
DA:443,69
DA:442,69
DA:443,69
DA:442,69
DA:443,69
DA:961,79
DA:962,79
DA:961,75
DA:962,75
DA:961,76
DA:962,76
DA:961,84
DA:962,84
DA:961,87
DA:962,87
DA:961,73
DA:962,73
DA:961,84
DA:962,84
DA:961,70
DA:962,70
end_of_record
SF:/media/sf_Share_folder/UI/Spotify-rep-1-1/project/include/controller/DetailedPlaylistController.hpp
end_of_record
SF:/usr/include/boost/asio/execution_context.hpp
FN:312,_ZN5boost4asio17execution_context2idC2Ev
FNDA:4,_ZN5boost4asio17execution_context2idC2Ev
DA:312,4
end_of_record
SF:/usr/include/c++/11/bits/ptr_traits.h
FN:149,_ZNSt14pointer_traitsIPKcE10pointer_toERS0_
FNDA:49776,_ZNSt14pointer_traitsIPKcE10pointer_toERS0_
FN:149,_ZNSt14pointer_traitsIPcE10pointer_toERc
FNDA:20315,_ZNSt14pointer_traitsIPcE10pointer_toERc
DA:149,49776
DA:150,49776
DA:149,20315
DA:150,20315
end_of_record
SF:/usr/include/c++/11/bits/fs_dir.h
FN:72,_ZNKSt10filesystem11file_status4typeEv
FNDA:288,_ZNKSt10filesystem11file_status4typeEv
DA:72,288
end_of_record
SF:/usr/include/c++/11/new
FN:174,_ZnwmPv
FNDA:8345,_ZnwmPv
DA:174,8345
DA:175,8345
end_of_record
SF:/usr/include/c++/11/bits/alloc_traits.h
FN:463,_ZNSt16allocator_traitsISaISt13_Rb_tree_nodeISt4pairIKPKN5boost6system14error_categoryESt10unique_ptrINS3_6detail12std_categoryESt14default_deleteISA_EEEEEE8allocateERSG_m
FNDA:0,_ZNSt16allocator_traitsISaISt13_Rb_tree_nodeISt4pairIKPKN5boost6system14error_categoryESt10unique_ptrINS3_6detail12std_categoryESt14default_deleteISA_EEEEEE8allocateERSG_m
FN:463,_ZNSt16allocator_traitsISaISt10unique_ptrI14BaseControllerSt14default_deleteIS1_EEEE8allocateERS5_m
FNDA:276,_ZNSt16allocator_traitsISaISt10unique_ptrI14BaseControllerSt14default_deleteIS1_EEEE8allocateERS5_m
FN:463,_ZNSt16allocator_traitsISaIcEE8allocateERS0_m
FNDA:14778,_ZNSt16allocator_traitsISaIcEE8allocateERS0_m
FN:495,_ZNSt16allocator_traitsISaISt13_Rb_tree_nodeISt4pairIKPKN5boost6system14error_categoryESt10unique_ptrINS3_6detail12std_categoryESt14default_deleteISA_EEEEEE10deallocateERSG_PSF_m
FNDA:0,_ZNSt16allocator_traitsISaISt13_Rb_tree_nodeISt4pairIKPKN5boost6system14error_categoryESt10unique_ptrINS3_6detail12std_categoryESt14default_deleteISA_EEEEEE10deallocateERSG_PSF_m
FN:495,_ZNSt16allocator_traitsISaISt10unique_ptrI14BaseControllerSt14default_deleteIS1_EEEE10deallocateERS5_PS4_m
FNDA:274,_ZNSt16allocator_traitsISaISt10unique_ptrI14BaseControllerSt14default_deleteIS1_EEEE10deallocateERS5_PS4_m
FN:495,_ZNSt16allocator_traitsISaIcEE10deallocateERS0_Pcm
FNDA:7455,_ZNSt16allocator_traitsISaIcEE10deallocateERS0_Pcm
FN:511,_ZNSt16allocator_traitsISaISt13_Rb_tree_nodeISt4pairIKPKN5boost6system14error_categoryESt10unique_ptrINS3_6detail12std_categoryESt14default_deleteISA_EEEEEE9constructISE_JSE_EEEvRSG_PT_DpOT0_
FNDA:0,_ZNSt16allocator_traitsISaISt13_Rb_tree_nodeISt4pairIKPKN5boost6system14error_categoryESt10unique_ptrINS3_6detail12std_categoryESt14default_deleteISA_EEEEEE9constructISE_JSE_EEEvRSG_PT_DpOT0_
FN:511,_ZNSt16allocator_traitsISaISt10unique_ptrI14BaseControllerSt14default_deleteIS1_EEEE9constructIS4_JS4_EEEvRS5_PT_DpOT0_
FNDA:1035,_ZNSt16allocator_traitsISaISt10unique_ptrI14BaseControllerSt14default_deleteIS1_EEEE9constructIS4_JS4_EEEvRS5_PT_DpOT0_
FN:531,_ZNSt16allocator_traitsISaISt13_Rb_tree_nodeISt4pairIKPKN5boost6system14error_categoryESt10unique_ptrINS3_6detail12std_categoryESt14default_deleteISA_EEEEEE7destroyISE_EEvRSG_PT_
FNDA:0,_ZNSt16allocator_traitsISaISt13_Rb_tree_nodeISt4pairIKPKN5boost6system14error_categoryESt10unique_ptrINS3_6detail12std_categoryESt14default_deleteISA_EEEEEE7destroyISE_EEvRSG_PT_
FN:531,_ZNSt16allocator_traitsISaISt10unique_ptrI14BaseControllerSt14default_deleteIS1_EEEE7destroyIS4_EEvRS5_PT_
FNDA:483,_ZNSt16allocator_traitsISaISt10unique_ptrI14BaseControllerSt14default_deleteIS1_EEEE7destroyIS4_EEvRS5_PT_
FN:547,_ZNSt16allocator_traitsISaISt10unique_ptrI14BaseControllerSt14default_deleteIS1_EEEE8max_sizeERKS5_
FNDA:552,_ZNSt16allocator_traitsISaISt10unique_ptrI14BaseControllerSt14default_deleteIS1_EEEE8max_sizeERKS5_
FN:547,_ZNSt16allocator_traitsISaIcEE8max_sizeERKS0_
FNDA:26798,_ZNSt16allocator_traitsISaIcEE8max_sizeERKS0_
FN:845,_ZSt8_DestroyIPSt10unique_ptrI14BaseControllerSt14default_deleteIS1_EES4_EvT_S6_RSaIT0_E
FNDA:67,_ZSt8_DestroyIPSt10unique_ptrI14BaseControllerSt14default_deleteIS1_EES4_EvT_S6_RSaIT0_E
DA:463,0
DA:464,0
DA:463,276
DA:464,276
DA:463,14778
DA:464,14778
DA:495,0
DA:496,0
DA:495,274
DA:496,274
DA:495,7455
DA:496,7455
DA:511,0
DA:518,0
DA:520,0
DA:511,1035
DA:518,1035
DA:520,1035
DA:531,0
DA:537,0
DA:539,0
DA:531,483
DA:537,483
DA:539,483
DA:547,552
DA:552,552
DA:547,26798
DA:552,26798
DA:845,67
DA:848,67
DA:849,67
end_of_record
SF:/usr/include/boost/system/system_error.hpp
FN:47,_ZN5boost6system12system_errorD0Ev
FNDA:0,_ZN5boost6system12system_errorD0Ev
FN:47,_ZN5boost6system12system_errorD2Ev
FNDA:0,_ZN5boost6system12system_errorD2Ev
FN:59,_ZNK5boost6system12system_error4whatEv
FNDA:0,_ZNK5boost6system12system_error4whatEv
DA:47,0
DA:47,0
DA:59,0
DA:62,0
DA:68,0
DA:69,0
DA:70,0
DA:73,0
DA:76,0
end_of_record
SF:/usr/include/c++/11/bits/std_thread.h
FN:86,_ZNSt6thread2idC2Ev
FNDA:828,_ZNSt6thread2idC2Ev
FN:121,_ZNSt6threadC2Ev
FNDA:348,_ZNSt6threadC2Ev
DA:86,828
DA:121,348
end_of_record
SF:/media/sf_Share_folder/UI/Spotify-rep-1-1/project/include/controller/MetadataController.hpp
end_of_record
SF:/media/sf_Share_folder/UI/Spotify-rep-1-1/project/include/controller/PlaylistController.hpp
end_of_record
SF:/media/sf_Share_folder/UI/Spotify-rep-1-1/project/include/controller/MainMenuController.hpp
end_of_record
SF:/usr/include/c++/11/bits/basic_string.tcc
FN:132,_ZNSt7__cxx1112basic_stringIcSt11char_traitsIcESaIcEE9_M_createERmm
FNDA:14778,_ZNSt7__cxx1112basic_stringIcSt11char_traitsIcESaIcEE9_M_createERmm
FN:206,_ZNSt7__cxx1112basic_stringIcSt11char_traitsIcESaIcEE12_M_constructIPKcEEvT_S8_St20forward_iterator_tag
FNDA:6267,_ZNSt7__cxx1112basic_stringIcSt11char_traitsIcESaIcEE12_M_constructIPKcEEvT_S8_St20forward_iterator_tag
FN:300,_ZNSt7__cxx1112basic_stringIcSt11char_traitsIcESaIcEE9_M_mutateEmmPKcm
FNDA:4571,_ZNSt7__cxx1112basic_stringIcSt11char_traitsIcESaIcEE9_M_mutateEmmPKcm
FN:384,_ZNSt7__cxx1112basic_stringIcSt11char_traitsIcESaIcEE9_M_appendEPKcm
FNDA:6090,_ZNSt7__cxx1112basic_stringIcSt11char_traitsIcESaIcEE9_M_appendEPKcm
FN:448,_ZNSt7__cxx1112basic_stringIcSt11char_traitsIcESaIcEE10_M_replaceEmmPKcm
FNDA:4374,_ZNSt7__cxx1112basic_stringIcSt11char_traitsIcESaIcEE10_M_replaceEmmPKcm
DA:132,14778
DA:137,14778
DA:138,0
DA:143,14778
DA:145,3128
DA:147,3128
DA:148,0
DA:153,14778
DA:206,6267
DA:211,6267
DA:212,0
DA:215,6267
DA:217,6267
DA:219,2734
DA:220,2734
DA:225,6267
DA:232,6267
DA:233,6267
DA:300,4571
DA:304,4571
DA:306,4571
DA:307,4571
DA:309,4571
DA:310,3019
DA:311,4571
DA:312,4571
DA:313,4571
DA:314,10
DA:315,10
DA:317,4571
DA:318,4571
DA:319,4571
DA:320,4571
DA:384,6090
DA:387,6090
DA:389,6090
DA:391,2876
DA:392,2863
DA:395,3214
DA:397,6090
DA:398,6090
DA:448,4374
DA:452,4374
DA:454,4374
DA:455,4374
DA:457,4374
DA:459,3017
DA:461,3017
DA:462,3017
DA:464,3017
DA:465,18
DA:466,3017
DA:467,2943
DA:472,0
DA:473,0
DA:474,0
DA:475,0
DA:476,0
DA:478,0
DA:479,0
DA:480,0
DA:484,0
DA:485,0
DA:489,0
DA:490,0
DA:491,0
DA:498,1357
DA:500,4374
DA:501,4374
end_of_record
SF:/usr/include/c++/11/bits/std_mutex.h
FN:98,_ZNSt5mutex4lockEv
FNDA:0,_ZNSt5mutex4lockEv
FN:115,_ZNSt5mutex6unlockEv
FNDA:0,_ZNSt5mutex6unlockEv
FN:228,_ZNSt10lock_guardISt5mutexEC2ERS0_
FNDA:0,_ZNSt10lock_guardISt5mutexEC2ERS0_
FN:234,_ZNSt10lock_guardISt5mutexED2Ev
FNDA:0,_ZNSt10lock_guardISt5mutexED2Ev
DA:98,0
DA:100,0
DA:103,0
DA:104,0
DA:105,0
DA:115,0
DA:118,0
DA:119,0
DA:228,0
DA:229,0
DA:234,0
DA:235,0
end_of_record
SF:/media/sf_Share_folder/UI/Spotify-rep-1-1/project/include/controller/ScanfOptionController.hpp
end_of_record
SF:/usr/include/c++/11/bits/stl_iterator.h
FN:1027,_ZN9__gnu_cxx17__normal_iteratorIPSt10unique_ptrI14BaseControllerSt14default_deleteIS2_EESt6vectorIS5_SaIS5_EEEC2ERKS6_
FNDA:1656,_ZN9__gnu_cxx17__normal_iteratorIPSt10unique_ptrI14BaseControllerSt14default_deleteIS2_EESt6vectorIS5_SaIS5_EEEC2ERKS6_
FN:1042,_ZNK9__gnu_cxx17__normal_iteratorIPSt10unique_ptrI14BaseControllerSt14default_deleteIS2_EESt6vectorIS5_SaIS5_EEEdeEv
FNDA:552,_ZNK9__gnu_cxx17__normal_iteratorIPSt10unique_ptrI14BaseControllerSt14default_deleteIS2_EESt6vectorIS5_SaIS5_EEEdeEv
FN:1100,_ZNK9__gnu_cxx17__normal_iteratorIPSt10unique_ptrI14BaseControllerSt14default_deleteIS2_EESt6vectorIS5_SaIS5_EEEmiEl
FNDA:552,_ZNK9__gnu_cxx17__normal_iteratorIPSt10unique_ptrI14BaseControllerSt14default_deleteIS2_EESt6vectorIS5_SaIS5_EEEmiEl
FN:1105,_ZNK9__gnu_cxx17__normal_iteratorIPSt10unique_ptrI14BaseControllerSt14default_deleteIS2_EESt6vectorIS5_SaIS5_EEE4baseEv
FNDA:1104,_ZNK9__gnu_cxx17__normal_iteratorIPSt10unique_ptrI14BaseControllerSt14default_deleteIS2_EESt6vectorIS5_SaIS5_EEE4baseEv
FN:1268,_ZN9__gnu_cxxmiIPSt10unique_ptrI14BaseControllerSt14default_deleteIS2_EESt6vectorIS5_SaIS5_EEEENS_17__normal_iteratorIT_T0_E15difference_typeERKSD_SG_
FNDA:276,_ZN9__gnu_cxxmiIPSt10unique_ptrI14BaseControllerSt14default_deleteIS2_EESt6vectorIS5_SaIS5_EEEENS_17__normal_iteratorIT_T0_E15difference_typeERKSD_SG_
DA:1027,1656
DA:1028,1656
DA:1042,552
DA:1043,552
DA:1100,552
DA:1101,552
DA:1105,1104
DA:1106,1104
DA:1268,276
DA:1271,276
end_of_record
SF:/usr/include/c++/11/ext/new_allocator.h
FN:79,_ZN9__gnu_cxx13new_allocatorISt10unique_ptrI14BaseControllerSt14default_deleteIS2_EEEC2Ev
FNDA:69,_ZN9__gnu_cxx13new_allocatorISt10unique_ptrI14BaseControllerSt14default_deleteIS2_EEEC2Ev
FN:79,_ZN9__gnu_cxx13new_allocatorISt13_Rb_tree_nodeISt4pairIKPKN5boost6system14error_categoryESt10unique_ptrINS4_6detail12std_categoryESt14default_deleteISB_EEEEEC2Ev
FNDA:0,_ZN9__gnu_cxx13new_allocatorISt13_Rb_tree_nodeISt4pairIKPKN5boost6system14error_categoryESt10unique_ptrINS4_6detail12std_categoryESt14default_deleteISB_EEEEEC2Ev
FN:79,_ZN9__gnu_cxx13new_allocatorIcEC2Ev
FNDA:0,_ZN9__gnu_cxx13new_allocatorIcEC2Ev
FN:103,_ZN9__gnu_cxx13new_allocatorISt13_Rb_tree_nodeISt4pairIKPKN5boost6system14error_categoryESt10unique_ptrINS4_6detail12std_categoryESt14default_deleteISB_EEEEE8allocateEmPKv
FNDA:0,_ZN9__gnu_cxx13new_allocatorISt13_Rb_tree_nodeISt4pairIKPKN5boost6system14error_categoryESt10unique_ptrINS4_6detail12std_categoryESt14default_deleteISB_EEEEE8allocateEmPKv
FN:103,_ZN9__gnu_cxx13new_allocatorISt10unique_ptrI14BaseControllerSt14default_deleteIS2_EEE8allocateEmPKv
FNDA:276,_ZN9__gnu_cxx13new_allocatorISt10unique_ptrI14BaseControllerSt14default_deleteIS2_EEE8allocateEmPKv
FN:103,_ZN9__gnu_cxx13new_allocatorIcE8allocateEmPKv
FNDA:14778,_ZN9__gnu_cxx13new_allocatorIcE8allocateEmPKv
FN:132,_ZN9__gnu_cxx13new_allocatorISt13_Rb_tree_nodeISt4pairIKPKN5boost6system14error_categoryESt10unique_ptrINS4_6detail12std_categoryESt14default_deleteISB_EEEEE10deallocateEPSG_m
FNDA:0,_ZN9__gnu_cxx13new_allocatorISt13_Rb_tree_nodeISt4pairIKPKN5boost6system14error_categoryESt10unique_ptrINS4_6detail12std_categoryESt14default_deleteISB_EEEEE10deallocateEPSG_m
FN:132,_ZN9__gnu_cxx13new_allocatorISt10unique_ptrI14BaseControllerSt14default_deleteIS2_EEE10deallocateEPS5_m
FNDA:274,_ZN9__gnu_cxx13new_allocatorISt10unique_ptrI14BaseControllerSt14default_deleteIS2_EEE10deallocateEPS5_m
FN:132,_ZN9__gnu_cxx13new_allocatorIcE10deallocateEPcm
FNDA:7455,_ZN9__gnu_cxx13new_allocatorIcE10deallocateEPcm
FN:197,_ZNK9__gnu_cxx13new_allocatorISt13_Rb_tree_nodeISt4pairIKPKN5boost6system14error_categoryESt10unique_ptrINS4_6detail12std_categoryESt14default_deleteISB_EEEEE11_M_max_sizeEv
FNDA:0,_ZNK9__gnu_cxx13new_allocatorISt13_Rb_tree_nodeISt4pairIKPKN5boost6system14error_categoryESt10unique_ptrINS4_6detail12std_categoryESt14default_deleteISB_EEEEE11_M_max_sizeEv
FN:197,_ZNK9__gnu_cxx13new_allocatorISt10unique_ptrI14BaseControllerSt14default_deleteIS2_EEE11_M_max_sizeEv
FNDA:276,_ZNK9__gnu_cxx13new_allocatorISt10unique_ptrI14BaseControllerSt14default_deleteIS2_EEE11_M_max_sizeEv
FN:197,_ZNK9__gnu_cxx13new_allocatorIcE11_M_max_sizeEv
FNDA:14778,_ZNK9__gnu_cxx13new_allocatorIcE11_M_max_sizeEv
DA:79,69
DA:79,0
DA:79,0
DA:103,0
DA:111,0
DA:115,0
DA:116,0
DA:117,0
DA:127,0
DA:103,276
DA:111,276
DA:115,0
DA:116,0
DA:117,0
DA:127,276
DA:103,14778
DA:111,14778
DA:117,0
DA:127,14778
DA:132,0
DA:145,0
DA:132,274
DA:145,274
DA:132,7455
DA:145,7455
DA:197,0
DA:200,0
DA:197,276
DA:200,276
DA:197,14778
DA:200,14778
end_of_record
SF:/usr/include/c++/11/bits/stl_map.h
FN:185,_ZNSt3mapIPKN5boost6system14error_categoryESt10unique_ptrINS1_6detail12std_categoryESt14default_deleteIS7_EENS6_12cat_ptr_lessESaISt4pairIKS4_SA_EEEC2Ev
FNDA:0,_ZNSt3mapIPKN5boost6system14error_categoryESt10unique_ptrINS1_6detail12std_categoryESt14default_deleteIS7_EENS6_12cat_ptr_lessESaISt4pairIKS4_SA_EEEC2Ev
FN:302,_ZNSt3mapIPKN5boost6system14error_categoryESt10unique_ptrINS1_6detail12std_categoryESt14default_deleteIS7_EENS6_12cat_ptr_lessESaISt4pairIKS4_SA_EEED2Ev
FNDA:0,_ZNSt3mapIPKN5boost6system14error_categoryESt10unique_ptrINS1_6detail12std_categoryESt14default_deleteIS7_EENS6_12cat_ptr_lessESaISt4pairIKS4_SA_EEED2Ev
FN:374,_ZNSt3mapIPKN5boost6system14error_categoryESt10unique_ptrINS1_6detail12std_categoryESt14default_deleteIS7_EENS6_12cat_ptr_lessESaISt4pairIKS4_SA_EEE3endEv
FNDA:0,_ZNSt3mapIPKN5boost6system14error_categoryESt10unique_ptrINS1_6detail12std_categoryESt14default_deleteIS7_EENS6_12cat_ptr_lessESaISt4pairIKS4_SA_EEE3endEv
FN:810,_ZNSt3mapIPKN5boost6system14error_categoryESt10unique_ptrINS1_6detail12std_categoryESt14default_deleteIS7_EENS6_12cat_ptr_lessESaISt4pairIKS4_SA_EEE6insertEOSE_
FNDA:0,_ZNSt3mapIPKN5boost6system14error_categoryESt10unique_ptrINS1_6detail12std_categoryESt14default_deleteIS7_EENS6_12cat_ptr_lessESaISt4pairIKS4_SA_EEE6insertEOSE_
FN:1169,_ZNSt3mapIPKN5boost6system14error_categoryESt10unique_ptrINS1_6detail12std_categoryESt14default_deleteIS7_EENS6_12cat_ptr_lessESaISt4pairIKS4_SA_EEE4findERSD_
FNDA:0,_ZNSt3mapIPKN5boost6system14error_categoryESt10unique_ptrINS1_6detail12std_categoryESt14default_deleteIS7_EENS6_12cat_ptr_lessESaISt4pairIKS4_SA_EEE4findERSD_
DA:185,0
DA:302,0
DA:374,0
DA:375,0
DA:810,0
DA:811,0
DA:1169,0
DA:1170,0
end_of_record
SF:/usr/include/boost/asio/io_context.hpp
end_of_record
SF:/usr/include/boost/asio/detail/noncopyable.hpp
FN:29,_ZN5boost4asio6detail11noncopyableC2Ev
FNDA:4591,_ZN5boost4asio6detail11noncopyableC2Ev
FN:30,_ZN5boost4asio6detail11noncopyableD2Ev
FNDA:4545,_ZN5boost4asio6detail11noncopyableD2Ev
DA:29,4591
DA:30,4545
end_of_record
SF:/usr/include/c++/11/bits/stl_pair.h
FN:315,_ZNSt4pairIKPKN5boost6system14error_categoryESt10unique_ptrINS1_6detail12std_categoryESt14default_deleteIS8_EEEC2EOSC_
FNDA:0,_ZNSt4pairIKPKN5boost6system14error_categoryESt10unique_ptrINS1_6detail12std_categoryESt14default_deleteIS8_EEEC2EOSC_
FN:322,_ZNSt4pairIPSt18_Rb_tree_node_baseS1_EC2IRS1_Lb1EEEOT_RKS1_
FNDA:0,_ZNSt4pairIPSt18_Rb_tree_node_baseS1_EC2IRS1_Lb1EEEOT_RKS1_
FN:352,_ZNSt4pairIPSt18_Rb_tree_node_baseS1_EC2IRPSt13_Rb_tree_nodeIS_IKPKN5boost6system14error_categoryESt10unique_ptrINS6_6detail12std_categoryESt14default_deleteISD_EEEERS1_Lb1EEEOT_OT0_
FNDA:0,_ZNSt4pairIPSt18_Rb_tree_node_baseS1_EC2IRPSt13_Rb_tree_nodeIS_IKPKN5boost6system14error_categoryESt10unique_ptrINS6_6detail12std_categoryESt14default_deleteISD_EEEERS1_Lb1EEEOT_OT0_
FN:352,_ZNSt4pairISt17_Rb_tree_iteratorIS_IKPKN5boost6system14error_categoryESt10unique_ptrINS2_6detail12std_categoryESt14default_deleteIS9_EEEEbEC2ISE_bLb1EEEOT_OT0_
FNDA:0,_ZNSt4pairISt17_Rb_tree_iteratorIS_IKPKN5boost6system14error_categoryESt10unique_ptrINS2_6detail12std_categoryESt14default_deleteIS9_EEEEbEC2ISE_bLb1EEEOT_OT0_
FN:352,_ZNSt4pairIKPKN5boost6system14error_categoryESt10unique_ptrINS1_6detail12std_categoryESt14default_deleteIS8_EEEC2IS4_SB_Lb1EEEOT_OT0_
FNDA:0,_ZNSt4pairIKPKN5boost6system14error_categoryESt10unique_ptrINS1_6detail12std_categoryESt14default_deleteIS8_EEEC2IS4_SB_Lb1EEEOT_OT0_
DA:315,0
DA:322,0
DA:323,0
DA:352,0
DA:353,0
DA:352,0
DA:353,0
DA:352,0
DA:353,0
end_of_record
SF:/usr/include/boost/system/error_code.hpp
FN:233,_ZNK5boost6system14error_categoryeqERKS1_
FNDA:2664,_ZNK5boost6system14error_categoryeqERKS1_
FN:243,_ZNK5boost6system14error_categoryltERKS1_
FNDA:0,_ZNK5boost6system14error_categoryltERKS1_
FN:290,_ZNK5boost6system6detail22generic_error_category4nameEv
FNDA:0,_ZNK5boost6system6detail22generic_error_category4nameEv
FN:308,_ZNK5boost6system6detail21system_error_category4nameEv
FNDA:0,_ZNK5boost6system6detail21system_error_category4nameEv
FN:346,_ZN5boost6system15system_categoryEv
FNDA:4260,_ZN5boost6system15system_categoryEv
FN:351,_ZN5boost6system16generic_categoryEv
FNDA:0,_ZN5boost6system16generic_categoryEv
FN:415,_ZN5boost6system6detail11failed_implEiRKNS0_14error_categoryE
FNDA:2664,_ZN5boost6system6detail11failed_implEiRKNS0_14error_categoryE
FN:452,_ZN5boost6system15error_conditionC2EiRKNS0_14error_categoryE
FNDA:0,_ZN5boost6system15error_conditionC2EiRKNS0_14error_categoryE
FN:489,_ZNK5boost6system15error_condition5valueEv
FNDA:0,_ZNK5boost6system15error_condition5valueEv
FN:494,_ZNK5boost6system15error_condition8categoryEv
FNDA:0,_ZNK5boost6system15error_condition8categoryEv
FN:542,_ZN5boost6systemeqERKNS0_15error_conditionES3_
FNDA:0,_ZN5boost6systemeqERKNS0_15error_conditionES3_
FN:554,_ZNK5boost6system15error_conditioncvSt15error_conditionEv
FNDA:0,_ZNK5boost6system15error_conditioncvSt15error_conditionEv
FN:588,_ZN5boost6system10error_codeC2EiRKNS0_14error_categoryE
FNDA:726,_ZN5boost6system10error_codeC2EiRKNS0_14error_categoryE
FN:625,_ZNK5boost6system10error_code5valueEv
FNDA:0,_ZNK5boost6system10error_code5valueEv
FN:630,_ZNK5boost6system10error_code8categoryEv
FNDA:1938,_ZNK5boost6system10error_code8categoryEv
FN:640,_ZNK5boost6system10error_code7messageB5cxx11Ev
FNDA:0,_ZNK5boost6system10error_code7messageB5cxx11Ev
FN:831,_ZNK5boost6system14error_category23default_error_conditionEi
FNDA:0,_ZNK5boost6system14error_category23default_error_conditionEi
FN:836,_ZNK5boost6system14error_category10equivalentEiRKNS0_15error_conditionE
FNDA:0,_ZNK5boost6system14error_category10equivalentEiRKNS0_15error_conditionE
FN:841,_ZNK5boost6system14error_category10equivalentERKNS0_10error_codeEi
FNDA:0,_ZNK5boost6system14error_category10equivalentERKNS0_10error_codeEi
FN:846,_ZNK5boost6system14error_category7messageEiPcm
FNDA:0,_ZNK5boost6system14error_category7messageEiPcm
FN:894,_ZNK5boost6system14error_category6failedEi
FNDA:0,_ZNK5boost6system14error_category6failedEi
FN:907,_ZNK5boost6system6detail22generic_error_category7messageB5cxx11Ei
FNDA:0,_ZNK5boost6system6detail22generic_error_category7messageB5cxx11Ei
FN:912,_ZNK5boost6system6detail22generic_error_category7messageEiPcm
FNDA:0,_ZNK5boost6system6detail22generic_error_category7messageEiPcm
FN:942,_ZNK5boost6system6detail21system_error_category23default_error_conditionEi
FNDA:0,_ZNK5boost6system6detail21system_error_category23default_error_conditionEi
FN:947,_ZNK5boost6system6detail21system_error_category7messageB5cxx11Ei
FNDA:0,_ZNK5boost6system6detail21system_error_category7messageB5cxx11Ei
FN:952,_ZNK5boost6system6detail21system_error_category7messageEiPcm
FNDA:0,_ZNK5boost6system6detail21system_error_category7messageEiPcm
FN:965,_ZNK5boost6system14error_categorycvRKNSt3_V214error_categoryEEv
FNDA:0,_ZNK5boost6system14error_categorycvRKNSt3_V214error_categoryEEv
DA:233,2664
DA:235,2664
DA:243,0
DA:245,0
DA:247,0
DA:250,0
DA:252,0
DA:255,0
DA:257,0
DA:260,0
DA:290,0
DA:292,0
DA:308,0
DA:310,0
DA:346,4260
DA:348,4260
DA:351,0
DA:353,0
DA:415,2664
DA:417,2664
DA:419,2664
DA:423,0
DA:452,0
DA:453,0
DA:455,0
DA:489,0
DA:491,0
DA:494,0
DA:496,0
DA:542,0
DA:544,0
DA:554,0
DA:556,0
DA:588,726
DA:589,726
DA:591,726
DA:625,0
DA:627,0
DA:630,1938
DA:632,1938
DA:640,0
DA:642,0
DA:831,0
DA:833,0
DA:836,0
DA:838,0
DA:841,0
DA:843,0
DA:846,0
DA:848,0
DA:850,0
DA:853,0
DA:855,0
DA:856,0
DA:863,0
DA:875,0
DA:876,0
DA:884,0
DA:885,0
DA:887,0
DA:889,0
DA:890,0
DA:894,0
DA:896,0
DA:907,0
DA:909,0
DA:912,0
DA:914,0
DA:942,0
DA:944,0
DA:947,0
DA:949,0
DA:952,0
DA:954,0
DA:965,0
DA:967,0
end_of_record
SF:/usr/include/c++/11/bits/stl_uninitialized.h
FN:986,_ZSt19__relocate_object_aISt10unique_ptrI14BaseControllerSt14default_deleteIS1_EES4_SaIS4_EEvPT_PT0_RT1_
FNDA:483,_ZSt19__relocate_object_aISt10unique_ptrI14BaseControllerSt14default_deleteIS1_EES4_SaIS4_EEvPT_PT0_RT1_
FN:1018,_ZSt14__relocate_a_1IPSt10unique_ptrI14BaseControllerSt14default_deleteIS1_EES5_SaIS4_EET0_T_S8_S7_RT1_
FNDA:552,_ZSt14__relocate_a_1IPSt10unique_ptrI14BaseControllerSt14default_deleteIS1_EES5_SaIS4_EET0_T_S8_S7_RT1_
FN:1040,_ZSt12__relocate_aIPSt10unique_ptrI14BaseControllerSt14default_deleteIS1_EES5_SaIS4_EET0_T_S8_S7_RT1_
FNDA:552,_ZSt12__relocate_aIPSt10unique_ptrI14BaseControllerSt14default_deleteIS1_EES5_SaIS4_EET0_T_S8_S7_RT1_
DA:986,483
DA:994,483
DA:995,483
DA:996,483
DA:1018,552
DA:1030,552
DA:1031,1035
DA:1032,483
DA:1034,552
DA:1040,552
DA:1046,552
DA:1048,552
end_of_record
SF:/media/sf_Share_folder/UI/Spotify-rep-1-1/project/include/controller/PlayingMediaController.hpp
end_of_record
SF:/media/sf_Share_folder/UI/Spotify-rep-1-1/project/include/controller/MediaFileController.hpp
end_of_record
SF:/usr/include/c++/11/bits/basic_string.h
FN:133,_ZNSt7__cxx1112basic_stringIcSt11char_traitsIcESaIcEE17_S_to_string_viewESt17basic_string_viewIcS2_E
FNDA:243,_ZNSt7__cxx1112basic_stringIcSt11char_traitsIcESaIcEE17_S_to_string_viewESt17basic_string_viewIcS2_E
FN:142,_ZNSt7__cxx1112basic_stringIcSt11char_traitsIcESaIcEE12__sv_wrapperC2ESt17basic_string_viewIcS2_E
FNDA:243,_ZNSt7__cxx1112basic_stringIcSt11char_traitsIcESaIcEE12__sv_wrapperC2ESt17basic_string_viewIcS2_E
FN:153,_ZNSt7__cxx1112basic_stringIcSt11char_traitsIcESaIcEEC2ENS4_12__sv_wrapperERKS3_
FNDA:243,_ZNSt7__cxx1112basic_stringIcSt11char_traitsIcESaIcEEC2ENS4_12__sv_wrapperERKS3_
FN:164,_ZNSt7__cxx1112basic_stringIcSt11char_traitsIcESaIcEE12_Alloc_hiderC2EPcRKS3_
FNDA:6403,_ZNSt7__cxx1112basic_stringIcSt11char_traitsIcESaIcEE12_Alloc_hiderC2EPcRKS3_
FN:186,_ZNSt7__cxx1112basic_stringIcSt11char_traitsIcESaIcEE7_M_dataEPc
FNDA:23362,_ZNSt7__cxx1112basic_stringIcSt11char_traitsIcESaIcEE7_M_dataEPc
FN:190,_ZNSt7__cxx1112basic_stringIcSt11char_traitsIcESaIcEE9_M_lengthEm
FNDA:36473,_ZNSt7__cxx1112basic_stringIcSt11char_traitsIcESaIcEE9_M_lengthEm
FN:194,_ZNKSt7__cxx1112basic_stringIcSt11char_traitsIcESaIcEE7_M_dataEv
FNDA:139657,_ZNKSt7__cxx1112basic_stringIcSt11char_traitsIcESaIcEE7_M_dataEv
FN:198,_ZNSt7__cxx1112basic_stringIcSt11char_traitsIcESaIcEE13_M_local_dataEv
FNDA:20315,_ZNSt7__cxx1112basic_stringIcSt11char_traitsIcESaIcEE13_M_local_dataEv
FN:208,_ZNKSt7__cxx1112basic_stringIcSt11char_traitsIcESaIcEE13_M_local_dataEv
FNDA:49776,_ZNKSt7__cxx1112basic_stringIcSt11char_traitsIcESaIcEE13_M_local_dataEv
FN:218,_ZNSt7__cxx1112basic_stringIcSt11char_traitsIcESaIcEE11_M_capacityEm
FNDA:17023,_ZNSt7__cxx1112basic_stringIcSt11char_traitsIcESaIcEE11_M_capacityEm
FN:222,_ZNSt7__cxx1112basic_stringIcSt11char_traitsIcESaIcEE13_M_set_lengthEm
FNDA:28153,_ZNSt7__cxx1112basic_stringIcSt11char_traitsIcESaIcEE13_M_set_lengthEm
FN:229,_ZNKSt7__cxx1112basic_stringIcSt11char_traitsIcESaIcEE11_M_is_localEv
FNDA:49776,_ZNKSt7__cxx1112basic_stringIcSt11char_traitsIcESaIcEE11_M_is_localEv
FN:237,_ZNSt7__cxx1112basic_stringIcSt11char_traitsIcESaIcEE10_M_disposeEv
FNDA:21180,_ZNSt7__cxx1112basic_stringIcSt11char_traitsIcESaIcEE10_M_disposeEv
FN:244,_ZNSt7__cxx1112basic_stringIcSt11char_traitsIcESaIcEE10_M_destroyEm
FNDA:7455,_ZNSt7__cxx1112basic_stringIcSt11char_traitsIcESaIcEE10_M_destroyEm
FN:251,_ZNSt7__cxx1112basic_stringIcSt11char_traitsIcESaIcEE16_M_construct_auxIPKcEEvT_S8_St12__false_type
FNDA:315,_ZNSt7__cxx1112basic_stringIcSt11char_traitsIcESaIcEE16_M_construct_auxIPKcEEvT_S8_St12__false_type
FN:271,_ZNSt7__cxx1112basic_stringIcSt11char_traitsIcESaIcEE12_M_constructIPKcEEvT_S8_
FNDA:315,_ZNSt7__cxx1112basic_stringIcSt11char_traitsIcESaIcEE12_M_constructIPKcEEvT_S8_
FN:294,_ZNSt7__cxx1112basic_stringIcSt11char_traitsIcESaIcEE16_M_get_allocatorEv
FNDA:31048,_ZNSt7__cxx1112basic_stringIcSt11char_traitsIcESaIcEE16_M_get_allocatorEv
FN:298,_ZNKSt7__cxx1112basic_stringIcSt11char_traitsIcESaIcEE16_M_get_allocatorEv
FNDA:31327,_ZNKSt7__cxx1112basic_stringIcSt11char_traitsIcESaIcEE16_M_get_allocatorEv
FN:328,_ZNKSt7__cxx1112basic_stringIcSt11char_traitsIcESaIcEE15_M_check_lengthEmmPKc
FNDA:8892,_ZNKSt7__cxx1112basic_stringIcSt11char_traitsIcESaIcEE15_M_check_lengthEmmPKc
FN:345,_ZNKSt7__cxx1112basic_stringIcSt11char_traitsIcESaIcEE11_M_disjunctEPKc
FNDA:3017,_ZNKSt7__cxx1112basic_stringIcSt11char_traitsIcESaIcEE11_M_disjunctEPKc
FN:354,_ZNSt7__cxx1112basic_stringIcSt11char_traitsIcESaIcEE7_S_copyEPcPKcm
FNDA:27224,_ZNSt7__cxx1112basic_stringIcSt11char_traitsIcESaIcEE7_S_copyEPcPKcm
FN:363,_ZNSt7__cxx1112basic_stringIcSt11char_traitsIcESaIcEE7_S_moveEPcPKcm
FNDA:18,_ZNSt7__cxx1112basic_stringIcSt11char_traitsIcESaIcEE7_S_moveEPcPKcm
FN:404,_ZNSt7__cxx1112basic_stringIcSt11char_traitsIcESaIcEE13_S_copy_charsEPcPKcS7_
FNDA:6267,_ZNSt7__cxx1112basic_stringIcSt11char_traitsIcESaIcEE13_S_copy_charsEPcPKcS7_
FN:518,_ZNSt7__cxx1112basic_stringIcSt11char_traitsIcESaIcEEC2EPKcmRKS3_
FNDA:280,_ZNSt7__cxx1112basic_stringIcSt11char_traitsIcESaIcEEC2EPKcmRKS3_
FN:533,_ZNSt7__cxx1112basic_stringIcSt11char_traitsIcESaIcEEC2IS3_EEPKcRKS3_
FNDA:5941,_ZNSt7__cxx1112basic_stringIcSt11char_traitsIcESaIcEEC2IS3_EEPKcRKS3_
FN:664,_ZNSt7__cxx1112basic_stringIcSt11char_traitsIcESaIcEEC2ISt17basic_string_viewIcS2_EvEERKT_RKS3_
FNDA:243,_ZNSt7__cxx1112basic_stringIcSt11char_traitsIcESaIcEEC2ISt17basic_string_viewIcS2_EvEERKT_RKS3_
FN:671,_ZNSt7__cxx1112basic_stringIcSt11char_traitsIcESaIcEED2Ev
FNDA:14537,_ZNSt7__cxx1112basic_stringIcSt11char_traitsIcESaIcEED2Ev
FN:689,_ZNSt7__cxx1112basic_stringIcSt11char_traitsIcESaIcEEaSEPKc
FNDA:21,_ZNSt7__cxx1112basic_stringIcSt11char_traitsIcESaIcEEaSEPKc
FN:920,_ZNKSt7__cxx1112basic_stringIcSt11char_traitsIcESaIcEE4sizeEv
FNDA:38096,_ZNKSt7__cxx1112basic_stringIcSt11char_traitsIcESaIcEE4sizeEv
FN:926,_ZNKSt7__cxx1112basic_stringIcSt11char_traitsIcESaIcEE6lengthEv
FNDA:25248,_ZNKSt7__cxx1112basic_stringIcSt11char_traitsIcESaIcEE6lengthEv
FN:931,_ZNKSt7__cxx1112basic_stringIcSt11char_traitsIcESaIcEE8max_sizeEv
FNDA:26798,_ZNKSt7__cxx1112basic_stringIcSt11char_traitsIcESaIcEE8max_sizeEv
FN:976,_ZNKSt7__cxx1112basic_stringIcSt11char_traitsIcESaIcEE8capacityEv
FNDA:19778,_ZNKSt7__cxx1112basic_stringIcSt11char_traitsIcESaIcEE8capacityEv
FN:1023,_ZNKSt7__cxx1112basic_stringIcSt11char_traitsIcESaIcEE5emptyEv
FNDA:37,_ZNKSt7__cxx1112basic_stringIcSt11char_traitsIcESaIcEE5emptyEv
FN:1160,_ZNSt7__cxx1112basic_stringIcSt11char_traitsIcESaIcEEpLERKS4_
FNDA:0,_ZNSt7__cxx1112basic_stringIcSt11char_traitsIcESaIcEEpLERKS4_
FN:1169,_ZNSt7__cxx1112basic_stringIcSt11char_traitsIcESaIcEEpLEPKc
FNDA:4,_ZNSt7__cxx1112basic_stringIcSt11char_traitsIcESaIcEEpLEPKc
FN:1213,_ZNSt7__cxx1112basic_stringIcSt11char_traitsIcESaIcEE6appendERKS4_
FNDA:715,_ZNSt7__cxx1112basic_stringIcSt11char_traitsIcESaIcEE6appendERKS4_
FN:1255,_ZNSt7__cxx1112basic_stringIcSt11char_traitsIcESaIcEE6appendEPKc
FNDA:4503,_ZNSt7__cxx1112basic_stringIcSt11char_traitsIcESaIcEE6appendEPKc
FN:1456,_ZNSt7__cxx1112basic_stringIcSt11char_traitsIcESaIcEE6assignEPKc
FNDA:21,_ZNSt7__cxx1112basic_stringIcSt11char_traitsIcESaIcEE6assignEPKc
FN:2320,_ZNKSt7__cxx1112basic_stringIcSt11char_traitsIcESaIcEE5c_strEv
FNDA:1493,_ZNKSt7__cxx1112basic_stringIcSt11char_traitsIcESaIcEE5c_strEv
DA:133,243
DA:134,243
DA:142,243
DA:153,243
DA:154,243
DA:164,6403
DA:165,6403
DA:186,23362
DA:187,23362
DA:190,36473
DA:191,36473
DA:194,139657
DA:195,139657
DA:198,20315
DA:201,20315
DA:208,49776
DA:211,49776
DA:218,17023
DA:219,17023
DA:222,28153
DA:224,28153
DA:225,28153
DA:226,28153
DA:229,49776
DA:230,49776
DA:237,21180
DA:239,21180
DA:240,7455
DA:241,21180
DA:244,7455
DA:245,7455
DA:251,315
DA:255,315
DA:256,315
DA:271,315
DA:274,315
DA:275,315
DA:294,31048
DA:295,31048
DA:298,31327
DA:299,31327
DA:328,8892
DA:330,8892
DA:331,0
DA:332,8892
DA:345,3017
DA:347,3017
DA:348,3017
DA:354,27224
DA:356,27224
DA:357,4835
DA:359,22389
DA:360,27224
DA:363,18
DA:365,18
DA:366,15
DA:368,3
DA:369,18
DA:404,6267
DA:406,6267
DA:518,280
DA:520,280
DA:521,280
DA:533,5941
DA:534,5941
DA:536,5941
DA:539,5941
DA:540,5941
DA:664,243
DA:665,243
DA:671,14537
DA:672,14537
DA:689,21
DA:690,21
DA:920,38096
DA:921,38096
DA:926,25248
DA:927,25248
DA:931,26798
DA:932,26798
DA:976,19778
DA:978,19778
DA:979,19778
DA:1023,37
DA:1024,37
DA:1160,0
DA:1161,0
DA:1169,4
DA:1170,4
DA:1213,715
DA:1214,715
DA:1255,4503
DA:1258,4503
DA:1259,4503
DA:1260,4503
DA:1456,21
DA:1459,21
DA:1460,21
DA:2320,1493
DA:2321,1493
end_of_record
SF:/usr/include/c++/11/bits/stl_tree.h
FN:146,_ZNSt20_Rb_tree_key_compareIN5boost6system6detail12cat_ptr_lessEEC2Ev
FNDA:0,_ZNSt20_Rb_tree_key_compareIN5boost6system6detail12cat_ptr_lessEEC2Ev
FN:173,_ZNSt15_Rb_tree_headerC2Ev
FNDA:176,_ZNSt15_Rb_tree_headerC2Ev
FN:206,_ZNSt15_Rb_tree_header8_M_resetEv
FNDA:191,_ZNSt15_Rb_tree_header8_M_resetEv
FN:234,_ZNSt13_Rb_tree_nodeISt4pairIKPKN5boost6system14error_categoryESt10unique_ptrINS2_6detail12std_categoryESt14default_deleteIS9_EEEE9_M_valptrEv
FNDA:0,_ZNSt13_Rb_tree_nodeISt4pairIKPKN5boost6system14error_categoryESt10unique_ptrINS2_6detail12std_categoryESt14default_deleteIS9_EEEE9_M_valptrEv
FN:238,_ZNKSt13_Rb_tree_nodeISt4pairIKPKN5boost6system14error_categoryESt10unique_ptrINS2_6detail12std_categoryESt14default_deleteIS9_EEEE9_M_valptrEv
FNDA:0,_ZNKSt13_Rb_tree_nodeISt4pairIKPKN5boost6system14error_categoryESt10unique_ptrINS2_6detail12std_categoryESt14default_deleteIS9_EEEE9_M_valptrEv
FN:273,_ZNSt17_Rb_tree_iteratorISt4pairIKPKN5boost6system14error_categoryESt10unique_ptrINS2_6detail12std_categoryESt14default_deleteIS9_EEEEC2EPSt18_Rb_tree_node_base
FNDA:0,_ZNSt17_Rb_tree_iteratorISt4pairIKPKN5boost6system14error_categoryESt10unique_ptrINS2_6detail12std_categoryESt14default_deleteIS9_EEEEC2EPSt18_Rb_tree_node_base
FN:281,_ZNKSt17_Rb_tree_iteratorISt4pairIKPKN5boost6system14error_categoryESt10unique_ptrINS2_6detail12std_categoryESt14default_deleteIS9_EEEEptEv
FNDA:0,_ZNKSt17_Rb_tree_iteratorISt4pairIKPKN5boost6system14error_categoryESt10unique_ptrINS2_6detail12std_categoryESt14default_deleteIS9_EEEEptEv
FN:300,_ZNSt17_Rb_tree_iteratorISt4pairIKPKN5boost6system14error_categoryESt10unique_ptrINS2_6detail12std_categoryESt14default_deleteIS9_EEEEmmEv
FNDA:0,_ZNSt17_Rb_tree_iteratorISt4pairIKPKN5boost6system14error_categoryESt10unique_ptrINS2_6detail12std_categoryESt14default_deleteIS9_EEEEmmEv
FN:315,_ZSteqRKSt17_Rb_tree_iteratorISt4pairIKPKN5boost6system14error_categoryESt10unique_ptrINS2_6detail12std_categoryESt14default_deleteIS9_EEEESG_
FNDA:0,_ZSteqRKSt17_Rb_tree_iteratorISt4pairIKPKN5boost6system14error_categoryESt10unique_ptrINS2_6detail12std_categoryESt14default_deleteIS9_EEEESG_
FN:523,_ZNSt8_Rb_treeIPKN5boost6system14error_categoryESt4pairIKS4_St10unique_ptrINS1_6detail12std_categoryESt14default_deleteIS9_EEESt10_Select1stISD_ENS8_12cat_ptr_lessESaISD_EE11_Alloc_nodeC2ERSI_
FNDA:0,_ZNSt8_Rb_treeIPKN5boost6system14error_categoryESt4pairIKS4_St10unique_ptrINS1_6detail12std_categoryESt14default_deleteIS9_EEESt10_Select1stISD_ENS8_12cat_ptr_lessESaISD_EE11_Alloc_nodeC2ERSI_
FN:528,_ZNKSt8_Rb_treeIPKN5boost6system14error_categoryESt4pairIKS4_St10unique_ptrINS1_6detail12std_categoryESt14default_deleteIS9_EEESt10_Select1stISD_ENS8_12cat_ptr_lessESaISD_EE11_Alloc_nodeclISD_EEPSt13_Rb_tree_nodeISD_EOT_
FNDA:0,_ZNKSt8_Rb_treeIPKN5boost6system14error_categoryESt4pairIKS4_St10unique_ptrINS1_6detail12std_categoryESt14default_deleteIS9_EEESt10_Select1stISD_ENS8_12cat_ptr_lessESaISD_EE11_Alloc_nodeclISD_EEPSt13_Rb_tree_nodeISD_EOT_
FN:547,_ZNSt8_Rb_treeIPKN5boost6system14error_categoryESt4pairIKS4_St10unique_ptrINS1_6detail12std_categoryESt14default_deleteIS9_EEESt10_Select1stISD_ENS8_12cat_ptr_lessESaISD_EE21_M_get_Node_allocatorEv
FNDA:0,_ZNSt8_Rb_treeIPKN5boost6system14error_categoryESt4pairIKS4_St10unique_ptrINS1_6detail12std_categoryESt14default_deleteIS9_EEESt10_Select1stISD_ENS8_12cat_ptr_lessESaISD_EE21_M_get_Node_allocatorEv
FN:560,_ZNSt8_Rb_treeIPKN5boost6system14error_categoryESt4pairIKS4_St10unique_ptrINS1_6detail12std_categoryESt14default_deleteIS9_EEESt10_Select1stISD_ENS8_12cat_ptr_lessESaISD_EE11_M_get_nodeEv
FNDA:0,_ZNSt8_Rb_treeIPKN5boost6system14error_categoryESt4pairIKS4_St10unique_ptrINS1_6detail12std_categoryESt14default_deleteIS9_EEESt10_Select1stISD_ENS8_12cat_ptr_lessESaISD_EE11_M_get_nodeEv
FN:564,_ZNSt8_Rb_treeIPKN5boost6system14error_categoryESt4pairIKS4_St10unique_ptrINS1_6detail12std_categoryESt14default_deleteIS9_EEESt10_Select1stISD_ENS8_12cat_ptr_lessESaISD_EE11_M_put_nodeEPSt13_Rb_tree_nodeISD_E
FNDA:0,_ZNSt8_Rb_treeIPKN5boost6system14error_categoryESt4pairIKS4_St10unique_ptrINS1_6detail12std_categoryESt14default_deleteIS9_EEESt10_Select1stISD_ENS8_12cat_ptr_lessESaISD_EE11_M_put_nodeEPSt13_Rb_tree_nodeISD_E
FN:590,_ZNSt8_Rb_treeIPKN5boost6system14error_categoryESt4pairIKS4_St10unique_ptrINS1_6detail12std_categoryESt14default_deleteIS9_EEESt10_Select1stISD_ENS8_12cat_ptr_lessESaISD_EE17_M_construct_nodeIJSD_EEEvPSt13_Rb_tree_nodeISD_EDpOT_
FNDA:0,_ZNSt8_Rb_treeIPKN5boost6system14error_categoryESt4pairIKS4_St10unique_ptrINS1_6detail12std_categoryESt14default_deleteIS9_EEESt10_Select1stISD_ENS8_12cat_ptr_lessESaISD_EE17_M_construct_nodeIJSD_EEEvPSt13_Rb_tree_nodeISD_EDpOT_
FN:609,_ZNSt8_Rb_treeIPKN5boost6system14error_categoryESt4pairIKS4_St10unique_ptrINS1_6detail12std_categoryESt14default_deleteIS9_EEESt10_Select1stISD_ENS8_12cat_ptr_lessESaISD_EE14_M_create_nodeIJSD_EEEPSt13_Rb_tree_nodeISD_EDpOT_
FNDA:0,_ZNSt8_Rb_treeIPKN5boost6system14error_categoryESt4pairIKS4_St10unique_ptrINS1_6detail12std_categoryESt14default_deleteIS9_EEESt10_Select1stISD_ENS8_12cat_ptr_lessESaISD_EE14_M_create_nodeIJSD_EEEPSt13_Rb_tree_nodeISD_EDpOT_
FN:618,_ZNSt8_Rb_treeIPKN5boost6system14error_categoryESt4pairIKS4_St10unique_ptrINS1_6detail12std_categoryESt14default_deleteIS9_EEESt10_Select1stISD_ENS8_12cat_ptr_lessESaISD_EE15_M_destroy_nodeEPSt13_Rb_tree_nodeISD_E
FNDA:0,_ZNSt8_Rb_treeIPKN5boost6system14error_categoryESt4pairIKS4_St10unique_ptrINS1_6detail12std_categoryESt14default_deleteIS9_EEESt10_Select1stISD_ENS8_12cat_ptr_lessESaISD_EE15_M_destroy_nodeEPSt13_Rb_tree_nodeISD_E
FN:629,_ZNSt8_Rb_treeIPKN5boost6system14error_categoryESt4pairIKS4_St10unique_ptrINS1_6detail12std_categoryESt14default_deleteIS9_EEESt10_Select1stISD_ENS8_12cat_ptr_lessESaISD_EE12_M_drop_nodeEPSt13_Rb_tree_nodeISD_E
FNDA:0,_ZNSt8_Rb_treeIPKN5boost6system14error_categoryESt4pairIKS4_St10unique_ptrINS1_6detail12std_categoryESt14default_deleteIS9_EEESt10_Select1stISD_ENS8_12cat_ptr_lessESaISD_EE12_M_drop_nodeEPSt13_Rb_tree_nodeISD_E
FN:667,_ZNSt8_Rb_treeIPKN5boost6system14error_categoryESt4pairIKS4_St10unique_ptrINS1_6detail12std_categoryESt14default_deleteIS9_EEESt10_Select1stISD_ENS8_12cat_ptr_lessESaISD_EE13_Rb_tree_implISG_Lb1EEC2Ev
FNDA:0,_ZNSt8_Rb_treeIPKN5boost6system14error_categoryESt4pairIKS4_St10unique_ptrINS1_6detail12std_categoryESt14default_deleteIS9_EEESt10_Select1stISD_ENS8_12cat_ptr_lessESaISD_EE13_Rb_tree_implISG_Lb1EEC2Ev
FN:734,_ZNKSt8_Rb_treeIPKN5boost6system14error_categoryESt4pairIKS4_St10unique_ptrINS1_6detail12std_categoryESt14default_deleteIS9_EEESt10_Select1stISD_ENS8_12cat_ptr_lessESaISD_EE9_M_mbeginEv
FNDA:0,_ZNKSt8_Rb_treeIPKN5boost6system14error_categoryESt4pairIKS4_St10unique_ptrINS1_6detail12std_categoryESt14default_deleteIS9_EEESt10_Select1stISD_ENS8_12cat_ptr_lessESaISD_EE9_M_mbeginEv
FN:738,_ZNSt8_Rb_treeIPKN5boost6system14error_categoryESt4pairIKS4_St10unique_ptrINS1_6detail12std_categoryESt14default_deleteIS9_EEESt10_Select1stISD_ENS8_12cat_ptr_lessESaISD_EE8_M_beginEv
FNDA:0,_ZNSt8_Rb_treeIPKN5boost6system14error_categoryESt4pairIKS4_St10unique_ptrINS1_6detail12std_categoryESt14default_deleteIS9_EEESt10_Select1stISD_ENS8_12cat_ptr_lessESaISD_EE8_M_beginEv
FN:749,_ZNSt8_Rb_treeIPKN5boost6system14error_categoryESt4pairIKS4_St10unique_ptrINS1_6detail12std_categoryESt14default_deleteIS9_EEESt10_Select1stISD_ENS8_12cat_ptr_lessESaISD_EE6_M_endEv
FNDA:0,_ZNSt8_Rb_treeIPKN5boost6system14error_categoryESt4pairIKS4_St10unique_ptrINS1_6detail12std_categoryESt14default_deleteIS9_EEESt10_Select1stISD_ENS8_12cat_ptr_lessESaISD_EE6_M_endEv
FN:757,_ZNSt8_Rb_treeIPKN5boost6system14error_categoryESt4pairIKS4_St10unique_ptrINS1_6detail12std_categoryESt14default_deleteIS9_EEESt10_Select1stISD_ENS8_12cat_ptr_lessESaISD_EE6_S_keyEPKSt13_Rb_tree_nodeISD_E
FNDA:0,_ZNSt8_Rb_treeIPKN5boost6system14error_categoryESt4pairIKS4_St10unique_ptrINS1_6detail12std_categoryESt14default_deleteIS9_EEESt10_Select1stISD_ENS8_12cat_ptr_lessESaISD_EE6_S_keyEPKSt13_Rb_tree_nodeISD_E
FN:779,_ZNSt8_Rb_treeIPKN5boost6system14error_categoryESt4pairIKS4_St10unique_ptrINS1_6detail12std_categoryESt14default_deleteIS9_EEESt10_Select1stISD_ENS8_12cat_ptr_lessESaISD_EE7_S_leftEPSt18_Rb_tree_node_base
FNDA:0,_ZNSt8_Rb_treeIPKN5boost6system14error_categoryESt4pairIKS4_St10unique_ptrINS1_6detail12std_categoryESt14default_deleteIS9_EEESt10_Select1stISD_ENS8_12cat_ptr_lessESaISD_EE7_S_leftEPSt18_Rb_tree_node_base
FN:787,_ZNSt8_Rb_treeIPKN5boost6system14error_categoryESt4pairIKS4_St10unique_ptrINS1_6detail12std_categoryESt14default_deleteIS9_EEESt10_Select1stISD_ENS8_12cat_ptr_lessESaISD_EE8_S_rightEPSt18_Rb_tree_node_base
FNDA:0,_ZNSt8_Rb_treeIPKN5boost6system14error_categoryESt4pairIKS4_St10unique_ptrINS1_6detail12std_categoryESt14default_deleteIS9_EEESt10_Select1stISD_ENS8_12cat_ptr_lessESaISD_EE8_S_rightEPSt18_Rb_tree_node_base
FN:795,_ZNSt8_Rb_treeIPKN5boost6system14error_categoryESt4pairIKS4_St10unique_ptrINS1_6detail12std_categoryESt14default_deleteIS9_EEESt10_Select1stISD_ENS8_12cat_ptr_lessESaISD_EE6_S_keyEPKSt18_Rb_tree_node_base
FNDA:0,_ZNSt8_Rb_treeIPKN5boost6system14error_categoryESt4pairIKS4_St10unique_ptrINS1_6detail12std_categoryESt14default_deleteIS9_EEESt10_Select1stISD_ENS8_12cat_ptr_lessESaISD_EE6_S_keyEPKSt18_Rb_tree_node_base
FN:928,_ZNSt8_Rb_treeIPKN5boost6system14error_categoryESt4pairIKS4_St10unique_ptrINS1_6detail12std_categoryESt14default_deleteIS9_EEESt10_Select1stISD_ENS8_12cat_ptr_lessESaISD_EEC2Ev
FNDA:0,_ZNSt8_Rb_treeIPKN5boost6system14error_categoryESt4pairIKS4_St10unique_ptrINS1_6detail12std_categoryESt14default_deleteIS9_EEESt10_Select1stISD_ENS8_12cat_ptr_lessESaISD_EEC2Ev
FN:983,_ZNSt8_Rb_treeIPKN5boost6system14error_categoryESt4pairIKS4_St10unique_ptrINS1_6detail12std_categoryESt14default_deleteIS9_EEESt10_Select1stISD_ENS8_12cat_ptr_lessESaISD_EED2Ev
FNDA:0,_ZNSt8_Rb_treeIPKN5boost6system14error_categoryESt4pairIKS4_St10unique_ptrINS1_6detail12std_categoryESt14default_deleteIS9_EEESt10_Select1stISD_ENS8_12cat_ptr_lessESaISD_EED2Ev
FN:995,_ZNSt8_Rb_treeIPKN5boost6system14error_categoryESt4pairIKS4_St10unique_ptrINS1_6detail12std_categoryESt14default_deleteIS9_EEESt10_Select1stISD_ENS8_12cat_ptr_lessESaISD_EE5beginEv
FNDA:0,_ZNSt8_Rb_treeIPKN5boost6system14error_categoryESt4pairIKS4_St10unique_ptrINS1_6detail12std_categoryESt14default_deleteIS9_EEESt10_Select1stISD_ENS8_12cat_ptr_lessESaISD_EE5beginEv
FN:1003,_ZNSt8_Rb_treeIPKN5boost6system14error_categoryESt4pairIKS4_St10unique_ptrINS1_6detail12std_categoryESt14default_deleteIS9_EEESt10_Select1stISD_ENS8_12cat_ptr_lessESaISD_EE3endEv
FNDA:0,_ZNSt8_Rb_treeIPKN5boost6system14error_categoryESt4pairIKS4_St10unique_ptrINS1_6detail12std_categoryESt14default_deleteIS9_EEESt10_Select1stISD_ENS8_12cat_ptr_lessESaISD_EE3endEv
FN:1771,_ZNSt8_Rb_treeIPKN5boost6system14error_categoryESt4pairIKS4_St10unique_ptrINS1_6detail12std_categoryESt14default_deleteIS9_EEESt10_Select1stISD_ENS8_12cat_ptr_lessESaISD_EE10_M_insert_ISD_NSI_11_Alloc_nodeEEESt17_Rb_tree_iteratorISD_EPSt18_Rb_tree_node_baseSO_OT_RT0_
FNDA:0,_ZNSt8_Rb_treeIPKN5boost6system14error_categoryESt4pairIKS4_St10unique_ptrINS1_6detail12std_categoryESt14default_deleteIS9_EEESt10_Select1stISD_ENS8_12cat_ptr_lessESaISD_EE10_M_insert_ISD_NSI_11_Alloc_nodeEEESt17_Rb_tree_iteratorISD_EPSt18_Rb_tree_node_baseSO_OT_RT0_
FN:1883,_ZNSt8_Rb_treeIPKN5boost6system14error_categoryESt4pairIKS4_St10unique_ptrINS1_6detail12std_categoryESt14default_deleteIS9_EEESt10_Select1stISD_ENS8_12cat_ptr_lessESaISD_EE8_M_eraseEPSt13_Rb_tree_nodeISD_E
FNDA:0,_ZNSt8_Rb_treeIPKN5boost6system14error_categoryESt4pairIKS4_St10unique_ptrINS1_6detail12std_categoryESt14default_deleteIS9_EEESt10_Select1stISD_ENS8_12cat_ptr_lessESaISD_EE8_M_eraseEPSt13_Rb_tree_nodeISD_E
FN:1900,_ZNSt8_Rb_treeIPKN5boost6system14error_categoryESt4pairIKS4_St10unique_ptrINS1_6detail12std_categoryESt14default_deleteIS9_EEESt10_Select1stISD_ENS8_12cat_ptr_lessESaISD_EE14_M_lower_boundEPSt13_Rb_tree_nodeISD_EPSt18_Rb_tree_node_baseRS6_
FNDA:0,_ZNSt8_Rb_treeIPKN5boost6system14error_categoryESt4pairIKS4_St10unique_ptrINS1_6detail12std_categoryESt14default_deleteIS9_EEESt10_Select1stISD_ENS8_12cat_ptr_lessESaISD_EE14_M_lower_boundEPSt13_Rb_tree_nodeISD_EPSt18_Rb_tree_node_baseRS6_
FN:2061,_ZNSt8_Rb_treeIPKN5boost6system14error_categoryESt4pairIKS4_St10unique_ptrINS1_6detail12std_categoryESt14default_deleteIS9_EEESt10_Select1stISD_ENS8_12cat_ptr_lessESaISD_EE24_M_get_insert_unique_posERS6_
FNDA:0,_ZNSt8_Rb_treeIPKN5boost6system14error_categoryESt4pairIKS4_St10unique_ptrINS1_6detail12std_categoryESt14default_deleteIS9_EEESt10_Select1stISD_ENS8_12cat_ptr_lessESaISD_EE24_M_get_insert_unique_posERS6_
FN:2115,_ZNSt8_Rb_treeIPKN5boost6system14error_categoryESt4pairIKS4_St10unique_ptrINS1_6detail12std_categoryESt14default_deleteIS9_EEESt10_Select1stISD_ENS8_12cat_ptr_lessESaISD_EE16_M_insert_uniqueISD_EES5_ISt17_Rb_tree_iteratorISD_EbEOT_
FNDA:0,_ZNSt8_Rb_treeIPKN5boost6system14error_categoryESt4pairIKS4_St10unique_ptrINS1_6detail12std_categoryESt14default_deleteIS9_EEESt10_Select1stISD_ENS8_12cat_ptr_lessESaISD_EE16_M_insert_uniqueISD_EES5_ISt17_Rb_tree_iteratorISD_EbEOT_
FN:2520,_ZNSt8_Rb_treeIPKN5boost6system14error_categoryESt4pairIKS4_St10unique_ptrINS1_6detail12std_categoryESt14default_deleteIS9_EEESt10_Select1stISD_ENS8_12cat_ptr_lessESaISD_EE4findERS6_
FNDA:0,_ZNSt8_Rb_treeIPKN5boost6system14error_categoryESt4pairIKS4_St10unique_ptrINS1_6detail12std_categoryESt14default_deleteIS9_EEESt10_Select1stISD_ENS8_12cat_ptr_lessESaISD_EE4findERS6_
DA:146,0
DA:150,0
DA:173,176
DA:174,176
DA:175,176
DA:176,176
DA:177,176
DA:206,191
DA:208,191
DA:209,191
DA:210,191
DA:211,191
DA:212,191
DA:234,0
DA:235,0
DA:238,0
DA:239,0
DA:273,0
DA:274,0
DA:281,0
DA:282,0
DA:300,0
DA:302,0
DA:303,0
DA:315,0
DA:316,0
DA:523,0
DA:524,0
DA:528,0
DA:529,0
DA:547,0
DA:548,0
DA:560,0
DA:561,0
DA:564,0
DA:565,0
DA:590,0
DA:594,0
DA:595,0
DA:605,0
DA:609,0
DA:611,0
DA:612,0
DA:613,0
DA:618,0
DA:623,0
DA:624,0
DA:626,0
DA:629,0
DA:631,0
DA:632,0
DA:633,0
DA:667,0
DA:671,0
DA:672,0
DA:734,0
DA:735,0
DA:738,0
DA:739,0
DA:749,0
DA:750,0
DA:757,0
DA:775,0
DA:779,0
DA:780,0
DA:787,0
DA:788,0
DA:795,0
DA:796,0
DA:928,0
DA:983,0
DA:984,0
DA:995,0
DA:996,0
DA:1003,0
DA:1004,0
DA:1771,0
DA:1780,0
DA:1781,0
DA:1782,0
DA:1784,0
DA:1786,0
DA:1787,0
DA:1788,0
DA:1789,0
DA:1883,0
DA:1887,0
DA:1889,0
DA:1890,0
DA:1891,0
DA:1892,0
DA:1894,0
DA:1900,0
DA:1904,0
DA:1905,0
DA:1906,0
DA:1908,0
DA:1909,0
DA:2061,0
DA:2065,0
DA:2066,0
DA:2067,0
DA:2068,0
DA:2070,0
DA:2071,0
DA:2072,0
DA:2074,0
DA:2075,0
DA:2077,0
DA:2078,0
DA:2080,0
DA:2082,0
DA:2083,0
DA:2084,0
DA:2115,0
DA:2124,0
DA:2126,0
DA:2128,0
DA:2129,0
DA:2131,0
DA:2134,0
DA:2520,0
DA:2523,0
DA:2524,0
DA:2525,0
DA:2526,0
end_of_record
SF:/usr/include/c++/11/bits/fs_ops.h
FN:128,_ZNSt10filesystem6existsENS_11file_statusE
FNDA:131,_ZNSt10filesystem6existsENS_11file_statusE
FN:133,_ZNSt10filesystem6existsERKNS_7__cxx114pathE
FNDA:131,_ZNSt10filesystem6existsERKNS_7__cxx114pathE
FN:363,_ZNSt10filesystem12status_knownENS_11file_statusE
FNDA:131,_ZNSt10filesystem12status_knownENS_11file_statusE
DA:128,131
DA:129,131
DA:133,131
DA:134,131
DA:363,131
DA:364,131
end_of_record
SF:/usr/include/boost/system/detail/generic_category.hpp
FN:25,_ZN5boost6system6detail17strerror_r_helperEPKcS3_
FNDA:0,_ZN5boost6system6detail17strerror_r_helperEPKcS3_
FN:35,_ZN5boost6system6detail30generic_error_category_messageEiPcm
FNDA:0,_ZN5boost6system6detail30generic_error_category_messageEiPcm
FN:40,_ZN5boost6system6detail30generic_error_category_messageB5cxx11Ei
FNDA:0,_ZN5boost6system6detail30generic_error_category_messageB5cxx11Ei
DA:25,0
DA:27,0
DA:35,0
DA:37,0
DA:40,0
DA:43,0
end_of_record
SF:/usr/include/c++/11/bits/move.h
FN:49,_ZSt11__addressofISt10unique_ptrI14BaseControllerSt14default_deleteIS1_EEEPT_RS5_
FNDA:1985,_ZSt11__addressofISt10unique_ptrI14BaseControllerSt14default_deleteIS1_EEEPT_RS5_
FN:49,_ZSt11__addressofIcEPT_RS0_
FNDA:20315,_ZSt11__addressofIcEPT_RS0_
FN:49,_ZSt11__addressofIKcEPT_RS1_
FNDA:49776,_ZSt11__addressofIKcEPT_RS1_
FN:77,_ZSt7forwardISt14default_deleteI22PlayingMediaControllerEEOT_RNSt16remove_referenceIS3_E4typeE
FNDA:429,_ZSt7forwardISt14default_deleteI22PlayingMediaControllerEEOT_RNSt16remove_referenceIS3_E4typeE
FN:77,_ZSt7forwardIiEOT_RNSt16remove_referenceIS0_E4typeE
FNDA:325,_ZSt7forwardIiEOT_RNSt16remove_referenceIS0_E4typeE
FN:77,_ZSt7forwardIbEOT_RNSt16remove_referenceIS0_E4typeE
FNDA:0,_ZSt7forwardIbEOT_RNSt16remove_referenceIS0_E4typeE
FN:77,_ZSt7forwardIPKN5boost6system14error_categoryEEOT_RNSt16remove_referenceIS5_E4typeE
FNDA:0,_ZSt7forwardIPKN5boost6system14error_categoryEEOT_RNSt16remove_referenceIS5_E4typeE
FN:77,_ZSt7forwardISt10unique_ptrIN5boost6system6detail12std_categoryESt14default_deleteIS4_EEEOT_RNSt16remove_referenceIS8_E4typeE
FNDA:0,_ZSt7forwardISt10unique_ptrIN5boost6system6detail12std_categoryESt14default_deleteIS4_EEEOT_RNSt16remove_referenceIS8_E4typeE
FN:77,_ZSt7forwardISt14default_deleteI18MainMenuControllerEEOT_RNSt16remove_referenceIS3_E4typeE
FNDA:415,_ZSt7forwardISt14default_deleteI18MainMenuControllerEEOT_RNSt16remove_referenceIS3_E4typeE
FN:77,_ZSt7forwardISt14default_deleteI21ScanfOptionControllerEEOT_RNSt16remove_referenceIS3_E4typeE
FNDA:429,_ZSt7forwardISt14default_deleteI21ScanfOptionControllerEEOT_RNSt16remove_referenceIS3_E4typeE
FN:77,_ZSt7forwardISt14default_deleteI18PlaylistControllerEEOT_RNSt16remove_referenceIS3_E4typeE
FNDA:418,_ZSt7forwardISt14default_deleteI18PlaylistControllerEEOT_RNSt16remove_referenceIS3_E4typeE
FN:77,_ZSt7forwardISt14default_deleteI19MediaFileControllerEEOT_RNSt16remove_referenceIS3_E4typeE
FNDA:432,_ZSt7forwardISt14default_deleteI19MediaFileControllerEEOT_RNSt16remove_referenceIS3_E4typeE
FN:77,_ZSt7forwardISt14default_deleteI26DetailedPlaylistControllerEEOT_RNSt16remove_referenceIS3_E4typeE
FNDA:421,_ZSt7forwardISt14default_deleteI26DetailedPlaylistControllerEEOT_RNSt16remove_referenceIS3_E4typeE
FN:77,_ZSt7forwardISt14default_deleteI18MetadataControllerEEOT_RNSt16remove_referenceIS3_E4typeE
FNDA:420,_ZSt7forwardISt14default_deleteI18MetadataControllerEEOT_RNSt16remove_referenceIS3_E4typeE
FN:77,_ZSt7forwardIRA13_KcEOT_RNSt16remove_referenceIS3_E4typeE
FNDA:121,_ZSt7forwardIRA13_KcEOT_RNSt16remove_referenceIS3_E4typeE
FN:77,_ZSt7forwardISt14default_deleteI18HardwareControllerEEOT_RNSt16remove_referenceIS3_E4typeE
FNDA:424,_ZSt7forwardISt14default_deleteI18HardwareControllerEEOT_RNSt16remove_referenceIS3_E4typeE
FN:77,_ZSt7forwardISt4pairIKPKN5boost6system14error_categoryESt10unique_ptrINS2_6detail12std_categoryESt14default_deleteIS9_EEEEOT_RNSt16remove_referenceISE_E4typeE
FNDA:0,_ZSt7forwardISt4pairIKPKN5boost6system14error_categoryESt10unique_ptrINS2_6detail12std_categoryESt14default_deleteIS9_EEEEOT_RNSt16remove_referenceISE_E4typeE
FN:77,_ZSt7forwardIRPSt18_Rb_tree_node_baseEOT_RNSt16remove_referenceIS3_E4typeE
FNDA:521,_ZSt7forwardIRPSt18_Rb_tree_node_baseEOT_RNSt16remove_referenceIS3_E4typeE
FN:77,_ZSt7forwardISt10unique_ptrI14BaseControllerSt14default_deleteIS1_EEEOT_RNSt16remove_referenceIS5_E4typeE
FNDA:2898,_ZSt7forwardISt10unique_ptrI14BaseControllerSt14default_deleteIS1_EEEOT_RNSt16remove_referenceIS5_E4typeE
FN:77,_ZSt7forwardIRPSt13_Rb_tree_nodeISt4pairIKPKN5boost6system14error_categoryESt10unique_ptrINS3_6detail12std_categoryESt14default_deleteISA_EEEEEOT_RNSt16remove_referenceISI_E4typeE
FNDA:0,_ZSt7forwardIRPSt13_Rb_tree_nodeISt4pairIKPKN5boost6system14error_categoryESt10unique_ptrINS3_6detail12std_categoryESt14default_deleteISA_EEEEEOT_RNSt16remove_referenceISI_E4typeE
FN:77,_ZSt7forwardISt17_Rb_tree_iteratorISt4pairIKPKN5boost6system14error_categoryESt10unique_ptrINS3_6detail12std_categoryESt14default_deleteISA_EEEEEOT_RNSt16remove_referenceISG_E4typeE
FNDA:0,_ZSt7forwardISt17_Rb_tree_iteratorISt4pairIKPKN5boost6system14error_categoryESt10unique_ptrINS3_6detail12std_categoryESt14default_deleteISA_EEEEEOT_RNSt16remove_referenceISG_E4typeE
FN:77,_ZSt7forwardIRP14BaseControllerEOT_RNSt16remove_referenceIS3_E4typeE
FNDA:1656,_ZSt7forwardIRP14BaseControllerEOT_RNSt16remove_referenceIS3_E4typeE
FN:104,_ZSt4moveIRSt5tupleIJP14BaseControllerSt14default_deleteIS1_EEEEONSt16remove_referenceIT_E4typeEOS8_
FNDA:1035,_ZSt4moveIRSt5tupleIJP14BaseControllerSt14default_deleteIS1_EEEEONSt16remove_referenceIT_E4typeEOS8_
FN:104,_ZSt4moveIRP18HardwareControllerEONSt16remove_referenceIT_E4typeEOS4_
FNDA:34,_ZSt4moveIRP18HardwareControllerEONSt16remove_referenceIT_E4typeEOS4_
FN:104,_ZSt4moveIRSt10unique_ptrIN5boost6system6detail12std_categoryESt14default_deleteIS4_EEEONSt16remove_referenceIT_E4typeEOSA_
FNDA:0,_ZSt4moveIRSt10unique_ptrIN5boost6system6detail12std_categoryESt14default_deleteIS4_EEEONSt16remove_referenceIT_E4typeEOSA_
FN:104,_ZSt4moveIRPNSt10filesystem7__cxx114path5_List5_ImplEEONSt16remove_referenceIT_E4typeEOS8_
FNDA:324,_ZSt4moveIRPNSt10filesystem7__cxx114path5_List5_ImplEEONSt16remove_referenceIT_E4typeEOS8_
FN:104,_ZSt4moveIRPN5boost6system6detail12std_categoryEEONSt16remove_referenceIT_E4typeEOS7_
FNDA:0,_ZSt4moveIRPN5boost6system6detail12std_categoryEEONSt16remove_referenceIT_E4typeEOS7_
FN:104,_ZSt4moveIRSt4pairIKPKN5boost6system14error_categoryESt10unique_ptrINS2_6detail12std_categoryESt14default_deleteIS9_EEEEONSt16remove_referenceIT_E4typeEOSG_
FNDA:0,_ZSt4moveIRSt4pairIKPKN5boost6system14error_categoryESt10unique_ptrINS2_6detail12std_categoryESt14default_deleteIS9_EEEEONSt16remove_referenceIT_E4typeEOSG_
FN:104,_ZSt4moveIRP18MainMenuControllerEONSt16remove_referenceIT_E4typeEOS4_
FNDA:1,_ZSt4moveIRP18MainMenuControllerEONSt16remove_referenceIT_E4typeEOS4_
FN:104,_ZSt4moveIRP14BaseControllerEONSt16remove_referenceIT_E4typeEOS4_
FNDA:536,_ZSt4moveIRP14BaseControllerEONSt16remove_referenceIT_E4typeEOS4_
FN:104,_ZSt4moveIRSt10unique_ptrI14BaseControllerSt14default_deleteIS1_EEEONSt16remove_referenceIT_E4typeEOS7_
FNDA:1035,_ZSt4moveIRSt10unique_ptrI14BaseControllerSt14default_deleteIS1_EEEONSt16remove_referenceIT_E4typeEOS7_
FN:104,_ZSt4moveIRP21ScanfOptionControllerEONSt16remove_referenceIT_E4typeEOS4_
FNDA:19,_ZSt4moveIRP21ScanfOptionControllerEONSt16remove_referenceIT_E4typeEOS4_
FN:104,_ZSt4moveIRP18PlaylistControllerEONSt16remove_referenceIT_E4typeEOS4_
FNDA:6,_ZSt4moveIRP18PlaylistControllerEONSt16remove_referenceIT_E4typeEOS4_
FN:104,_ZSt4moveIRP19MediaFileControllerEONSt16remove_referenceIT_E4typeEOS4_
FNDA:11,_ZSt4moveIRP19MediaFileControllerEONSt16remove_referenceIT_E4typeEOS4_
FN:104,_ZSt4moveIRP22PlayingMediaControllerEONSt16remove_referenceIT_E4typeEOS4_
FNDA:29,_ZSt4moveIRP22PlayingMediaControllerEONSt16remove_referenceIT_E4typeEOS4_
FN:104,_ZSt4moveIRP26DetailedPlaylistControllerEONSt16remove_referenceIT_E4typeEOS4_
FNDA:9,_ZSt4moveIRP26DetailedPlaylistControllerEONSt16remove_referenceIT_E4typeEOS4_
FN:104,_ZSt4moveIRSt5tupleIJPN5boost6system6detail12std_categoryESt14default_deleteIS4_EEEEONSt16remove_referenceIT_E4typeEOSB_
FNDA:0,_ZSt4moveIRSt5tupleIJPN5boost6system6detail12std_categoryESt14default_deleteIS4_EEEEONSt16remove_referenceIT_E4typeEOSB_
FN:104,_ZSt4moveIRP18MetadataControllerEONSt16remove_referenceIT_E4typeEOS4_
FNDA:10,_ZSt4moveIRP18MetadataControllerEONSt16remove_referenceIT_E4typeEOS4_
FN:145,_ZSt9addressofIKcEPT_RS1_
FNDA:49776,_ZSt9addressofIKcEPT_RS1_
FN:145,_ZSt9addressofIcEPT_RS0_
FNDA:20315,_ZSt9addressofIcEPT_RS0_
DA:49,49776
DA:50,49776
DA:49,1985
DA:50,1985
DA:49,20315
DA:50,20315
DA:77,421
DA:78,421
DA:77,325
DA:78,325
DA:77,0
DA:78,0
DA:77,0
DA:78,0
DA:77,0
DA:78,0
DA:77,415
DA:78,415
DA:77,429
DA:78,429
DA:77,418
DA:78,418
DA:77,432
DA:78,432
DA:77,429
DA:78,429
DA:77,521
DA:78,521
DA:77,420
DA:78,420
DA:77,121
DA:78,121
DA:77,424
DA:78,424
DA:77,0
DA:78,0
DA:77,2898
DA:78,2898
DA:77,0
DA:78,0
DA:77,1656
DA:78,1656
DA:77,0
DA:78,0
DA:104,1035
DA:105,1035
DA:104,0
DA:105,0
DA:104,34
DA:105,34
DA:104,10
DA:105,10
DA:104,9
DA:105,9
DA:104,29
DA:105,29
DA:104,11
DA:105,11
DA:104,6
DA:105,6
DA:104,19
DA:105,19
DA:104,1035
DA:105,1035
DA:104,536
DA:105,536
DA:104,1
DA:105,1
DA:104,0
DA:105,0
DA:104,0
DA:105,0
DA:104,324
DA:105,324
DA:104,0
DA:105,0
DA:145,49776
DA:146,49776
DA:145,20315
DA:146,20315
end_of_record
SF:/usr/include/c++/11/bits/stl_construct.h
FN:80,_ZSt10destroy_atISt4pairIKPKN5boost6system14error_categoryESt10unique_ptrINS2_6detail12std_categoryESt14default_deleteIS9_EEEEvPT_
FNDA:0,_ZSt10destroy_atISt4pairIKPKN5boost6system14error_categoryESt10unique_ptrINS2_6detail12std_categoryESt14default_deleteIS9_EEEEvPT_
FN:80,_ZSt10destroy_atISt10unique_ptrI14BaseControllerSt14default_deleteIS1_EEEvPT_
FNDA:1019,_ZSt10destroy_atISt10unique_ptrI14BaseControllerSt14default_deleteIS1_EEEvPT_
FN:94,_ZSt12construct_atISt4pairIKPKN5boost6system14error_categoryESt10unique_ptrINS2_6detail12std_categoryESt14default_deleteIS9_EEEJSD_EEDTgsnwcvPvLi0E_T_pispcl7declvalIT0_EEEEPSF_DpOSG_
FNDA:0,_ZSt12construct_atISt4pairIKPKN5boost6system14error_categoryESt10unique_ptrINS2_6detail12std_categoryESt14default_deleteIS9_EEEJSD_EEDTgsnwcvPvLi0E_T_pispcl7declvalIT0_EEEEPSF_DpOSG_
FN:94,_ZSt12construct_atISt10unique_ptrI14BaseControllerSt14default_deleteIS1_EEJS4_EEDTgsnwcvPvLi0E_T_pispcl7declvalIT0_EEEEPS6_DpOS7_
FNDA:1035,_ZSt12construct_atISt10unique_ptrI14BaseControllerSt14default_deleteIS1_EEJS4_EEDTgsnwcvPvLi0E_T_pispcl7declvalIT0_EEEEPS6_DpOS7_
FN:146,_ZSt8_DestroyISt10unique_ptrI14BaseControllerSt14default_deleteIS1_EEEvPT_
FNDA:536,_ZSt8_DestroyISt10unique_ptrI14BaseControllerSt14default_deleteIS1_EEEvPT_
FN:160,_ZNSt12_Destroy_auxILb0EE9__destroyIPSt10unique_ptrI14BaseControllerSt14default_deleteIS3_EEEEvT_S8_
FNDA:67,_ZNSt12_Destroy_auxILb0EE9__destroyIPSt10unique_ptrI14BaseControllerSt14default_deleteIS3_EEEEvT_S8_
FN:182,_ZSt8_DestroyIPSt10unique_ptrI14BaseControllerSt14default_deleteIS1_EEEvT_S6_
FNDA:67,_ZSt8_DestroyIPSt10unique_ptrI14BaseControllerSt14default_deleteIS1_EEEvT_S6_
DA:80,0
DA:88,0
DA:89,0
DA:80,1019
DA:88,1019
DA:89,1019
DA:94,0
DA:97,0
DA:94,1035
DA:97,1035
DA:146,536
DA:149,536
DA:153,536
DA:160,67
DA:162,603
DA:163,536
DA:164,67
DA:182,67
DA:192,67
DA:193,0
DA:196,67
end_of_record
SF:/usr/include/c++/11/system_error
FN:100,_ZNSt3_V214error_categoryC2Ev
FNDA:0,_ZNSt3_V214error_categoryC2Ev
FN:144,_ZNKSt3_V214error_categoryeqERKS0_
FNDA:0,_ZNKSt3_V214error_categoryeqERKS0_
FN:229,_ZNKSt10error_code5valueEv
FNDA:0,_ZNKSt10error_code5valueEv
FN:232,_ZNKSt10error_code8categoryEv
FNDA:0,_ZNKSt10error_code8categoryEv
FN:303,_ZNSt15error_conditionC2EiRKNSt3_V214error_categoryE
FNDA:0,_ZNSt15error_conditionC2EiRKNSt3_V214error_categoryE
FN:331,_ZNKSt15error_condition5valueEv
FNDA:0,_ZNKSt15error_condition5valueEv
FN:334,_ZNKSt15error_condition8categoryEv
FNDA:0,_ZNKSt15error_condition8categoryEv
FN:376,_ZSteqRKSt15error_conditionS1_
FNDA:0,_ZSteqRKSt15error_conditionS1_
DA:100,0
DA:144,0
DA:145,0
DA:229,0
DA:232,0
DA:303,0
DA:304,0
DA:331,0
DA:334,0
DA:376,0
DA:379,0
DA:380,0
end_of_record
SF:/usr/include/boost/asio/detail/keyword_tss_ptr.hpp
FN:36,_ZN5boost4asio6detail15keyword_tss_ptrINS1_10call_stackINS1_23strand_executor_service11strand_implEhE7contextEEC2Ev
FNDA:1,_ZN5boost4asio6detail15keyword_tss_ptrINS1_10call_stackINS1_23strand_executor_service11strand_implEhE7contextEEC2Ev
FN:36,_ZN5boost4asio6detail15keyword_tss_ptrINS1_10call_stackINS1_14strand_service11strand_implEhE7contextEEC2Ev
FNDA:1,_ZN5boost4asio6detail15keyword_tss_ptrINS1_10call_stackINS1_14strand_service11strand_implEhE7contextEEC2Ev
FN:36,_ZN5boost4asio6detail15keyword_tss_ptrINS1_10call_stackINS1_14thread_contextENS1_16thread_info_baseEE7contextEEC2Ev
FNDA:1,_ZN5boost4asio6detail15keyword_tss_ptrINS1_10call_stackINS1_14thread_contextENS1_16thread_info_baseEE7contextEEC2Ev
FN:41,_ZN5boost4asio6detail15keyword_tss_ptrINS1_10call_stackINS1_23strand_executor_service11strand_implEhE7contextEED2Ev
FNDA:1,_ZN5boost4asio6detail15keyword_tss_ptrINS1_10call_stackINS1_23strand_executor_service11strand_implEhE7contextEED2Ev
FN:41,_ZN5boost4asio6detail15keyword_tss_ptrINS1_10call_stackINS1_14strand_service11strand_implEhE7contextEED2Ev
FNDA:1,_ZN5boost4asio6detail15keyword_tss_ptrINS1_10call_stackINS1_14strand_service11strand_implEhE7contextEED2Ev
FN:41,_ZN5boost4asio6detail15keyword_tss_ptrINS1_10call_stackINS1_14thread_contextENS1_16thread_info_baseEE7contextEED2Ev
FNDA:1,_ZN5boost4asio6detail15keyword_tss_ptrINS1_10call_stackINS1_14thread_contextENS1_16thread_info_baseEE7contextEED2Ev
DA:36,1
DA:37,1
DA:38,1
DA:36,1
DA:37,1
DA:38,1
DA:36,1
DA:37,1
DA:38,1
DA:41,1
DA:43,1
DA:41,1
DA:43,1
DA:41,1
DA:43,1
end_of_record
SF:/usr/include/c++/11/bits/fs_path.h
FN:172,_ZNSt10filesystem7__cxx118__detail17__effective_rangeIA13_cEEDaRKT_
FNDA:69,_ZNSt10filesystem7__cxx118__detail17__effective_rangeIA13_cEEDaRKT_
FN:288,_ZNSt10filesystem7__cxx114pathC2IA13_cS1_EERKT_NS1_6formatE
FNDA:69,_ZNSt10filesystem7__cxx114pathC2IA13_cS1_EERKT_NS1_6formatE
FN:313,_ZNSt10filesystem7__cxx114pathD2Ev
FNDA:324,_ZNSt10filesystem7__cxx114pathD2Ev
FN:584,_ZNSt10filesystem7__cxx114path10_S_convertISt17basic_string_viewIcSt11char_traitsIcEEEEDaRKT_
FNDA:243,_ZNSt10filesystem7__cxx114path10_S_convertISt17basic_string_viewIcSt11char_traitsIcEEEEDaRKT_
FN:647,_ZNSt10filesystem7__cxx114path5_ListD2Ev
FNDA:324,_ZNSt10filesystem7__cxx114path5_ListD2Ev
DA:172,69
DA:175,69
DA:288,69
DA:289,69
DA:290,69
DA:313,324
DA:584,243
DA:589,243
DA:647,324
end_of_record
SF:/usr/include/boost/system/detail/system_category_posix.hpp
FN:19,_ZN5boost6system6detail16is_generic_valueEi
FNDA:0,_ZN5boost6system6detail16is_generic_valueEi
FN:116,_ZN5boost6system6detail45system_category_default_error_condition_posixEi
FNDA:0,_ZN5boost6system6detail45system_category_default_error_condition_posixEi
DA:19,0
DA:106,0
DA:108,0
DA:110,0
DA:113,0
DA:116,0
DA:118,0
DA:120,0
DA:124,0
end_of_record
SF:/usr/include/c++/11/atomic
FN:76,_ZNSt6atomicIbEC2Eb
FNDA:696,_ZNSt6atomicIbEC2Eb
DA:76,696
end_of_record
SF:/usr/include/c++/11/ext/aligned_buffer.h
FN:64,_ZN9__gnu_cxx16__aligned_membufISt4pairIKPKN5boost6system14error_categoryESt10unique_ptrINS3_6detail12std_categoryESt14default_deleteISA_EEEE7_M_addrEv
FNDA:0,_ZN9__gnu_cxx16__aligned_membufISt4pairIKPKN5boost6system14error_categoryESt10unique_ptrINS3_6detail12std_categoryESt14default_deleteISA_EEEE7_M_addrEv
FN:68,_ZNK9__gnu_cxx16__aligned_membufISt4pairIKPKN5boost6system14error_categoryESt10unique_ptrINS3_6detail12std_categoryESt14default_deleteISA_EEEE7_M_addrEv
FNDA:0,_ZNK9__gnu_cxx16__aligned_membufISt4pairIKPKN5boost6system14error_categoryESt10unique_ptrINS3_6detail12std_categoryESt14default_deleteISA_EEEE7_M_addrEv
FN:72,_ZN9__gnu_cxx16__aligned_membufISt4pairIKPKN5boost6system14error_categoryESt10unique_ptrINS3_6detail12std_categoryESt14default_deleteISA_EEEE6_M_ptrEv
FNDA:0,_ZN9__gnu_cxx16__aligned_membufISt4pairIKPKN5boost6system14error_categoryESt10unique_ptrINS3_6detail12std_categoryESt14default_deleteISA_EEEE6_M_ptrEv
FN:76,_ZNK9__gnu_cxx16__aligned_membufISt4pairIKPKN5boost6system14error_categoryESt10unique_ptrINS3_6detail12std_categoryESt14default_deleteISA_EEEE6_M_ptrEv
FNDA:0,_ZNK9__gnu_cxx16__aligned_membufISt4pairIKPKN5boost6system14error_categoryESt10unique_ptrINS3_6detail12std_categoryESt14default_deleteISA_EEEE6_M_ptrEv
DA:64,0
DA:65,0
DA:68,0
DA:69,0
DA:72,0
DA:73,0
DA:76,0
DA:77,0
end_of_record
SF:/usr/include/c++/11/tuple
FN:80,_ZNSt10_Head_baseILm1ESt14default_deleteI18HardwareControllerELb1EEC2Ev
FNDA:89,_ZNSt10_Head_baseILm1ESt14default_deleteI18HardwareControllerELb1EEC2Ev
FN:80,_ZNSt10_Head_baseILm1ESt14default_deleteI18MainMenuControllerELb1EEC2Ev
FNDA:71,_ZNSt10_Head_baseILm1ESt14default_deleteI18MainMenuControllerELb1EEC2Ev
FN:80,_ZNSt10_Head_baseILm1ESt14default_deleteIN5boost6system6detail12std_categoryEELb1EEC2Ev
FNDA:0,_ZNSt10_Head_baseILm1ESt14default_deleteIN5boost6system6detail12std_categoryEELb1EEC2Ev
FN:80,_ZNSt10_Head_baseILm1ESt14default_deleteI21ScanfOptionControllerELb1EEC2Ev
FNDA:99,_ZNSt10_Head_baseILm1ESt14default_deleteI21ScanfOptionControllerELb1EEC2Ev
FN:80,_ZNSt10_Head_baseILm1ESt14default_deleteI18PlaylistControllerELb1EEC2Ev
FNDA:77,_ZNSt10_Head_baseILm1ESt14default_deleteI18PlaylistControllerELb1EEC2Ev
FN:80,_ZNSt10_Head_baseILm1ESt14default_deleteI19MediaFileControllerELb1EEC2Ev
FNDA:96,_ZNSt10_Head_baseILm1ESt14default_deleteI19MediaFileControllerELb1EEC2Ev
FN:80,_ZNSt10_Head_baseILm1ESt14default_deleteI22PlayingMediaControllerELb1EEC2Ev
FNDA:99,_ZNSt10_Head_baseILm1ESt14default_deleteI22PlayingMediaControllerELb1EEC2Ev
FN:80,_ZNSt10_Head_baseILm1ESt14default_deleteI14BaseControllerELb1EEC2Ev
FNDA:0,_ZNSt10_Head_baseILm1ESt14default_deleteI14BaseControllerELb1EEC2Ev
FN:80,_ZNSt10_Head_baseILm1ESt14default_deleteI26DetailedPlaylistControllerELb1EEC2Ev
FNDA:83,_ZNSt10_Head_baseILm1ESt14default_deleteI26DetailedPlaylistControllerELb1EEC2Ev
FN:80,_ZNSt10_Head_baseILm1ESt14default_deleteI18MetadataControllerELb1EEC2Ev
FNDA:81,_ZNSt10_Head_baseILm1ESt14default_deleteI18MetadataControllerELb1EEC2Ev
FN:90,_ZNSt10_Head_baseILm1ESt14default_deleteI14BaseControllerELb1EEC2IS0_I19MediaFileControllerEEEOT_
FNDA:69,_ZNSt10_Head_baseILm1ESt14default_deleteI14BaseControllerELb1EEC2IS0_I19MediaFileControllerEEEOT_
FN:90,_ZNSt10_Head_baseILm1ESt14default_deleteI14BaseControllerELb1EEC2IS0_I18MetadataControllerEEEOT_
FNDA:69,_ZNSt10_Head_baseILm1ESt14default_deleteI14BaseControllerELb1EEC2IS0_I18MetadataControllerEEEOT_
FN:90,_ZNSt10_Head_baseILm1ESt14default_deleteI14BaseControllerELb1EEC2IS0_I26DetailedPlaylistControllerEEEOT_
FNDA:69,_ZNSt10_Head_baseILm1ESt14default_deleteI14BaseControllerELb1EEC2IS0_I26DetailedPlaylistControllerEEEOT_
FN:90,_ZNSt10_Head_baseILm1ESt14default_deleteI14BaseControllerELb1EEC2IS0_I21ScanfOptionControllerEEEOT_
FNDA:69,_ZNSt10_Head_baseILm1ESt14default_deleteI14BaseControllerELb1EEC2IS0_I21ScanfOptionControllerEEEOT_
FN:90,_ZNSt10_Head_baseILm1ESt14default_deleteI14BaseControllerELb1EEC2IS0_I18MainMenuControllerEEEOT_
FNDA:69,_ZNSt10_Head_baseILm1ESt14default_deleteI14BaseControllerELb1EEC2IS0_I18MainMenuControllerEEEOT_
FN:90,_ZNSt10_Head_baseILm1ESt14default_deleteI14BaseControllerELb1EEC2IS0_I18HardwareControllerEEEOT_
FNDA:69,_ZNSt10_Head_baseILm1ESt14default_deleteI14BaseControllerELb1EEC2IS0_I18HardwareControllerEEEOT_
FN:90,_ZNSt10_Head_baseILm1ESt14default_deleteI14BaseControllerELb1EEC2IS0_I22PlayingMediaControllerEEEOT_
FNDA:69,_ZNSt10_Head_baseILm1ESt14default_deleteI14BaseControllerELb1EEC2IS0_I22PlayingMediaControllerEEEOT_
FN:90,_ZNSt10_Head_baseILm1ESt14default_deleteI14BaseControllerELb1EEC2IS0_I18PlaylistControllerEEEOT_
FNDA:69,_ZNSt10_Head_baseILm1ESt14default_deleteI14BaseControllerELb1EEC2IS0_I18PlaylistControllerEEEOT_
FN:124,_ZNSt10_Head_baseILm1ESt14default_deleteIN5boost6system6detail12std_categoryEELb1EE7_M_headERS6_
FNDA:0,_ZNSt10_Head_baseILm1ESt14default_deleteIN5boost6system6detail12std_categoryEELb1EE7_M_headERS6_
FN:124,_ZNSt10_Head_baseILm1ESt14default_deleteI18HardwareControllerELb1EE7_M_headERS3_
FNDA:99,_ZNSt10_Head_baseILm1ESt14default_deleteI18HardwareControllerELb1EE7_M_headERS3_
FN:124,_ZNSt10_Head_baseILm1ESt14default_deleteI18MetadataControllerELb1EE7_M_headERS3_
FNDA:87,_ZNSt10_Head_baseILm1ESt14default_deleteI18MetadataControllerELb1EE7_M_headERS3_
FN:124,_ZNSt10_Head_baseILm1ESt14default_deleteI26DetailedPlaylistControllerELb1EE7_M_headERS3_
FNDA:90,_ZNSt10_Head_baseILm1ESt14default_deleteI26DetailedPlaylistControllerELb1EE7_M_headERS3_
FN:124,_ZNSt10_Head_baseILm1ESt14default_deleteI22PlayingMediaControllerELb1EE7_M_headERS3_
FNDA:114,_ZNSt10_Head_baseILm1ESt14default_deleteI22PlayingMediaControllerELb1EE7_M_headERS3_
FN:124,_ZNSt10_Head_baseILm1ESt14default_deleteI19MediaFileControllerELb1EE7_M_headERS3_
FNDA:123,_ZNSt10_Head_baseILm1ESt14default_deleteI19MediaFileControllerELb1EE7_M_headERS3_
FN:124,_ZNSt10_Head_baseILm1ESt14default_deleteI18PlaylistControllerELb1EE7_M_headERS3_
FNDA:81,_ZNSt10_Head_baseILm1ESt14default_deleteI18PlaylistControllerELb1EE7_M_headERS3_
FN:124,_ZNSt10_Head_baseILm1ESt14default_deleteI21ScanfOptionControllerELb1EE7_M_headERS3_
FNDA:114,_ZNSt10_Head_baseILm1ESt14default_deleteI21ScanfOptionControllerELb1EE7_M_headERS3_
FN:124,_ZNSt10_Head_baseILm1ESt14default_deleteI14BaseControllerELb1EE7_M_headERS3_
FNDA:536,_ZNSt10_Head_baseILm1ESt14default_deleteI14BaseControllerELb1EE7_M_headERS3_
FN:124,_ZNSt10_Head_baseILm1ESt14default_deleteI18MainMenuControllerELb1EE7_M_headERS3_
FNDA:72,_ZNSt10_Head_baseILm1ESt14default_deleteI18MainMenuControllerELb1EE7_M_headERS3_
FN:124,_ZNSt10_Head_baseILm1ENSt10filesystem7__cxx114path5_List13_Impl_deleterELb1EE7_M_headERS5_
FNDA:324,_ZNSt10_Head_baseILm1ENSt10filesystem7__cxx114path5_List13_Impl_deleterELb1EE7_M_headERS5_
FN:189,_ZNSt10_Head_baseILm0EP18PlaylistControllerLb0EEC2Ev
FNDA:77,_ZNSt10_Head_baseILm0EP18PlaylistControllerLb0EEC2Ev
FN:189,_ZNSt10_Head_baseILm0EP22PlayingMediaControllerLb0EEC2Ev
FNDA:99,_ZNSt10_Head_baseILm0EP22PlayingMediaControllerLb0EEC2Ev
FN:189,_ZNSt10_Head_baseILm0EP21ScanfOptionControllerLb0EEC2Ev
FNDA:99,_ZNSt10_Head_baseILm0EP21ScanfOptionControllerLb0EEC2Ev
FN:189,_ZNSt10_Head_baseILm0EP19MediaFileControllerLb0EEC2Ev
FNDA:96,_ZNSt10_Head_baseILm0EP19MediaFileControllerLb0EEC2Ev
FN:189,_ZNSt10_Head_baseILm0EP18HardwareControllerLb0EEC2Ev
FNDA:89,_ZNSt10_Head_baseILm0EP18HardwareControllerLb0EEC2Ev
FN:189,_ZNSt10_Head_baseILm0EPN5boost6system6detail12std_categoryELb0EEC2Ev
FNDA:0,_ZNSt10_Head_baseILm0EPN5boost6system6detail12std_categoryELb0EEC2Ev
FN:189,_ZNSt10_Head_baseILm0EP26DetailedPlaylistControllerLb0EEC2Ev
FNDA:83,_ZNSt10_Head_baseILm0EP26DetailedPlaylistControllerLb0EEC2Ev
FN:189,_ZNSt10_Head_baseILm0EP18MetadataControllerLb0EEC2Ev
FNDA:81,_ZNSt10_Head_baseILm0EP18MetadataControllerLb0EEC2Ev
FN:189,_ZNSt10_Head_baseILm0EP18MainMenuControllerLb0EEC2Ev
FNDA:71,_ZNSt10_Head_baseILm0EP18MainMenuControllerLb0EEC2Ev
FN:189,_ZNSt10_Head_baseILm0EP14BaseControllerLb0EEC2Ev
FNDA:0,_ZNSt10_Head_baseILm0EP14BaseControllerLb0EEC2Ev
FN:199,_ZNSt10_Head_baseILm0EP14BaseControllerLb0EEC2IRS1_EEOT_
FNDA:552,_ZNSt10_Head_baseILm0EP14BaseControllerLb0EEC2IRS1_EEOT_
FN:233,_ZNSt10_Head_baseILm0EP14BaseControllerLb0EE7_M_headERS2_
FNDA:2606,_ZNSt10_Head_baseILm0EP14BaseControllerLb0EE7_M_headERS2_
FN:233,_ZNSt10_Head_baseILm0EP18MainMenuControllerLb0EE7_M_headERS2_
FNDA:283,_ZNSt10_Head_baseILm0EP18MainMenuControllerLb0EE7_M_headERS2_
FN:233,_ZNSt10_Head_baseILm0EP21ScanfOptionControllerLb0EE7_M_headERS2_
FNDA:381,_ZNSt10_Head_baseILm0EP21ScanfOptionControllerLb0EE7_M_headERS2_
FN:233,_ZNSt10_Head_baseILm0EP22PlayingMediaControllerLb0EE7_M_headERS2_
FNDA:381,_ZNSt10_Head_baseILm0EP22PlayingMediaControllerLb0EE7_M_headERS2_
FN:233,_ZNSt10_Head_baseILm0EPN5boost6system6detail12std_categoryELb0EE7_M_headERS5_
FNDA:0,_ZNSt10_Head_baseILm0EPN5boost6system6detail12std_categoryELb0EE7_M_headERS5_
FN:233,_ZNSt10_Head_baseILm0EPNSt10filesystem7__cxx114path5_List5_ImplELb0EE7_M_headERS6_
FNDA:324,_ZNSt10_Head_baseILm0EPNSt10filesystem7__cxx114path5_List5_ImplELb0EE7_M_headERS6_
FN:233,_ZNSt10_Head_baseILm0EP18PlaylistControllerLb0EE7_M_headERS2_
FNDA:304,_ZNSt10_Head_baseILm0EP18PlaylistControllerLb0EE7_M_headERS2_
FN:233,_ZNSt10_Head_baseILm0EP19MediaFileControllerLb0EE7_M_headERS2_
FNDA:393,_ZNSt10_Head_baseILm0EP19MediaFileControllerLb0EE7_M_headERS2_
FN:233,_ZNSt10_Head_baseILm0EP18HardwareControllerLb0EE7_M_headERS2_
FNDA:346,_ZNSt10_Head_baseILm0EP18HardwareControllerLb0EE7_M_headERS2_
FN:233,_ZNSt10_Head_baseILm0EP26DetailedPlaylistControllerLb0EE7_M_headERS2_
FNDA:325,_ZNSt10_Head_baseILm0EP26DetailedPlaylistControllerLb0EE7_M_headERS2_
FN:233,_ZNSt10_Head_baseILm0EP18MetadataControllerLb0EE7_M_headERS2_
FNDA:318,_ZNSt10_Head_baseILm0EP18MetadataControllerLb0EE7_M_headERS2_
FN:236,_ZNSt10_Head_baseILm0EPN5boost6system6detail12std_categoryELb0EE7_M_headERKS5_
FNDA:0,_ZNSt10_Head_baseILm0EPN5boost6system6detail12std_categoryELb0EE7_M_headERKS5_
FN:236,_ZNSt10_Head_baseILm0EP14BaseControllerLb0EE7_M_headERKS2_
FNDA:16,_ZNSt10_Head_baseILm0EP14BaseControllerLb0EE7_M_headERKS2_
FN:268,_ZNSt11_Tuple_implILm0EJP18MetadataControllerSt14default_deleteIS0_EEE7_M_headERS4_
FNDA:318,_ZNSt11_Tuple_implILm0EJP18MetadataControllerSt14default_deleteIS0_EEE7_M_headERS4_
FN:268,_ZNSt11_Tuple_implILm0EJP14BaseControllerSt14default_deleteIS0_EEE7_M_headERS4_
FNDA:2606,_ZNSt11_Tuple_implILm0EJP14BaseControllerSt14default_deleteIS0_EEE7_M_headERS4_
FN:268,_ZNSt11_Tuple_implILm0EJP26DetailedPlaylistControllerSt14default_deleteIS0_EEE7_M_headERS4_
FNDA:325,_ZNSt11_Tuple_implILm0EJP26DetailedPlaylistControllerSt14default_deleteIS0_EEE7_M_headERS4_
FN:268,_ZNSt11_Tuple_implILm0EJP18HardwareControllerSt14default_deleteIS0_EEE7_M_headERS4_
FNDA:346,_ZNSt11_Tuple_implILm0EJP18HardwareControllerSt14default_deleteIS0_EEE7_M_headERS4_
FN:268,_ZNSt11_Tuple_implILm0EJP22PlayingMediaControllerSt14default_deleteIS0_EEE7_M_headERS4_
FNDA:381,_ZNSt11_Tuple_implILm0EJP22PlayingMediaControllerSt14default_deleteIS0_EEE7_M_headERS4_
FN:268,_ZNSt11_Tuple_implILm0EJP19MediaFileControllerSt14default_deleteIS0_EEE7_M_headERS4_
FNDA:393,_ZNSt11_Tuple_implILm0EJP19MediaFileControllerSt14default_deleteIS0_EEE7_M_headERS4_
FN:268,_ZNSt11_Tuple_implILm0EJPNSt10filesystem7__cxx114path5_List5_ImplENS3_13_Impl_deleterEEE7_M_headERS7_
FNDA:324,_ZNSt11_Tuple_implILm0EJPNSt10filesystem7__cxx114path5_List5_ImplENS3_13_Impl_deleterEEE7_M_headERS7_
FN:268,_ZNSt11_Tuple_implILm0EJP18PlaylistControllerSt14default_deleteIS0_EEE7_M_headERS4_
FNDA:304,_ZNSt11_Tuple_implILm0EJP18PlaylistControllerSt14default_deleteIS0_EEE7_M_headERS4_
FN:268,_ZNSt11_Tuple_implILm0EJPN5boost6system6detail12std_categoryESt14default_deleteIS3_EEE7_M_headERS7_
FNDA:0,_ZNSt11_Tuple_implILm0EJPN5boost6system6detail12std_categoryESt14default_deleteIS3_EEE7_M_headERS7_
FN:268,_ZNSt11_Tuple_implILm0EJP21ScanfOptionControllerSt14default_deleteIS0_EEE7_M_headERS4_
FNDA:381,_ZNSt11_Tuple_implILm0EJP21ScanfOptionControllerSt14default_deleteIS0_EEE7_M_headERS4_
FN:268,_ZNSt11_Tuple_implILm0EJP18MainMenuControllerSt14default_deleteIS0_EEE7_M_headERS4_
FNDA:283,_ZNSt11_Tuple_implILm0EJP18MainMenuControllerSt14default_deleteIS0_EEE7_M_headERS4_
FN:271,_ZNSt11_Tuple_implILm0EJPN5boost6system6detail12std_categoryESt14default_deleteIS3_EEE7_M_headERKS7_
FNDA:0,_ZNSt11_Tuple_implILm0EJPN5boost6system6detail12std_categoryESt14default_deleteIS3_EEE7_M_headERKS7_
FN:271,_ZNSt11_Tuple_implILm0EJP14BaseControllerSt14default_deleteIS0_EEE7_M_headERKS4_
FNDA:16,_ZNSt11_Tuple_implILm0EJP14BaseControllerSt14default_deleteIS0_EEE7_M_headERKS4_
FN:279,_ZNSt11_Tuple_implILm0EJP19MediaFileControllerSt14default_deleteIS0_EEEC2Ev
FNDA:96,_ZNSt11_Tuple_implILm0EJP19MediaFileControllerSt14default_deleteIS0_EEEC2Ev
FN:279,_ZNSt11_Tuple_implILm0EJPN5boost6system6detail12std_categoryESt14default_deleteIS3_EEEC2Ev
FNDA:0,_ZNSt11_Tuple_implILm0EJPN5boost6system6detail12std_categoryESt14default_deleteIS3_EEEC2Ev
FN:279,_ZNSt11_Tuple_implILm0EJP22PlayingMediaControllerSt14default_deleteIS0_EEEC2Ev
FNDA:99,_ZNSt11_Tuple_implILm0EJP22PlayingMediaControllerSt14default_deleteIS0_EEEC2Ev
FN:279,_ZNSt11_Tuple_implILm0EJP14BaseControllerSt14default_deleteIS0_EEEC2Ev
FNDA:0,_ZNSt11_Tuple_implILm0EJP14BaseControllerSt14default_deleteIS0_EEEC2Ev
FN:279,_ZNSt11_Tuple_implILm0EJP18PlaylistControllerSt14default_deleteIS0_EEEC2Ev
FNDA:77,_ZNSt11_Tuple_implILm0EJP18PlaylistControllerSt14default_deleteIS0_EEEC2Ev
FN:279,_ZNSt11_Tuple_implILm0EJP18MainMenuControllerSt14default_deleteIS0_EEEC2Ev
FNDA:71,_ZNSt11_Tuple_implILm0EJP18MainMenuControllerSt14default_deleteIS0_EEEC2Ev
FN:279,_ZNSt11_Tuple_implILm0EJP26DetailedPlaylistControllerSt14default_deleteIS0_EEEC2Ev
FNDA:83,_ZNSt11_Tuple_implILm0EJP26DetailedPlaylistControllerSt14default_deleteIS0_EEEC2Ev
FN:279,_ZNSt11_Tuple_implILm0EJP18MetadataControllerSt14default_deleteIS0_EEEC2Ev
FNDA:81,_ZNSt11_Tuple_implILm0EJP18MetadataControllerSt14default_deleteIS0_EEEC2Ev
FN:279,_ZNSt11_Tuple_implILm0EJP21ScanfOptionControllerSt14default_deleteIS0_EEEC2Ev
FNDA:99,_ZNSt11_Tuple_implILm0EJP21ScanfOptionControllerSt14default_deleteIS0_EEEC2Ev
FN:279,_ZNSt11_Tuple_implILm0EJP18HardwareControllerSt14default_deleteIS0_EEEC2Ev
FNDA:89,_ZNSt11_Tuple_implILm0EJP18HardwareControllerSt14default_deleteIS0_EEEC2Ev
FN:290,_ZNSt11_Tuple_implILm0EJP14BaseControllerSt14default_deleteIS0_EEEC2IRS1_JS2_I26DetailedPlaylistControllerEEvEEOT_DpOT0_
FNDA:69,_ZNSt11_Tuple_implILm0EJP14BaseControllerSt14default_deleteIS0_EEEC2IRS1_JS2_I26DetailedPlaylistControllerEEvEEOT_DpOT0_
FN:290,_ZNSt11_Tuple_implILm0EJP14BaseControllerSt14default_deleteIS0_EEEC2IRS1_JS2_I22PlayingMediaControllerEEvEEOT_DpOT0_
FNDA:69,_ZNSt11_Tuple_implILm0EJP14BaseControllerSt14default_deleteIS0_EEEC2IRS1_JS2_I22PlayingMediaControllerEEvEEOT_DpOT0_
FN:290,_ZNSt11_Tuple_implILm0EJP14BaseControllerSt14default_deleteIS0_EEEC2IRS1_JS2_I19MediaFileControllerEEvEEOT_DpOT0_
FNDA:69,_ZNSt11_Tuple_implILm0EJP14BaseControllerSt14default_deleteIS0_EEEC2IRS1_JS2_I19MediaFileControllerEEvEEOT_DpOT0_
FN:290,_ZNSt11_Tuple_implILm0EJP14BaseControllerSt14default_deleteIS0_EEEC2IRS1_JS2_I18MetadataControllerEEvEEOT_DpOT0_
FNDA:69,_ZNSt11_Tuple_implILm0EJP14BaseControllerSt14default_deleteIS0_EEEC2IRS1_JS2_I18MetadataControllerEEvEEOT_DpOT0_
FN:290,_ZNSt11_Tuple_implILm0EJP14BaseControllerSt14default_deleteIS0_EEEC2IRS1_JS2_I18PlaylistControllerEEvEEOT_DpOT0_
FNDA:69,_ZNSt11_Tuple_implILm0EJP14BaseControllerSt14default_deleteIS0_EEEC2IRS1_JS2_I18PlaylistControllerEEvEEOT_DpOT0_
FN:290,_ZNSt11_Tuple_implILm0EJP14BaseControllerSt14default_deleteIS0_EEEC2IRS1_JS2_I18MainMenuControllerEEvEEOT_DpOT0_
FNDA:69,_ZNSt11_Tuple_implILm0EJP14BaseControllerSt14default_deleteIS0_EEEC2IRS1_JS2_I18MainMenuControllerEEvEEOT_DpOT0_
FN:290,_ZNSt11_Tuple_implILm0EJP14BaseControllerSt14default_deleteIS0_EEEC2IRS1_JS2_I21ScanfOptionControllerEEvEEOT_DpOT0_
FNDA:69,_ZNSt11_Tuple_implILm0EJP14BaseControllerSt14default_deleteIS0_EEEC2IRS1_JS2_I21ScanfOptionControllerEEvEEOT_DpOT0_
FN:290,_ZNSt11_Tuple_implILm0EJP14BaseControllerSt14default_deleteIS0_EEEC2IRS1_JS2_I18HardwareControllerEEvEEOT_DpOT0_
FNDA:69,_ZNSt11_Tuple_implILm0EJP14BaseControllerSt14default_deleteIS0_EEEC2IRS1_JS2_I18HardwareControllerEEvEEOT_DpOT0_
FN:301,_ZNSt11_Tuple_implILm0EJP14BaseControllerSt14default_deleteIS0_EEEC2EOS4_
FNDA:1035,_ZNSt11_Tuple_implILm0EJP14BaseControllerSt14default_deleteIS0_EEEC2EOS4_
FN:301,_ZNSt11_Tuple_implILm0EJPN5boost6system6detail12std_categoryESt14default_deleteIS3_EEEC2EOS7_
FNDA:0,_ZNSt11_Tuple_implILm0EJPN5boost6system6detail12std_categoryESt14default_deleteIS3_EEEC2EOS7_
FN:424,_ZNSt11_Tuple_implILm1EJSt14default_deleteI22PlayingMediaControllerEEE7_M_headERS3_
FNDA:114,_ZNSt11_Tuple_implILm1EJSt14default_deleteI22PlayingMediaControllerEEE7_M_headERS3_
FN:424,_ZNSt11_Tuple_implILm1EJSt14default_deleteI18PlaylistControllerEEE7_M_headERS3_
FNDA:81,_ZNSt11_Tuple_implILm1EJSt14default_deleteI18PlaylistControllerEEE7_M_headERS3_
FN:424,_ZNSt11_Tuple_implILm1EJSt14default_deleteI21ScanfOptionControllerEEE7_M_headERS3_
FNDA:114,_ZNSt11_Tuple_implILm1EJSt14default_deleteI21ScanfOptionControllerEEE7_M_headERS3_
FN:424,_ZNSt11_Tuple_implILm1EJSt14default_deleteI26DetailedPlaylistControllerEEE7_M_headERS3_
FNDA:90,_ZNSt11_Tuple_implILm1EJSt14default_deleteI26DetailedPlaylistControllerEEE7_M_headERS3_
FN:424,_ZNSt11_Tuple_implILm1EJNSt10filesystem7__cxx114path5_List13_Impl_deleterEEE7_M_headERS5_
FNDA:324,_ZNSt11_Tuple_implILm1EJNSt10filesystem7__cxx114path5_List13_Impl_deleterEEE7_M_headERS5_
FN:424,_ZNSt11_Tuple_implILm1EJSt14default_deleteI19MediaFileControllerEEE7_M_headERS3_
FNDA:123,_ZNSt11_Tuple_implILm1EJSt14default_deleteI19MediaFileControllerEEE7_M_headERS3_
FN:424,_ZNSt11_Tuple_implILm1EJSt14default_deleteI14BaseControllerEEE7_M_headERS3_
FNDA:536,_ZNSt11_Tuple_implILm1EJSt14default_deleteI14BaseControllerEEE7_M_headERS3_
FN:424,_ZNSt11_Tuple_implILm1EJSt14default_deleteI18MainMenuControllerEEE7_M_headERS3_
FNDA:72,_ZNSt11_Tuple_implILm1EJSt14default_deleteI18MainMenuControllerEEE7_M_headERS3_
FN:424,_ZNSt11_Tuple_implILm1EJSt14default_deleteIN5boost6system6detail12std_categoryEEEE7_M_headERS6_
FNDA:0,_ZNSt11_Tuple_implILm1EJSt14default_deleteIN5boost6system6detail12std_categoryEEEE7_M_headERS6_
FN:424,_ZNSt11_Tuple_implILm1EJSt14default_deleteI18MetadataControllerEEE7_M_headERS3_
FNDA:87,_ZNSt11_Tuple_implILm1EJSt14default_deleteI18MetadataControllerEEE7_M_headERS3_
FN:424,_ZNSt11_Tuple_implILm1EJSt14default_deleteI18HardwareControllerEEE7_M_headERS3_
FNDA:99,_ZNSt11_Tuple_implILm1EJSt14default_deleteI18HardwareControllerEEE7_M_headERS3_
FN:430,_ZNSt11_Tuple_implILm1EJSt14default_deleteI21ScanfOptionControllerEEEC2Ev
FNDA:99,_ZNSt11_Tuple_implILm1EJSt14default_deleteI21ScanfOptionControllerEEEC2Ev
FN:430,_ZNSt11_Tuple_implILm1EJSt14default_deleteI18MainMenuControllerEEEC2Ev
FNDA:71,_ZNSt11_Tuple_implILm1EJSt14default_deleteI18MainMenuControllerEEEC2Ev
FN:430,_ZNSt11_Tuple_implILm1EJSt14default_deleteI18PlaylistControllerEEEC2Ev
FNDA:77,_ZNSt11_Tuple_implILm1EJSt14default_deleteI18PlaylistControllerEEEC2Ev
FN:430,_ZNSt11_Tuple_implILm1EJSt14default_deleteI18MetadataControllerEEEC2Ev
FNDA:81,_ZNSt11_Tuple_implILm1EJSt14default_deleteI18MetadataControllerEEEC2Ev
FN:430,_ZNSt11_Tuple_implILm1EJSt14default_deleteI19MediaFileControllerEEEC2Ev
FNDA:96,_ZNSt11_Tuple_implILm1EJSt14default_deleteI19MediaFileControllerEEEC2Ev
FN:430,_ZNSt11_Tuple_implILm1EJSt14default_deleteI18HardwareControllerEEEC2Ev
FNDA:89,_ZNSt11_Tuple_implILm1EJSt14default_deleteI18HardwareControllerEEEC2Ev
FN:430,_ZNSt11_Tuple_implILm1EJSt14default_deleteI14BaseControllerEEEC2Ev
FNDA:0,_ZNSt11_Tuple_implILm1EJSt14default_deleteI14BaseControllerEEEC2Ev
FN:430,_ZNSt11_Tuple_implILm1EJSt14default_deleteI22PlayingMediaControllerEEEC2Ev
FNDA:99,_ZNSt11_Tuple_implILm1EJSt14default_deleteI22PlayingMediaControllerEEEC2Ev
FN:430,_ZNSt11_Tuple_implILm1EJSt14default_deleteIN5boost6system6detail12std_categoryEEEEC2Ev
FNDA:0,_ZNSt11_Tuple_implILm1EJSt14default_deleteIN5boost6system6detail12std_categoryEEEEC2Ev
FN:430,_ZNSt11_Tuple_implILm1EJSt14default_deleteI26DetailedPlaylistControllerEEEC2Ev
FNDA:83,_ZNSt11_Tuple_implILm1EJSt14default_deleteI26DetailedPlaylistControllerEEEC2Ev
FN:440,_ZNSt11_Tuple_implILm1EJSt14default_deleteI14BaseControllerEEEC2IS0_I18MetadataControllerEEEOT_
FNDA:69,_ZNSt11_Tuple_implILm1EJSt14default_deleteI14BaseControllerEEEC2IS0_I18MetadataControllerEEEOT_
FN:440,_ZNSt11_Tuple_implILm1EJSt14default_deleteI14BaseControllerEEEC2IS0_I18HardwareControllerEEEOT_
FNDA:69,_ZNSt11_Tuple_implILm1EJSt14default_deleteI14BaseControllerEEEC2IS0_I18HardwareControllerEEEOT_
FN:440,_ZNSt11_Tuple_implILm1EJSt14default_deleteI14BaseControllerEEEC2IS0_I18MainMenuControllerEEEOT_
FNDA:69,_ZNSt11_Tuple_implILm1EJSt14default_deleteI14BaseControllerEEEC2IS0_I18MainMenuControllerEEEOT_
FN:440,_ZNSt11_Tuple_implILm1EJSt14default_deleteI14BaseControllerEEEC2IS0_I18PlaylistControllerEEEOT_
FNDA:69,_ZNSt11_Tuple_implILm1EJSt14default_deleteI14BaseControllerEEEC2IS0_I18PlaylistControllerEEEOT_
FN:440,_ZNSt11_Tuple_implILm1EJSt14default_deleteI14BaseControllerEEEC2IS0_I26DetailedPlaylistControllerEEEOT_
FNDA:69,_ZNSt11_Tuple_implILm1EJSt14default_deleteI14BaseControllerEEEC2IS0_I26DetailedPlaylistControllerEEEOT_
FN:440,_ZNSt11_Tuple_implILm1EJSt14default_deleteI14BaseControllerEEEC2IS0_I22PlayingMediaControllerEEEOT_
FNDA:69,_ZNSt11_Tuple_implILm1EJSt14default_deleteI14BaseControllerEEEC2IS0_I22PlayingMediaControllerEEEOT_
FN:440,_ZNSt11_Tuple_implILm1EJSt14default_deleteI14BaseControllerEEEC2IS0_I19MediaFileControllerEEEOT_
FNDA:69,_ZNSt11_Tuple_implILm1EJSt14default_deleteI14BaseControllerEEEC2IS0_I19MediaFileControllerEEEOT_
FN:440,_ZNSt11_Tuple_implILm1EJSt14default_deleteI14BaseControllerEEEC2IS0_I21ScanfOptionControllerEEEOT_
FNDA:69,_ZNSt11_Tuple_implILm1EJSt14default_deleteI14BaseControllerEEEC2IS0_I21ScanfOptionControllerEEEOT_
FN:454,_ZNSt11_Tuple_implILm1EJSt14default_deleteI14BaseControllerEEEC2EOS3_
FNDA:1035,_ZNSt11_Tuple_implILm1EJSt14default_deleteI14BaseControllerEEEC2EOS3_
FN:454,_ZNSt11_Tuple_implILm1EJSt14default_deleteIN5boost6system6detail12std_categoryEEEEC2EOS6_
FNDA:0,_ZNSt11_Tuple_implILm1EJSt14default_deleteIN5boost6system6detail12std_categoryEEEEC2EOS6_
FN:1049,_ZNSt5tupleIJP18MainMenuControllerSt14default_deleteIS0_EEEC2ILb1ELb1EEEv
FNDA:71,_ZNSt5tupleIJP18MainMenuControllerSt14default_deleteIS0_EEEC2ILb1ELb1EEEv
FN:1049,_ZNSt5tupleIJP22PlayingMediaControllerSt14default_deleteIS0_EEEC2ILb1ELb1EEEv
FNDA:99,_ZNSt5tupleIJP22PlayingMediaControllerSt14default_deleteIS0_EEEC2ILb1ELb1EEEv
FN:1049,_ZNSt5tupleIJP26DetailedPlaylistControllerSt14default_deleteIS0_EEEC2ILb1ELb1EEEv
FNDA:83,_ZNSt5tupleIJP26DetailedPlaylistControllerSt14default_deleteIS0_EEEC2ILb1ELb1EEEv
FN:1049,_ZNSt5tupleIJP19MediaFileControllerSt14default_deleteIS0_EEEC2ILb1ELb1EEEv
FNDA:96,_ZNSt5tupleIJP19MediaFileControllerSt14default_deleteIS0_EEEC2ILb1ELb1EEEv
FN:1049,_ZNSt5tupleIJP18MetadataControllerSt14default_deleteIS0_EEEC2ILb1ELb1EEEv
FNDA:81,_ZNSt5tupleIJP18MetadataControllerSt14default_deleteIS0_EEEC2ILb1ELb1EEEv
FN:1049,_ZNSt5tupleIJP18PlaylistControllerSt14default_deleteIS0_EEEC2ILb1ELb1EEEv
FNDA:77,_ZNSt5tupleIJP18PlaylistControllerSt14default_deleteIS0_EEEC2ILb1ELb1EEEv
FN:1049,_ZNSt5tupleIJP18HardwareControllerSt14default_deleteIS0_EEEC2ILb1ELb1EEEv
FNDA:89,_ZNSt5tupleIJP18HardwareControllerSt14default_deleteIS0_EEEC2ILb1ELb1EEEv
FN:1049,_ZNSt5tupleIJPN5boost6system6detail12std_categoryESt14default_deleteIS3_EEEC2ILb1ELb1EEEv
FNDA:0,_ZNSt5tupleIJPN5boost6system6detail12std_categoryESt14default_deleteIS3_EEEC2ILb1ELb1EEEv
FN:1049,_ZNSt5tupleIJP21ScanfOptionControllerSt14default_deleteIS0_EEEC2ILb1ELb1EEEv
FNDA:99,_ZNSt5tupleIJP21ScanfOptionControllerSt14default_deleteIS0_EEEC2ILb1ELb1EEEv
FN:1049,_ZNSt5tupleIJP14BaseControllerSt14default_deleteIS0_EEEC2ILb1ELb1EEEv
FNDA:0,_ZNSt5tupleIJP14BaseControllerSt14default_deleteIS0_EEEC2ILb1ELb1EEEv
FN:1077,_ZNSt5tupleIJP14BaseControllerSt14default_deleteIS0_EEEC2IRS1_S2_I18MetadataControllerELb1EEEOT_OT0_
FNDA:69,_ZNSt5tupleIJP14BaseControllerSt14default_deleteIS0_EEEC2IRS1_S2_I18MetadataControllerELb1EEEOT_OT0_
FN:1077,_ZNSt5tupleIJP14BaseControllerSt14default_deleteIS0_EEEC2IRS1_S2_I18HardwareControllerELb1EEEOT_OT0_
FNDA:69,_ZNSt5tupleIJP14BaseControllerSt14default_deleteIS0_EEEC2IRS1_S2_I18HardwareControllerELb1EEEOT_OT0_
FN:1077,_ZNSt5tupleIJP14BaseControllerSt14default_deleteIS0_EEEC2IRS1_S2_I26DetailedPlaylistControllerELb1EEEOT_OT0_
FNDA:69,_ZNSt5tupleIJP14BaseControllerSt14default_deleteIS0_EEEC2IRS1_S2_I26DetailedPlaylistControllerELb1EEEOT_OT0_
FN:1077,_ZNSt5tupleIJP14BaseControllerSt14default_deleteIS0_EEEC2IRS1_S2_I22PlayingMediaControllerELb1EEEOT_OT0_
FNDA:69,_ZNSt5tupleIJP14BaseControllerSt14default_deleteIS0_EEEC2IRS1_S2_I22PlayingMediaControllerELb1EEEOT_OT0_
FN:1077,_ZNSt5tupleIJP14BaseControllerSt14default_deleteIS0_EEEC2IRS1_S2_I19MediaFileControllerELb1EEEOT_OT0_
FNDA:69,_ZNSt5tupleIJP14BaseControllerSt14default_deleteIS0_EEEC2IRS1_S2_I19MediaFileControllerELb1EEEOT_OT0_
FN:1077,_ZNSt5tupleIJP14BaseControllerSt14default_deleteIS0_EEEC2IRS1_S2_I18PlaylistControllerELb1EEEOT_OT0_
FNDA:69,_ZNSt5tupleIJP14BaseControllerSt14default_deleteIS0_EEEC2IRS1_S2_I18PlaylistControllerELb1EEEOT_OT0_
FN:1077,_ZNSt5tupleIJP14BaseControllerSt14default_deleteIS0_EEEC2IRS1_S2_I21ScanfOptionControllerELb1EEEOT_OT0_
FNDA:69,_ZNSt5tupleIJP14BaseControllerSt14default_deleteIS0_EEEC2IRS1_S2_I21ScanfOptionControllerELb1EEEOT_OT0_
FN:1077,_ZNSt5tupleIJP14BaseControllerSt14default_deleteIS0_EEEC2IRS1_S2_I18MainMenuControllerELb1EEEOT_OT0_
FNDA:69,_ZNSt5tupleIJP14BaseControllerSt14default_deleteIS0_EEEC2IRS1_S2_I18MainMenuControllerELb1EEEOT_OT0_
FN:1090,_ZNSt5tupleIJP14BaseControllerSt14default_deleteIS0_EEEC2EOS4_
FNDA:1035,_ZNSt5tupleIJP14BaseControllerSt14default_deleteIS0_EEEC2EOS4_
FN:1090,_ZNSt5tupleIJPN5boost6system6detail12std_categoryESt14default_deleteIS3_EEEC2EOS7_
FNDA:0,_ZNSt5tupleIJPN5boost6system6detail12std_categoryESt14default_deleteIS3_EEEC2EOS7_
FN:1377,_ZSt12__get_helperILm1ESt14default_deleteIN5boost6system6detail12std_categoryEEJEERT0_RSt11_Tuple_implIXT_EJS6_DpT1_EE
FNDA:0,_ZSt12__get_helperILm1ESt14default_deleteIN5boost6system6detail12std_categoryEEJEERT0_RSt11_Tuple_implIXT_EJS6_DpT1_EE
FN:1377,_ZSt12__get_helperILm0EP18MainMenuControllerJSt14default_deleteIS0_EEERT0_RSt11_Tuple_implIXT_EJS4_DpT1_EE
FNDA:283,_ZSt12__get_helperILm0EP18MainMenuControllerJSt14default_deleteIS0_EEERT0_RSt11_Tuple_implIXT_EJS4_DpT1_EE
FN:1377,_ZSt12__get_helperILm1ESt14default_deleteI18MetadataControllerEJEERT0_RSt11_Tuple_implIXT_EJS3_DpT1_EE
FNDA:87,_ZSt12__get_helperILm1ESt14default_deleteI18MetadataControllerEJEERT0_RSt11_Tuple_implIXT_EJS3_DpT1_EE
FN:1377,_ZSt12__get_helperILm0EPN5boost6system6detail12std_categoryEJSt14default_deleteIS3_EEERT0_RSt11_Tuple_implIXT_EJS7_DpT1_EE
FNDA:0,_ZSt12__get_helperILm0EPN5boost6system6detail12std_categoryEJSt14default_deleteIS3_EEERT0_RSt11_Tuple_implIXT_EJS7_DpT1_EE
FN:1377,_ZSt12__get_helperILm1ENSt10filesystem7__cxx114path5_List13_Impl_deleterEJEERT0_RSt11_Tuple_implIXT_EJS5_DpT1_EE
FNDA:324,_ZSt12__get_helperILm1ENSt10filesystem7__cxx114path5_List13_Impl_deleterEJEERT0_RSt11_Tuple_implIXT_EJS5_DpT1_EE
FN:1377,_ZSt12__get_helperILm0EPNSt10filesystem7__cxx114path5_List5_ImplEJNS3_13_Impl_deleterEEERT0_RSt11_Tuple_implIXT_EJS7_DpT1_EE
FNDA:324,_ZSt12__get_helperILm0EPNSt10filesystem7__cxx114path5_List5_ImplEJNS3_13_Impl_deleterEEERT0_RSt11_Tuple_implIXT_EJS7_DpT1_EE
FN:1377,_ZSt12__get_helperILm1ESt14default_deleteI18HardwareControllerEJEERT0_RSt11_Tuple_implIXT_EJS3_DpT1_EE
FNDA:99,_ZSt12__get_helperILm1ESt14default_deleteI18HardwareControllerEJEERT0_RSt11_Tuple_implIXT_EJS3_DpT1_EE
FN:1377,_ZSt12__get_helperILm1ESt14default_deleteI26DetailedPlaylistControllerEJEERT0_RSt11_Tuple_implIXT_EJS3_DpT1_EE
FNDA:90,_ZSt12__get_helperILm1ESt14default_deleteI26DetailedPlaylistControllerEJEERT0_RSt11_Tuple_implIXT_EJS3_DpT1_EE
FN:1377,_ZSt12__get_helperILm1ESt14default_deleteI22PlayingMediaControllerEJEERT0_RSt11_Tuple_implIXT_EJS3_DpT1_EE
FNDA:114,_ZSt12__get_helperILm1ESt14default_deleteI22PlayingMediaControllerEJEERT0_RSt11_Tuple_implIXT_EJS3_DpT1_EE
FN:1377,_ZSt12__get_helperILm0EP14BaseControllerJSt14default_deleteIS0_EEERT0_RSt11_Tuple_implIXT_EJS4_DpT1_EE
FNDA:2606,_ZSt12__get_helperILm0EP14BaseControllerJSt14default_deleteIS0_EEERT0_RSt11_Tuple_implIXT_EJS4_DpT1_EE
FN:1377,_ZSt12__get_helperILm1ESt14default_deleteI18MainMenuControllerEJEERT0_RSt11_Tuple_implIXT_EJS3_DpT1_EE
FNDA:72,_ZSt12__get_helperILm1ESt14default_deleteI18MainMenuControllerEJEERT0_RSt11_Tuple_implIXT_EJS3_DpT1_EE
FN:1377,_ZSt12__get_helperILm0EP21ScanfOptionControllerJSt14default_deleteIS0_EEERT0_RSt11_Tuple_implIXT_EJS4_DpT1_EE
FNDA:381,_ZSt12__get_helperILm0EP21ScanfOptionControllerJSt14default_deleteIS0_EEERT0_RSt11_Tuple_implIXT_EJS4_DpT1_EE
FN:1377,_ZSt12__get_helperILm1ESt14default_deleteI14BaseControllerEJEERT0_RSt11_Tuple_implIXT_EJS3_DpT1_EE
FNDA:536,_ZSt12__get_helperILm1ESt14default_deleteI14BaseControllerEJEERT0_RSt11_Tuple_implIXT_EJS3_DpT1_EE
FN:1377,_ZSt12__get_helperILm0EP18HardwareControllerJSt14default_deleteIS0_EEERT0_RSt11_Tuple_implIXT_EJS4_DpT1_EE
FNDA:346,_ZSt12__get_helperILm0EP18HardwareControllerJSt14default_deleteIS0_EEERT0_RSt11_Tuple_implIXT_EJS4_DpT1_EE
FN:1377,_ZSt12__get_helperILm0EP18PlaylistControllerJSt14default_deleteIS0_EEERT0_RSt11_Tuple_implIXT_EJS4_DpT1_EE
FNDA:304,_ZSt12__get_helperILm0EP18PlaylistControllerJSt14default_deleteIS0_EEERT0_RSt11_Tuple_implIXT_EJS4_DpT1_EE
FN:1377,_ZSt12__get_helperILm1ESt14default_deleteI21ScanfOptionControllerEJEERT0_RSt11_Tuple_implIXT_EJS3_DpT1_EE
FNDA:114,_ZSt12__get_helperILm1ESt14default_deleteI21ScanfOptionControllerEJEERT0_RSt11_Tuple_implIXT_EJS3_DpT1_EE
FN:1377,_ZSt12__get_helperILm1ESt14default_deleteI19MediaFileControllerEJEERT0_RSt11_Tuple_implIXT_EJS3_DpT1_EE
FNDA:123,_ZSt12__get_helperILm1ESt14default_deleteI19MediaFileControllerEJEERT0_RSt11_Tuple_implIXT_EJS3_DpT1_EE
FN:1377,_ZSt12__get_helperILm0EP18MetadataControllerJSt14default_deleteIS0_EEERT0_RSt11_Tuple_implIXT_EJS4_DpT1_EE
FNDA:318,_ZSt12__get_helperILm0EP18MetadataControllerJSt14default_deleteIS0_EEERT0_RSt11_Tuple_implIXT_EJS4_DpT1_EE
FN:1377,_ZSt12__get_helperILm0EP19MediaFileControllerJSt14default_deleteIS0_EEERT0_RSt11_Tuple_implIXT_EJS4_DpT1_EE
FNDA:393,_ZSt12__get_helperILm0EP19MediaFileControllerJSt14default_deleteIS0_EEERT0_RSt11_Tuple_implIXT_EJS4_DpT1_EE
FN:1377,_ZSt12__get_helperILm0EP26DetailedPlaylistControllerJSt14default_deleteIS0_EEERT0_RSt11_Tuple_implIXT_EJS4_DpT1_EE
FNDA:325,_ZSt12__get_helperILm0EP26DetailedPlaylistControllerJSt14default_deleteIS0_EEERT0_RSt11_Tuple_implIXT_EJS4_DpT1_EE
FN:1377,_ZSt12__get_helperILm0EP22PlayingMediaControllerJSt14default_deleteIS0_EEERT0_RSt11_Tuple_implIXT_EJS4_DpT1_EE
FNDA:381,_ZSt12__get_helperILm0EP22PlayingMediaControllerJSt14default_deleteIS0_EEERT0_RSt11_Tuple_implIXT_EJS4_DpT1_EE
FN:1377,_ZSt12__get_helperILm1ESt14default_deleteI18PlaylistControllerEJEERT0_RSt11_Tuple_implIXT_EJS3_DpT1_EE
FNDA:81,_ZSt12__get_helperILm1ESt14default_deleteI18PlaylistControllerEJEERT0_RSt11_Tuple_implIXT_EJS3_DpT1_EE
FN:1382,_ZSt12__get_helperILm0EPN5boost6system6detail12std_categoryEJSt14default_deleteIS3_EEERKT0_RKSt11_Tuple_implIXT_EJS7_DpT1_EE
FNDA:0,_ZSt12__get_helperILm0EPN5boost6system6detail12std_categoryEJSt14default_deleteIS3_EEERKT0_RKSt11_Tuple_implIXT_EJS7_DpT1_EE
FN:1382,_ZSt12__get_helperILm0EP14BaseControllerJSt14default_deleteIS0_EEERKT0_RKSt11_Tuple_implIXT_EJS4_DpT1_EE
FNDA:16,_ZSt12__get_helperILm0EP14BaseControllerJSt14default_deleteIS0_EEERKT0_RKSt11_Tuple_implIXT_EJS4_DpT1_EE
FN:1393,_ZSt3getILm0EJP14BaseControllerSt14default_deleteIS0_EEERNSt13tuple_elementIXT_ESt5tupleIJDpT0_EEE4typeERS8_
FNDA:2606,_ZSt3getILm0EJP14BaseControllerSt14default_deleteIS0_EEERNSt13tuple_elementIXT_ESt5tupleIJDpT0_EEE4typeERS8_
FN:1393,_ZSt3getILm1EJP18MainMenuControllerSt14default_deleteIS0_EEERNSt13tuple_elementIXT_ESt5tupleIJDpT0_EEE4typeERS8_
FNDA:72,_ZSt3getILm1EJP18MainMenuControllerSt14default_deleteIS0_EEERNSt13tuple_elementIXT_ESt5tupleIJDpT0_EEE4typeERS8_
FN:1393,_ZSt3getILm1EJP14BaseControllerSt14default_deleteIS0_EEERNSt13tuple_elementIXT_ESt5tupleIJDpT0_EEE4typeERS8_
FNDA:536,_ZSt3getILm1EJP14BaseControllerSt14default_deleteIS0_EEERNSt13tuple_elementIXT_ESt5tupleIJDpT0_EEE4typeERS8_
FN:1393,_ZSt3getILm1EJPN5boost6system6detail12std_categoryESt14default_deleteIS3_EEERNSt13tuple_elementIXT_ESt5tupleIJDpT0_EEE4typeERSB_
FNDA:0,_ZSt3getILm1EJPN5boost6system6detail12std_categoryESt14default_deleteIS3_EEERNSt13tuple_elementIXT_ESt5tupleIJDpT0_EEE4typeERSB_
FN:1393,_ZSt3getILm0EJPNSt10filesystem7__cxx114path5_List5_ImplENS3_13_Impl_deleterEEERNSt13tuple_elementIXT_ESt5tupleIJDpT0_EEE4typeERSB_
FNDA:324,_ZSt3getILm0EJPNSt10filesystem7__cxx114path5_List5_ImplENS3_13_Impl_deleterEEERNSt13tuple_elementIXT_ESt5tupleIJDpT0_EEE4typeERSB_
FN:1393,_ZSt3getILm1EJPNSt10filesystem7__cxx114path5_List5_ImplENS3_13_Impl_deleterEEERNSt13tuple_elementIXT_ESt5tupleIJDpT0_EEE4typeERSB_
FNDA:324,_ZSt3getILm1EJPNSt10filesystem7__cxx114path5_List5_ImplENS3_13_Impl_deleterEEERNSt13tuple_elementIXT_ESt5tupleIJDpT0_EEE4typeERSB_
FN:1393,_ZSt3getILm1EJP18HardwareControllerSt14default_deleteIS0_EEERNSt13tuple_elementIXT_ESt5tupleIJDpT0_EEE4typeERS8_
FNDA:99,_ZSt3getILm1EJP18HardwareControllerSt14default_deleteIS0_EEERNSt13tuple_elementIXT_ESt5tupleIJDpT0_EEE4typeERS8_
FN:1393,_ZSt3getILm0EJPN5boost6system6detail12std_categoryESt14default_deleteIS3_EEERNSt13tuple_elementIXT_ESt5tupleIJDpT0_EEE4typeERSB_
FNDA:0,_ZSt3getILm0EJPN5boost6system6detail12std_categoryESt14default_deleteIS3_EEERNSt13tuple_elementIXT_ESt5tupleIJDpT0_EEE4typeERSB_
FN:1393,_ZSt3getILm1EJP21ScanfOptionControllerSt14default_deleteIS0_EEERNSt13tuple_elementIXT_ESt5tupleIJDpT0_EEE4typeERS8_
FNDA:114,_ZSt3getILm1EJP21ScanfOptionControllerSt14default_deleteIS0_EEERNSt13tuple_elementIXT_ESt5tupleIJDpT0_EEE4typeERS8_
FN:1393,_ZSt3getILm0EJP18MainMenuControllerSt14default_deleteIS0_EEERNSt13tuple_elementIXT_ESt5tupleIJDpT0_EEE4typeERS8_
FNDA:283,_ZSt3getILm0EJP18MainMenuControllerSt14default_deleteIS0_EEERNSt13tuple_elementIXT_ESt5tupleIJDpT0_EEE4typeERS8_
FN:1393,_ZSt3getILm1EJP18PlaylistControllerSt14default_deleteIS0_EEERNSt13tuple_elementIXT_ESt5tupleIJDpT0_EEE4typeERS8_
FNDA:81,_ZSt3getILm1EJP18PlaylistControllerSt14default_deleteIS0_EEERNSt13tuple_elementIXT_ESt5tupleIJDpT0_EEE4typeERS8_
FN:1393,_ZSt3getILm1EJP22PlayingMediaControllerSt14default_deleteIS0_EEERNSt13tuple_elementIXT_ESt5tupleIJDpT0_EEE4typeERS8_
FNDA:114,_ZSt3getILm1EJP22PlayingMediaControllerSt14default_deleteIS0_EEERNSt13tuple_elementIXT_ESt5tupleIJDpT0_EEE4typeERS8_
FN:1393,_ZSt3getILm0EJP21ScanfOptionControllerSt14default_deleteIS0_EEERNSt13tuple_elementIXT_ESt5tupleIJDpT0_EEE4typeERS8_
FNDA:381,_ZSt3getILm0EJP21ScanfOptionControllerSt14default_deleteIS0_EEERNSt13tuple_elementIXT_ESt5tupleIJDpT0_EEE4typeERS8_
FN:1393,_ZSt3getILm1EJP18MetadataControllerSt14default_deleteIS0_EEERNSt13tuple_elementIXT_ESt5tupleIJDpT0_EEE4typeERS8_
FNDA:87,_ZSt3getILm1EJP18MetadataControllerSt14default_deleteIS0_EEERNSt13tuple_elementIXT_ESt5tupleIJDpT0_EEE4typeERS8_
FN:1393,_ZSt3getILm0EJP18PlaylistControllerSt14default_deleteIS0_EEERNSt13tuple_elementIXT_ESt5tupleIJDpT0_EEE4typeERS8_
FNDA:304,_ZSt3getILm0EJP18PlaylistControllerSt14default_deleteIS0_EEERNSt13tuple_elementIXT_ESt5tupleIJDpT0_EEE4typeERS8_
FN:1393,_ZSt3getILm0EJP19MediaFileControllerSt14default_deleteIS0_EEERNSt13tuple_elementIXT_ESt5tupleIJDpT0_EEE4typeERS8_
FNDA:393,_ZSt3getILm0EJP19MediaFileControllerSt14default_deleteIS0_EEERNSt13tuple_elementIXT_ESt5tupleIJDpT0_EEE4typeERS8_
FN:1393,_ZSt3getILm1EJP26DetailedPlaylistControllerSt14default_deleteIS0_EEERNSt13tuple_elementIXT_ESt5tupleIJDpT0_EEE4typeERS8_
FNDA:90,_ZSt3getILm1EJP26DetailedPlaylistControllerSt14default_deleteIS0_EEERNSt13tuple_elementIXT_ESt5tupleIJDpT0_EEE4typeERS8_
FN:1393,_ZSt3getILm0EJP22PlayingMediaControllerSt14default_deleteIS0_EEERNSt13tuple_elementIXT_ESt5tupleIJDpT0_EEE4typeERS8_
FNDA:381,_ZSt3getILm0EJP22PlayingMediaControllerSt14default_deleteIS0_EEERNSt13tuple_elementIXT_ESt5tupleIJDpT0_EEE4typeERS8_
FN:1393,_ZSt3getILm1EJP19MediaFileControllerSt14default_deleteIS0_EEERNSt13tuple_elementIXT_ESt5tupleIJDpT0_EEE4typeERS8_
FNDA:123,_ZSt3getILm1EJP19MediaFileControllerSt14default_deleteIS0_EEERNSt13tuple_elementIXT_ESt5tupleIJDpT0_EEE4typeERS8_
FN:1393,_ZSt3getILm0EJP26DetailedPlaylistControllerSt14default_deleteIS0_EEERNSt13tuple_elementIXT_ESt5tupleIJDpT0_EEE4typeERS8_
FNDA:325,_ZSt3getILm0EJP26DetailedPlaylistControllerSt14default_deleteIS0_EEERNSt13tuple_elementIXT_ESt5tupleIJDpT0_EEE4typeERS8_
FN:1393,_ZSt3getILm0EJP18HardwareControllerSt14default_deleteIS0_EEERNSt13tuple_elementIXT_ESt5tupleIJDpT0_EEE4typeERS8_
FNDA:346,_ZSt3getILm0EJP18HardwareControllerSt14default_deleteIS0_EEERNSt13tuple_elementIXT_ESt5tupleIJDpT0_EEE4typeERS8_
FN:1393,_ZSt3getILm0EJP18MetadataControllerSt14default_deleteIS0_EEERNSt13tuple_elementIXT_ESt5tupleIJDpT0_EEE4typeERS8_
FNDA:318,_ZSt3getILm0EJP18MetadataControllerSt14default_deleteIS0_EEERNSt13tuple_elementIXT_ESt5tupleIJDpT0_EEE4typeERS8_
FN:1399,_ZSt3getILm0EJP14BaseControllerSt14default_deleteIS0_EEERKNSt13tuple_elementIXT_ESt5tupleIJDpT0_EEE4typeERKS8_
FNDA:16,_ZSt3getILm0EJP14BaseControllerSt14default_deleteIS0_EEERKNSt13tuple_elementIXT_ESt5tupleIJDpT0_EEE4typeERKS8_
FN:1399,_ZSt3getILm0EJPN5boost6system6detail12std_categoryESt14default_deleteIS3_EEERKNSt13tuple_elementIXT_ESt5tupleIJDpT0_EEE4typeERKSB_
FNDA:0,_ZSt3getILm0EJPN5boost6system6detail12std_categoryESt14default_deleteIS3_EEERKNSt13tuple_elementIXT_ESt5tupleIJDpT0_EEE4typeERKSB_
DA:80,89
DA:81,89
DA:80,81
DA:81,81
DA:80,83
DA:81,83
DA:80,99
DA:81,99
DA:80,96
DA:81,96
DA:80,77
DA:81,77
DA:80,99
DA:81,99
DA:80,71
DA:81,71
DA:80,0
DA:81,0
DA:80,0
DA:81,0
DA:90,69
DA:91,69
DA:90,69
DA:91,69
DA:90,69
DA:91,69
DA:90,69
DA:91,69
DA:90,69
DA:91,69
DA:90,69
DA:91,69
DA:90,69
DA:91,69
DA:90,69
DA:91,69
DA:124,99
DA:124,87
DA:124,90
DA:124,114
DA:124,123
DA:124,81
DA:124,114
DA:124,536
DA:124,72
DA:124,0
DA:124,324
DA:189,89
DA:190,89
DA:189,81
DA:190,81
DA:189,83
DA:190,83
DA:189,99
DA:190,99
DA:189,96
DA:190,96
DA:189,77
DA:190,77
DA:189,99
DA:190,99
DA:189,71
DA:190,71
DA:189,0
DA:190,0
DA:189,0
DA:190,0
DA:199,552
DA:200,552
DA:233,346
DA:233,318
DA:233,325
DA:233,381
DA:233,393
DA:233,304
DA:233,381
DA:233,2606
DA:233,283
DA:233,0
DA:233,324
DA:236,0
DA:236,16
DA:268,346
DA:268,318
DA:268,325
DA:268,381
DA:268,393
DA:268,304
DA:268,381
DA:268,2606
DA:268,283
DA:268,0
DA:268,324
DA:271,0
DA:271,16
DA:279,89
DA:280,89
DA:279,81
DA:280,81
DA:279,83
DA:280,83
DA:279,99
DA:280,99
DA:279,96
DA:280,96
DA:279,77
DA:280,77
DA:279,99
DA:280,99
DA:279,71
DA:280,71
DA:279,0
DA:280,0
DA:279,0
DA:280,0
DA:290,69
DA:292,69
DA:293,69
DA:290,69
DA:292,69
DA:293,69
DA:290,69
DA:292,69
DA:293,69
DA:290,69
DA:292,69
DA:293,69
DA:290,69
DA:292,69
DA:293,69
DA:290,69
DA:292,69
DA:293,69
DA:290,69
DA:292,69
DA:293,69
DA:290,69
DA:292,69
DA:293,69
DA:301,1035
DA:301,0
DA:424,99
DA:424,87
DA:424,90
DA:424,114
DA:424,123
DA:424,81
DA:424,114
DA:424,536
DA:424,72
DA:424,0
DA:424,324
DA:430,89
DA:431,89
DA:430,81
DA:431,81
DA:430,83
DA:431,83
DA:430,99
DA:431,99
DA:430,96
DA:431,96
DA:430,77
DA:431,77
DA:430,99
DA:431,99
DA:430,71
DA:431,71
DA:430,0
DA:431,0
DA:430,0
DA:431,0
DA:440,69
DA:441,69
DA:442,69
DA:440,69
DA:441,69
DA:442,69
DA:440,69
DA:441,69
DA:442,69
DA:440,69
DA:441,69
DA:442,69
DA:440,69
DA:441,69
DA:442,69
DA:440,69
DA:441,69
DA:442,69
DA:440,69
DA:441,69
DA:442,69
DA:440,69
DA:441,69
DA:442,69
DA:454,1035
DA:457,1035
DA:454,0
DA:457,0
DA:1049,89
DA:1051,89
DA:1049,81
DA:1051,81
DA:1049,83
DA:1051,83
DA:1049,99
DA:1051,99
DA:1049,96
DA:1051,96
DA:1049,77
DA:1051,77
DA:1049,99
DA:1051,99
DA:1049,71
DA:1051,71
DA:1049,0
DA:1051,0
DA:1049,0
DA:1051,0
DA:1077,69
DA:1079,69
DA:1077,69
DA:1079,69
DA:1077,69
DA:1079,69
DA:1077,69
DA:1079,69
DA:1077,69
DA:1079,69
DA:1077,69
DA:1079,69
DA:1077,69
DA:1079,69
DA:1077,69
DA:1079,69
DA:1090,1035
DA:1090,0
DA:1377,318
DA:1378,318
DA:1377,324
DA:1378,324
DA:1377,324
DA:1378,324
DA:1377,0
DA:1378,0
DA:1377,283
DA:1378,283
DA:1377,2606
DA:1378,2606
DA:1377,381
DA:1378,381
DA:1377,304
DA:1378,304
DA:1377,393
DA:1378,393
DA:1377,381
DA:1378,381
DA:1377,325
DA:1378,325
DA:1377,99
DA:1378,99
DA:1377,346
DA:1378,346
DA:1377,0
DA:1378,0
DA:1377,72
DA:1378,72
DA:1377,536
DA:1378,536
DA:1377,114
DA:1378,114
DA:1377,81
DA:1378,81
DA:1377,123
DA:1378,123
DA:1377,114
DA:1378,114
DA:1377,90
DA:1378,90
DA:1377,87
DA:1378,87
DA:1382,0
DA:1383,0
DA:1382,16
DA:1383,16
DA:1393,318
DA:1394,318
DA:1393,324
DA:1394,324
DA:1393,324
DA:1394,324
DA:1393,0
DA:1394,0
DA:1393,283
DA:1394,283
DA:1393,2606
DA:1394,2606
DA:1393,381
DA:1394,381
DA:1393,304
DA:1394,304
DA:1393,393
DA:1394,393
DA:1393,381
DA:1394,381
DA:1393,325
DA:1394,325
DA:1393,99
DA:1394,99
DA:1393,346
DA:1394,346
DA:1393,0
DA:1394,0
DA:1393,72
DA:1394,72
DA:1393,536
DA:1394,536
DA:1393,114
DA:1394,114
DA:1393,81
DA:1394,81
DA:1393,123
DA:1394,123
DA:1393,114
DA:1394,114
DA:1393,90
DA:1394,90
DA:1393,87
DA:1394,87
DA:1399,0
DA:1400,0
DA:1399,16
DA:1400,16
end_of_record
SF:/usr/include/x86_64-linux-gnu/c++/11/bits/gthr-default.h
FN:300,_ZL18__gthread_active_pv
FNDA:0,_ZL18__gthread_active_pv
FN:746,_ZL20__gthread_mutex_lockP15pthread_mutex_t
FNDA:0,_ZL20__gthread_mutex_lockP15pthread_mutex_t
FN:776,_ZL22__gthread_mutex_unlockP15pthread_mutex_t
FNDA:0,_ZL22__gthread_mutex_unlockP15pthread_mutex_t
DA:300,0
DA:302,0
DA:746,0
DA:748,0
DA:749,0
DA:751,0
DA:776,0
DA:778,0
DA:779,0
DA:781,0
end_of_record
SF:/usr/include/boost/asio/detail/call_stack.hpp
end_of_record
SF:/media/sf_Share_folder/UI/Spotify-rep-1-1/project/src/controller/ControllerManager.cpp
FN:7,_ZN17ControllerManagerC2EP11ViewManagerP12ModelManager
FNDA:69,_ZN17ControllerManagerC2EP11ViewManagerP12ModelManager
FN:27,_ZN17ControllerManager11getInstanceEP11ViewManagerP12ModelManager
FNDA:535,_ZN17ControllerManager11getInstanceEP11ViewManagerP12ModelManager
FN:39,_ZNK17ControllerManager21getMainMenuControllerEv
FNDA:2,_ZNK17ControllerManager21getMainMenuControllerEv
FN:44,_ZNK17ControllerManager24getScanfOptionControllerEv
FNDA:2,_ZNK17ControllerManager24getScanfOptionControllerEv
FN:49,_ZNK17ControllerManager21getPlaylistControllerEv
FNDA:2,_ZNK17ControllerManager21getPlaylistControllerEv
FN:54,_ZNK17ControllerManager22getMediaFileControllerEv
FNDA:2,_ZNK17ControllerManager22getMediaFileControllerEv
FN:59,_ZNK17ControllerManager25getPlayingMediaControllerEv
FNDA:2,_ZNK17ControllerManager25getPlayingMediaControllerEv
FN:64,_ZNK17ControllerManager29getDetailedPlaylistControllerEv
FNDA:2,_ZNK17ControllerManager29getDetailedPlaylistControllerEv
FN:69,_ZNK17ControllerManager21getMetadataControllerEv
FNDA:2,_ZNK17ControllerManager21getMetadataControllerEv
FN:74,_ZNK17ControllerManager21getHardwareControllerEv
FNDA:1,_ZNK17ControllerManager21getHardwareControllerEv
FN:83,_ZNK17ControllerManager14getViewManagerEv
FNDA:1,_ZNK17ControllerManager14getViewManagerEv
FN:88,_ZNK17ControllerManager15getModelManagerEv
FNDA:1,_ZNK17ControllerManager15getModelManagerEv
FN:92,_ZN17ControllerManager13resetInstanceEv
FNDA:1,_ZN17ControllerManager13resetInstanceEv
DA:7,69
DA:8,69
DA:9,69
DA:10,69
DA:11,69
DA:12,69
DA:13,69
DA:14,69
DA:15,69
DA:17,69
DA:18,69
DA:20,0
DA:22,69
DA:27,535
DA:28,535
DA:29,3
DA:30,1
DA:32,2
DA:34,534
DA:39,2
DA:40,2
DA:44,2
DA:45,2
DA:49,2
DA:50,2
DA:54,2
DA:55,2
DA:59,2
DA:60,2
DA:64,2
DA:65,2
DA:69,2
DA:70,2
DA:74,1
DA:75,1
DA:76,1
DA:78,0
DA:83,1
DA:84,1
DA:88,1
DA:89,1
DA:92,1
DA:94,1
DA:95,1
end_of_record
SF:/usr/include/c++/11/bits/vector.tcc
FN:109,_ZNSt6vectorISt10unique_ptrI14BaseControllerSt14default_deleteIS1_EESaIS4_EE12emplace_backIJS4_EEERS4_DpOT_
FNDA:552,_ZNSt6vectorISt10unique_ptrI14BaseControllerSt14default_deleteIS1_EESaIS4_EE12emplace_backIJS4_EEERS4_DpOT_
FN:426,_ZNSt6vectorISt10unique_ptrI14BaseControllerSt14default_deleteIS1_EESaIS4_EE17_M_realloc_insertIJS4_EEEvN9__gnu_cxx17__normal_iteratorIPS4_S6_EEDpOT_
FNDA:276,_ZNSt6vectorISt10unique_ptrI14BaseControllerSt14default_deleteIS1_EESaIS4_EE17_M_realloc_insertIJS4_EEEvN9__gnu_cxx17__normal_iteratorIPS4_S6_EEDpOT_
DA:109,552
DA:112,552
DA:115,276
DA:117,276
DA:121,276
DA:123,552
DA:426,276
DA:436,276
DA:437,276
DA:438,276
DA:439,276
DA:440,276
DA:441,276
DA:449,276
DA:450,276
DA:456,276
DA:461,276
DA:462,276
DA:464,276
DA:466,276
DA:467,276
DA:500,276
DA:501,276
DA:502,276
DA:503,276
DA:504,276
DA:505,276
end_of_record
SF:/usr/include/c++/11/iostream
end_of_record
SF:/usr/include/c++/11/bits/stl_function.h
FN:447,_ZNKSt4lessIPKcEclES1_S1_
FNDA:4976,_ZNKSt4lessIPKcEclES1_S1_
FN:447,_ZNKSt4lessIPKN5boost6system14error_categoryEEclES4_S4_
FNDA:0,_ZNKSt4lessIPKN5boost6system14error_categoryEEclES4_S4_
FN:1170,_ZNKSt10_Select1stISt4pairIKPKN5boost6system14error_categoryESt10unique_ptrINS2_6detail12std_categoryESt14default_deleteIS9_EEEEclERSD_
FNDA:0,_ZNKSt10_Select1stISt4pairIKPKN5boost6system14error_categoryESt10unique_ptrINS2_6detail12std_categoryESt14default_deleteIS9_EEEEclERSD_
FN:1174,_ZNKSt10_Select1stISt4pairIKPKN5boost6system14error_categoryESt10unique_ptrINS2_6detail12std_categoryESt14default_deleteIS9_EEEEclERKSD_
FNDA:0,_ZNKSt10_Select1stISt4pairIKPKN5boost6system14error_categoryESt10unique_ptrINS2_6detail12std_categoryESt14default_deleteIS9_EEEEclERKSD_
DA:447,4976
DA:457,4976
DA:447,0
DA:457,0
DA:1170,0
DA:1171,0
DA:1174,0
DA:1175,0
end_of_record
SF:/usr/include/c++/11/bits/stl_vector.h
FN:97,_ZNSt12_Vector_baseISt10unique_ptrI14BaseControllerSt14default_deleteIS1_EESaIS4_EE17_Vector_impl_dataC2Ev
FNDA:69,_ZNSt12_Vector_baseISt10unique_ptrI14BaseControllerSt14default_deleteIS1_EESaIS4_EE17_Vector_impl_dataC2Ev
FN:131,_ZNSt12_Vector_baseISt10unique_ptrI14BaseControllerSt14default_deleteIS1_EESaIS4_EE12_Vector_implC2Ev
FNDA:69,_ZNSt12_Vector_baseISt10unique_ptrI14BaseControllerSt14default_deleteIS1_EESaIS4_EE12_Vector_implC2Ev
FN:276,_ZNSt12_Vector_baseISt10unique_ptrI14BaseControllerSt14default_deleteIS1_EESaIS4_EE19_M_get_Tp_allocatorEv
FNDA:619,_ZNSt12_Vector_baseISt10unique_ptrI14BaseControllerSt14default_deleteIS1_EESaIS4_EE19_M_get_Tp_allocatorEv
FN:280,_ZNKSt12_Vector_baseISt10unique_ptrI14BaseControllerSt14default_deleteIS1_EESaIS4_EE19_M_get_Tp_allocatorEv
FNDA:552,_ZNKSt12_Vector_baseISt10unique_ptrI14BaseControllerSt14default_deleteIS1_EESaIS4_EE19_M_get_Tp_allocatorEv
FN:288,_ZNSt12_Vector_baseISt10unique_ptrI14BaseControllerSt14default_deleteIS1_EESaIS4_EEC2Ev
FNDA:69,_ZNSt12_Vector_baseISt10unique_ptrI14BaseControllerSt14default_deleteIS1_EESaIS4_EEC2Ev
FN:333,_ZNSt12_Vector_baseISt10unique_ptrI14BaseControllerSt14default_deleteIS1_EESaIS4_EED2Ev
FNDA:67,_ZNSt12_Vector_baseISt10unique_ptrI14BaseControllerSt14default_deleteIS1_EESaIS4_EED2Ev
FN:343,_ZNSt12_Vector_baseISt10unique_ptrI14BaseControllerSt14default_deleteIS1_EESaIS4_EE11_M_allocateEm
FNDA:276,_ZNSt12_Vector_baseISt10unique_ptrI14BaseControllerSt14default_deleteIS1_EESaIS4_EE11_M_allocateEm
FN:350,_ZNSt12_Vector_baseISt10unique_ptrI14BaseControllerSt14default_deleteIS1_EESaIS4_EE13_M_deallocateEPS4_m
FNDA:343,_ZNSt12_Vector_baseISt10unique_ptrI14BaseControllerSt14default_deleteIS1_EESaIS4_EE13_M_deallocateEPS4_m
FN:453,_ZNSt6vectorISt10unique_ptrI14BaseControllerSt14default_deleteIS1_EESaIS4_EE14_S_do_relocateEPS4_S7_S7_RS5_St17integral_constantIbLb1EE
FNDA:552,_ZNSt6vectorISt10unique_ptrI14BaseControllerSt14default_deleteIS1_EESaIS4_EE14_S_do_relocateEPS4_S7_S7_RS5_St17integral_constantIbLb1EE
FN:465,_ZNSt6vectorISt10unique_ptrI14BaseControllerSt14default_deleteIS1_EESaIS4_EE11_S_relocateEPS4_S7_S7_RS5_
FNDA:552,_ZNSt6vectorISt10unique_ptrI14BaseControllerSt14default_deleteIS1_EESaIS4_EE11_S_relocateEPS4_S7_S7_RS5_
FN:487,_ZNSt6vectorISt10unique_ptrI14BaseControllerSt14default_deleteIS1_EESaIS4_EEC2Ev
FNDA:69,_ZNSt6vectorISt10unique_ptrI14BaseControllerSt14default_deleteIS1_EESaIS4_EEC2Ev
FN:678,_ZNSt6vectorISt10unique_ptrI14BaseControllerSt14default_deleteIS1_EESaIS4_EED2Ev
FNDA:67,_ZNSt6vectorISt10unique_ptrI14BaseControllerSt14default_deleteIS1_EESaIS4_EED2Ev
FN:811,_ZNSt6vectorISt10unique_ptrI14BaseControllerSt14default_deleteIS1_EESaIS4_EE5beginEv
FNDA:276,_ZNSt6vectorISt10unique_ptrI14BaseControllerSt14default_deleteIS1_EESaIS4_EE5beginEv
FN:829,_ZNSt6vectorISt10unique_ptrI14BaseControllerSt14default_deleteIS1_EESaIS4_EE3endEv
FNDA:828,_ZNSt6vectorISt10unique_ptrI14BaseControllerSt14default_deleteIS1_EESaIS4_EE3endEv
FN:918,_ZNKSt6vectorISt10unique_ptrI14BaseControllerSt14default_deleteIS1_EESaIS4_EE4sizeEv
FNDA:1104,_ZNKSt6vectorISt10unique_ptrI14BaseControllerSt14default_deleteIS1_EESaIS4_EE4sizeEv
FN:923,_ZNKSt6vectorISt10unique_ptrI14BaseControllerSt14default_deleteIS1_EESaIS4_EE8max_sizeEv
FNDA:552,_ZNKSt6vectorISt10unique_ptrI14BaseControllerSt14default_deleteIS1_EESaIS4_EE8max_sizeEv
FN:1061,_ZNKSt6vectorISt10unique_ptrI14BaseControllerSt14default_deleteIS1_EESaIS4_EEixEm
FNDA:16,_ZNKSt6vectorISt10unique_ptrI14BaseControllerSt14default_deleteIS1_EESaIS4_EEixEm
FN:1143,_ZNSt6vectorISt10unique_ptrI14BaseControllerSt14default_deleteIS1_EESaIS4_EE4backEv
FNDA:552,_ZNSt6vectorISt10unique_ptrI14BaseControllerSt14default_deleteIS1_EESaIS4_EE4backEv
FN:1203,_ZNSt6vectorISt10unique_ptrI14BaseControllerSt14default_deleteIS1_EESaIS4_EE9push_backEOS4_
FNDA:552,_ZNSt6vectorISt10unique_ptrI14BaseControllerSt14default_deleteIS1_EESaIS4_EE9push_backEOS4_
FN:1756,_ZNKSt6vectorISt10unique_ptrI14BaseControllerSt14default_deleteIS1_EESaIS4_EE12_M_check_lenEmPKc
FNDA:276,_ZNKSt6vectorISt10unique_ptrI14BaseControllerSt14default_deleteIS1_EESaIS4_EE12_M_check_lenEmPKc
FN:1776,_ZNSt6vectorISt10unique_ptrI14BaseControllerSt14default_deleteIS1_EESaIS4_EE11_S_max_sizeERKS5_
FNDA:552,_ZNSt6vectorISt10unique_ptrI14BaseControllerSt14default_deleteIS1_EESaIS4_EE11_S_max_sizeERKS5_
DA:97,69
DA:98,69
DA:99,69
DA:131,69
DA:133,69
DA:134,69
DA:276,619
DA:277,619
DA:280,552
DA:281,552
DA:288,69
DA:333,67
DA:335,67
DA:336,67
DA:337,67
DA:343,276
DA:346,276
DA:350,343
DA:353,343
DA:354,274
DA:355,343
DA:453,552
DA:456,552
DA:465,552
DA:469,552
DA:487,69
DA:678,67
DA:680,67
DA:681,67
DA:683,67
DA:811,276
DA:812,276
DA:829,828
DA:830,828
DA:918,1104
DA:919,1104
DA:923,552
DA:924,552
DA:1061,16
DA:1064,16
DA:1143,552
DA:1146,552
DA:1203,552
DA:1204,552
DA:1756,276
DA:1758,276
DA:1759,0
DA:1761,276
DA:1762,276
DA:1776,552
DA:1781,552
DA:1783,552
DA:1784,552
end_of_record
SF:/usr/include/c++/11/bits/stl_iterator_base_funcs.h
FN:98,_ZSt10__distanceIPKcENSt15iterator_traitsIT_E15difference_typeES3_S3_St26random_access_iterator_tag
FNDA:6267,_ZSt10__distanceIPKcENSt15iterator_traitsIT_E15difference_typeES3_S3_St26random_access_iterator_tag
FN:138,_ZSt8distanceIPKcENSt15iterator_traitsIT_E15difference_typeES3_S3_
FNDA:6267,_ZSt8distanceIPKcENSt15iterator_traitsIT_E15difference_typeES3_S3_
DA:98,6267
DA:104,6267
DA:138,6267
DA:141,6267
DA:142,12534
end_of_record
SF:/usr/include/c++/11/bits/cpp_type_traits.h
FN:560,_ZSt12__miter_baseIPKcET_S2_
FNDA:0,_ZSt12__miter_baseIPKcET_S2_
DA:560,0
DA:561,0
end_of_record
SF:/usr/include/boost/asio/detail/tss_ptr.hpp
end_of_record
SF:/media/sf_Share_folder/UI/Spotify-rep-1-1/project/include/controller/ControllerManager.hpp
FN:70,_ZN17ControllerManagerD0Ev
FNDA:0,_ZN17ControllerManagerD0Ev
FN:70,_ZN17ControllerManagerD2Ev
FNDA:67,_ZN17ControllerManagerD2Ev
DA:70,0
DA:70,67
end_of_record
SF:/media/sf_Share_folder/UI/Spotify-rep-1-1/project/include/controller/BaseController.hpp
FN:8,_ZN14BaseControllerD0Ev
FNDA:0,_ZN14BaseControllerD0Ev
FN:8,_ZN14BaseControllerD2Ev
FNDA:711,_ZN14BaseControllerD2Ev
DA:8,0
DA:8,711
end_of_record
SF:/usr/include/boost/asio/impl/error.ipp
FN:35,_ZNK5boost4asio5error6detail14netdb_category4nameEv
FNDA:0,_ZNK5boost4asio5error6detail14netdb_category4nameEv
FN:40,_ZNK5boost4asio5error6detail14netdb_category7messageB5cxx11Ei
FNDA:0,_ZNK5boost4asio5error6detail14netdb_category7messageB5cxx11Ei
FN:56,_ZN5boost4asio5error18get_netdb_categoryEv
FNDA:19,_ZN5boost4asio5error18get_netdb_categoryEv
FN:67,_ZNK5boost4asio5error6detail17addrinfo_category4nameEv
FNDA:0,_ZNK5boost4asio5error6detail17addrinfo_category4nameEv
FN:72,_ZNK5boost4asio5error6detail17addrinfo_category7messageB5cxx11Ei
FNDA:0,_ZNK5boost4asio5error6detail17addrinfo_category7messageB5cxx11Ei
FN:84,_ZN5boost4asio5error21get_addrinfo_categoryEv
FNDA:19,_ZN5boost4asio5error21get_addrinfo_categoryEv
FN:97,_ZNK5boost4asio5error6detail13misc_category4nameEv
FNDA:0,_ZNK5boost4asio5error6detail13misc_category4nameEv
FN:102,_ZNK5boost4asio5error6detail13misc_category7messageB5cxx11Ei
FNDA:0,_ZNK5boost4asio5error6detail13misc_category7messageB5cxx11Ei
FN:118,_ZN5boost4asio5error17get_misc_categoryEv
FNDA:19,_ZN5boost4asio5error17get_misc_categoryEv
DA:35,0
DA:37,0
DA:40,0
DA:42,0
DA:43,0
DA:44,0
DA:45,0
DA:46,0
DA:47,0
DA:48,0
DA:49,0
DA:50,0
DA:56,19
DA:59,19
DA:67,0
DA:69,0
DA:72,0
DA:74,0
DA:75,0
DA:76,0
DA:77,0
DA:78,0
DA:84,19
DA:87,19
DA:97,0
DA:99,0
DA:102,0
DA:104,0
DA:105,0
DA:106,0
DA:107,0
DA:108,0
DA:109,0
DA:110,0
DA:111,0
DA:112,0
DA:118,19
DA:121,19
end_of_record
SF:/usr/include/c++/11/ext/type_traits.h
FN:152,_ZN9__gnu_cxx17__is_null_pointerIKcEEbPT_
FNDA:6267,_ZN9__gnu_cxx17__is_null_pointerIKcEEbPT_
DA:152,6267
DA:153,6267
end_of_record
SF:/usr/include/c++/11/type_traits
FN:3419,_ZSt21is_constant_evaluatedv
FNDA:55399,_ZSt21is_constant_evaluatedv
DA:3419,55399
DA:3420,55399
end_of_record
SF:/usr/include/c++/11/bits/atomic_base.h
FN:345,_ZNSt13__atomic_baseIbEC1Eb
FNDA:696,_ZNSt13__atomic_baseIbEC1Eb
DA:345,696
end_of_record
SF:/usr/include/boost/asio/error.hpp
FN:228,_ZN5boost4asio5error19get_system_categoryEv
FNDA:745,_ZN5boost4asio5error19get_system_categoryEv
DA:228,745
DA:230,745
end_of_record
SF:/usr/include/c++/11/string_view
FN:131,_ZNSt17basic_string_viewIcSt11char_traitsIcEEC2EPKc
FNDA:96,_ZNSt17basic_string_viewIcSt11char_traitsIcEEC2EPKc
FN:211,_ZNKSt17basic_string_viewIcSt11char_traitsIcEE4sizeEv
FNDA:243,_ZNKSt17basic_string_viewIcSt11char_traitsIcEE4sizeEv
FN:263,_ZNKSt17basic_string_viewIcSt11char_traitsIcEE4dataEv
FNDA:243,_ZNKSt17basic_string_viewIcSt11char_traitsIcEE4dataEv
DA:131,96
DA:132,96
DA:133,96
DA:134,96
DA:211,243
DA:212,243
DA:263,243
DA:264,243
end_of_record
SF:/usr/include/c++/11/bits/stl_algobase.h
FN:230,_ZSt3minImERKT_S2_S2_
FNDA:9065,_ZSt3minImERKT_S2_S2_
FN:254,_ZSt3maxImERKT_S2_S2_
FNDA:1399,_ZSt3maxImERKT_S2_S2_
FN:313,_ZSt12__niter_baseIPSt10unique_ptrI14BaseControllerSt14default_deleteIS1_EEET_S6_
FNDA:1656,_ZSt12__niter_baseIPSt10unique_ptrI14BaseControllerSt14default_deleteIS1_EEET_S6_
FN:313,_ZSt12__niter_baseIPcET_S1_
FNDA:0,_ZSt12__niter_baseIPcET_S1_
FN:313,_ZSt12__niter_baseIPKcET_S2_
FNDA:0,_ZSt12__niter_baseIPKcET_S2_
FN:335,_ZSt12__niter_wrapIPcET_RKS1_S1_
FNDA:0,_ZSt12__niter_wrapIPcET_RKS1_S1_
FN:380,_ZNSt11__copy_moveILb0ELb0ESt26random_access_iterator_tagE8__copy_mIPKcPcEET0_T_S7_S6_
FNDA:0,_ZNSt11__copy_moveILb0ELb0ESt26random_access_iterator_tagE8__copy_mIPKcPcEET0_T_S7_S6_
FN:420,_ZNSt11__copy_moveILb0ELb1ESt26random_access_iterator_tagE8__copy_mIcEEPT_PKS3_S6_S4_
FNDA:0,_ZNSt11__copy_moveILb0ELb1ESt26random_access_iterator_tagE8__copy_mIcEEPT_PKS3_S6_S4_
FN:486,_ZSt14__copy_move_a2ILb0EPKcPcET1_T0_S4_S3_
FNDA:0,_ZSt14__copy_move_a2ILb0EPKcPcET1_T0_S4_S3_
FN:521,_ZSt14__copy_move_a1ILb0EPKcPcET1_T0_S4_S3_
FNDA:0,_ZSt14__copy_move_a1ILb0EPKcPcET1_T0_S4_S3_
FN:527,_ZSt13__copy_move_aILb0EPKcPcET1_T0_S4_S3_
FNDA:0,_ZSt13__copy_move_aILb0EPKcPcET1_T0_S4_S3_
FN:611,_ZSt4copyIPKcPcET0_T_S4_S3_
FNDA:0,_ZSt4copyIPKcPcET0_T_S4_S3_
DA:230,9065
DA:235,9065
DA:236,4267
DA:237,4798
DA:254,1399
DA:259,1399
DA:260,900
DA:261,499
DA:313,1656
DA:315,1656
DA:313,0
DA:315,0
DA:313,0
DA:315,0
DA:335,0
DA:336,0
DA:380,0
DA:383,0
DA:385,0
DA:386,0
DA:387,0
DA:389,0
DA:420,0
DA:429,0
DA:430,0
DA:431,0
DA:432,0
DA:486,0
DA:490,0
DA:492,0
DA:495,0
DA:521,0
DA:522,0
DA:527,0
DA:529,0
DA:532,0
DA:611,0
DA:620,0
end_of_record
SF:/usr/include/c++/11/bits/stl_iterator_base_types.h
FN:238,_ZSt19__iterator_categoryIPKcENSt15iterator_traitsIT_E17iterator_categoryERKS3_
FNDA:6267,_ZSt19__iterator_categoryIPKcENSt15iterator_traitsIT_E17iterator_categoryERKS3_
DA:238,6267
DA:239,6267
end_of_record
SF:/usr/include/boost/system/detail/std_interoperability.hpp
FN:34,_ZN5boost6system6detail12std_categoryC2EPKNS0_14error_categoryEj
FNDA:0,_ZN5boost6system6detail12std_categoryC2EPKNS0_14error_categoryEj
FN:50,_ZNK5boost6system6detail12std_category4nameEv
FNDA:0,_ZNK5boost6system6detail12std_category4nameEv
FN:55,_ZNK5boost6system6detail12std_category7messageB5cxx11Ei
FNDA:0,_ZNK5boost6system6detail12std_category7messageB5cxx11Ei
FN:60,_ZNK5boost6system6detail12std_category23default_error_conditionEi
FNDA:0,_ZNK5boost6system6detail12std_category23default_error_conditionEi
FN:75,_ZNK5boost6system6detail12cat_ptr_lessclEPKNS0_14error_categoryES5_
FNDA:0,_ZNK5boost6system6detail12cat_ptr_lessclEPKNS0_14error_categoryES5_
FN:81,_ZN5boost6system6detail15to_std_categoryERKNS0_14error_categoryE
FNDA:0,_ZN5boost6system6detail15to_std_categoryERKNS0_14error_categoryE
FN:117,_ZNK5boost6system6detail12std_category10equivalentEiRKSt15error_condition
FNDA:0,_ZNK5boost6system6detail12std_category10equivalentEiRKSt15error_condition
FN:146,_ZNK5boost6system6detail12std_category10equivalentERKSt10error_codei
FNDA:0,_ZNK5boost6system6detail12std_category10equivalentERKSt10error_codei
DA:34,0
DA:48,0
DA:50,0
DA:52,0
DA:55,0
DA:57,0
DA:60,0
DA:62,0
DA:75,0
DA:77,0
DA:81,0
DA:83,0
DA:85,0
DA:86,0
DA:88,0
DA:90,0
DA:91,0
DA:97,0
DA:100,0
DA:102,0
DA:104,0
DA:106,0
DA:108,0
DA:110,0
DA:111,0
DA:113,0
DA:114,0
DA:117,0
DA:119,0
DA:121,0
DA:122,0
DA:124,0
DA:126,0
DA:127,0
DA:132,0
DA:134,0
DA:135,0
DA:142,0
DA:146,0
DA:148,0
DA:150,0
DA:151,0
DA:153,0
DA:155,0
DA:156,0
DA:161,0
DA:163,0
DA:164,0
DA:168,0
DA:170,0
DA:174,0
end_of_record
TN:
SF:/usr/include/c++/11/bits/stl_map.h
FN:185,_ZNSt3mapIPKN5boost6system14error_categoryESt10unique_ptrINS1_6detail12std_categoryESt14default_deleteIS7_EENS6_12cat_ptr_lessESaISt4pairIKS4_SA_EEEC2Ev
FNDA:0,_ZNSt3mapIPKN5boost6system14error_categoryESt10unique_ptrINS1_6detail12std_categoryESt14default_deleteIS7_EENS6_12cat_ptr_lessESaISt4pairIKS4_SA_EEEC2Ev
FN:302,_ZNSt3mapIPKN5boost6system14error_categoryESt10unique_ptrINS1_6detail12std_categoryESt14default_deleteIS7_EENS6_12cat_ptr_lessESaISt4pairIKS4_SA_EEED2Ev
FNDA:0,_ZNSt3mapIPKN5boost6system14error_categoryESt10unique_ptrINS1_6detail12std_categoryESt14default_deleteIS7_EENS6_12cat_ptr_lessESaISt4pairIKS4_SA_EEED2Ev
FN:374,_ZNSt3mapIPKN5boost6system14error_categoryESt10unique_ptrINS1_6detail12std_categoryESt14default_deleteIS7_EENS6_12cat_ptr_lessESaISt4pairIKS4_SA_EEE3endEv
FNDA:0,_ZNSt3mapIPKN5boost6system14error_categoryESt10unique_ptrINS1_6detail12std_categoryESt14default_deleteIS7_EENS6_12cat_ptr_lessESaISt4pairIKS4_SA_EEE3endEv
FN:810,_ZNSt3mapIPKN5boost6system14error_categoryESt10unique_ptrINS1_6detail12std_categoryESt14default_deleteIS7_EENS6_12cat_ptr_lessESaISt4pairIKS4_SA_EEE6insertEOSE_
FNDA:0,_ZNSt3mapIPKN5boost6system14error_categoryESt10unique_ptrINS1_6detail12std_categoryESt14default_deleteIS7_EENS6_12cat_ptr_lessESaISt4pairIKS4_SA_EEE6insertEOSE_
FN:1169,_ZNSt3mapIPKN5boost6system14error_categoryESt10unique_ptrINS1_6detail12std_categoryESt14default_deleteIS7_EENS6_12cat_ptr_lessESaISt4pairIKS4_SA_EEE4findERSD_
FNDA:0,_ZNSt3mapIPKN5boost6system14error_categoryESt10unique_ptrINS1_6detail12std_categoryESt14default_deleteIS7_EENS6_12cat_ptr_lessESaISt4pairIKS4_SA_EEE4findERSD_
DA:185,0
DA:302,0
DA:374,0
DA:375,0
DA:810,0
DA:811,0
DA:1169,0
DA:1170,0
end_of_record
SF:/usr/include/boost/asio/io_context.hpp
end_of_record
SF:/usr/include/c++/11/ext/atomicity.h
DA:52,7160
DA:66,5730
DA:84,1430
DA:85,1430
DA:86,1430
DA:98,7160
DA:99,1430
DA:101,5730
end_of_record
SF:/usr/include/c++/11/ext/new_allocator.h
FN:79,_ZN9__gnu_cxx13new_allocatorISt13_Rb_tree_nodeISt4pairIKPKN5boost6system14error_categoryESt10unique_ptrINS4_6detail12std_categoryESt14default_deleteISB_EEEEEC2Ev
FNDA:0,_ZN9__gnu_cxx13new_allocatorISt13_Rb_tree_nodeISt4pairIKPKN5boost6system14error_categoryESt10unique_ptrINS4_6detail12std_categoryESt14default_deleteISB_EEEEEC2Ev
FN:79,_ZN9__gnu_cxx13new_allocatorIcEC2Ev
FNDA:0,_ZN9__gnu_cxx13new_allocatorIcEC2Ev
FN:103,_ZN9__gnu_cxx13new_allocatorISt13_Rb_tree_nodeISt4pairIKPKN5boost6system14error_categoryESt10unique_ptrINS4_6detail12std_categoryESt14default_deleteISB_EEEEE8allocateEmPKv
FNDA:0,_ZN9__gnu_cxx13new_allocatorISt13_Rb_tree_nodeISt4pairIKPKN5boost6system14error_categoryESt10unique_ptrINS4_6detail12std_categoryESt14default_deleteISB_EEEEE8allocateEmPKv
FN:103,_ZN9__gnu_cxx13new_allocatorIcE8allocateEmPKv
FNDA:0,_ZN9__gnu_cxx13new_allocatorIcE8allocateEmPKv
FN:132,_ZN9__gnu_cxx13new_allocatorISt13_Rb_tree_nodeISt4pairIKPKN5boost6system14error_categoryESt10unique_ptrINS4_6detail12std_categoryESt14default_deleteISB_EEEEE10deallocateEPSG_m
FNDA:0,_ZN9__gnu_cxx13new_allocatorISt13_Rb_tree_nodeISt4pairIKPKN5boost6system14error_categoryESt10unique_ptrINS4_6detail12std_categoryESt14default_deleteISB_EEEEE10deallocateEPSG_m
FN:132,_ZN9__gnu_cxx13new_allocatorIcE10deallocateEPcm
FNDA:0,_ZN9__gnu_cxx13new_allocatorIcE10deallocateEPcm
FN:197,_ZNK9__gnu_cxx13new_allocatorISt13_Rb_tree_nodeISt4pairIKPKN5boost6system14error_categoryESt10unique_ptrINS4_6detail12std_categoryESt14default_deleteISB_EEEEE11_M_max_sizeEv
FNDA:0,_ZNK9__gnu_cxx13new_allocatorISt13_Rb_tree_nodeISt4pairIKPKN5boost6system14error_categoryESt10unique_ptrINS4_6detail12std_categoryESt14default_deleteISB_EEEEE11_M_max_sizeEv
FN:197,_ZNK9__gnu_cxx13new_allocatorIcE11_M_max_sizeEv
FNDA:0,_ZNK9__gnu_cxx13new_allocatorIcE11_M_max_sizeEv
DA:79,0
DA:79,0
DA:103,0
DA:111,0
DA:115,0
DA:116,0
DA:117,0
DA:127,0
DA:103,0
DA:111,0
DA:117,0
DA:127,0
DA:132,0
DA:145,0
DA:132,0
DA:145,0
DA:197,0
DA:200,0
DA:197,0
DA:200,0
end_of_record
SF:/usr/include/boost/asio/detail/noncopyable.hpp
FN:29,_ZN5boost4asio6detail11noncopyableC2Ev
FNDA:0,_ZN5boost4asio6detail11noncopyableC2Ev
FN:30,_ZN5boost4asio6detail11noncopyableD2Ev
FNDA:0,_ZN5boost4asio6detail11noncopyableD2Ev
DA:29,0
DA:30,0
end_of_record
SF:/usr/include/boost/system/error_code.hpp
FN:233,_ZNK5boost6system14error_categoryeqERKS1_
FNDA:0,_ZNK5boost6system14error_categoryeqERKS1_
FN:243,_ZNK5boost6system14error_categoryltERKS1_
FNDA:0,_ZNK5boost6system14error_categoryltERKS1_
FN:290,_ZNK5boost6system6detail22generic_error_category4nameEv
FNDA:0,_ZNK5boost6system6detail22generic_error_category4nameEv
FN:308,_ZNK5boost6system6detail21system_error_category4nameEv
FNDA:0,_ZNK5boost6system6detail21system_error_category4nameEv
FN:346,_ZN5boost6system15system_categoryEv
FNDA:0,_ZN5boost6system15system_categoryEv
FN:351,_ZN5boost6system16generic_categoryEv
FNDA:0,_ZN5boost6system16generic_categoryEv
FN:415,_ZN5boost6system6detail11failed_implEiRKNS0_14error_categoryE
FNDA:0,_ZN5boost6system6detail11failed_implEiRKNS0_14error_categoryE
FN:452,_ZN5boost6system15error_conditionC2EiRKNS0_14error_categoryE
FNDA:0,_ZN5boost6system15error_conditionC2EiRKNS0_14error_categoryE
FN:489,_ZNK5boost6system15error_condition5valueEv
FNDA:0,_ZNK5boost6system15error_condition5valueEv
FN:494,_ZNK5boost6system15error_condition8categoryEv
FNDA:0,_ZNK5boost6system15error_condition8categoryEv
FN:542,_ZN5boost6systemeqERKNS0_15error_conditionES3_
FNDA:0,_ZN5boost6systemeqERKNS0_15error_conditionES3_
FN:554,_ZNK5boost6system15error_conditioncvSt15error_conditionEv
FNDA:0,_ZNK5boost6system15error_conditioncvSt15error_conditionEv
FN:588,_ZN5boost6system10error_codeC2EiRKNS0_14error_categoryE
FNDA:0,_ZN5boost6system10error_codeC2EiRKNS0_14error_categoryE
FN:625,_ZNK5boost6system10error_code5valueEv
FNDA:0,_ZNK5boost6system10error_code5valueEv
FN:630,_ZNK5boost6system10error_code8categoryEv
FNDA:0,_ZNK5boost6system10error_code8categoryEv
FN:640,_ZNK5boost6system10error_code7messageB5cxx11Ev
FNDA:0,_ZNK5boost6system10error_code7messageB5cxx11Ev
FN:831,_ZNK5boost6system14error_category23default_error_conditionEi
FNDA:0,_ZNK5boost6system14error_category23default_error_conditionEi
FN:836,_ZNK5boost6system14error_category10equivalentEiRKNS0_15error_conditionE
FNDA:0,_ZNK5boost6system14error_category10equivalentEiRKNS0_15error_conditionE
FN:841,_ZNK5boost6system14error_category10equivalentERKNS0_10error_codeEi
FNDA:0,_ZNK5boost6system14error_category10equivalentERKNS0_10error_codeEi
FN:846,_ZNK5boost6system14error_category7messageEiPcm
FNDA:0,_ZNK5boost6system14error_category7messageEiPcm
FN:894,_ZNK5boost6system14error_category6failedEi
FNDA:0,_ZNK5boost6system14error_category6failedEi
FN:907,_ZNK5boost6system6detail22generic_error_category7messageB5cxx11Ei
FNDA:0,_ZNK5boost6system6detail22generic_error_category7messageB5cxx11Ei
FN:912,_ZNK5boost6system6detail22generic_error_category7messageEiPcm
FNDA:0,_ZNK5boost6system6detail22generic_error_category7messageEiPcm
FN:942,_ZNK5boost6system6detail21system_error_category23default_error_conditionEi
FNDA:0,_ZNK5boost6system6detail21system_error_category23default_error_conditionEi
FN:947,_ZNK5boost6system6detail21system_error_category7messageB5cxx11Ei
FNDA:0,_ZNK5boost6system6detail21system_error_category7messageB5cxx11Ei
FN:952,_ZNK5boost6system6detail21system_error_category7messageEiPcm
FNDA:0,_ZNK5boost6system6detail21system_error_category7messageEiPcm
FN:965,_ZNK5boost6system14error_categorycvRKNSt3_V214error_categoryEEv
FNDA:0,_ZNK5boost6system14error_categorycvRKNSt3_V214error_categoryEEv
DA:233,0
DA:235,0
DA:243,0
DA:245,0
DA:247,0
DA:250,0
DA:252,0
DA:255,0
DA:257,0
DA:260,0
DA:290,0
DA:292,0
DA:308,0
DA:310,0
DA:346,0
DA:348,0
DA:351,0
DA:353,0
DA:415,0
DA:417,0
DA:419,0
DA:423,0
DA:452,0
DA:453,0
DA:455,0
DA:489,0
DA:491,0
DA:494,0
DA:496,0
DA:542,0
DA:544,0
DA:554,0
DA:556,0
DA:588,0
DA:589,0
DA:591,0
DA:625,0
DA:627,0
DA:630,0
DA:632,0
DA:640,0
DA:642,0
DA:831,0
DA:833,0
DA:836,0
DA:838,0
DA:841,0
DA:843,0
DA:846,0
DA:848,0
DA:850,0
DA:853,0
DA:855,0
DA:856,0
DA:863,0
DA:875,0
DA:876,0
DA:884,0
DA:885,0
DA:887,0
DA:889,0
DA:890,0
DA:894,0
DA:896,0
DA:907,0
DA:909,0
DA:912,0
DA:914,0
DA:942,0
DA:944,0
DA:947,0
DA:949,0
DA:952,0
DA:954,0
DA:965,0
DA:967,0
end_of_record
SF:/usr/include/c++/11/bits/stl_pair.h
FN:315,_ZNSt4pairIKPKN5boost6system14error_categoryESt10unique_ptrINS1_6detail12std_categoryESt14default_deleteIS8_EEEC2EOSC_
FNDA:0,_ZNSt4pairIKPKN5boost6system14error_categoryESt10unique_ptrINS1_6detail12std_categoryESt14default_deleteIS8_EEEC2EOSC_
FN:322,_ZNSt4pairIPSt18_Rb_tree_node_baseS1_EC2IRS1_Lb1EEEOT_RKS1_
FNDA:0,_ZNSt4pairIPSt18_Rb_tree_node_baseS1_EC2IRS1_Lb1EEEOT_RKS1_
FN:352,_ZNSt4pairIPSt18_Rb_tree_node_baseS1_EC2IRPSt13_Rb_tree_nodeIS_IKPKN5boost6system14error_categoryESt10unique_ptrINS6_6detail12std_categoryESt14default_deleteISD_EEEERS1_Lb1EEEOT_OT0_
FNDA:0,_ZNSt4pairIPSt18_Rb_tree_node_baseS1_EC2IRPSt13_Rb_tree_nodeIS_IKPKN5boost6system14error_categoryESt10unique_ptrINS6_6detail12std_categoryESt14default_deleteISD_EEEERS1_Lb1EEEOT_OT0_
FN:352,_ZNSt4pairISt17_Rb_tree_iteratorIS_IKPKN5boost6system14error_categoryESt10unique_ptrINS2_6detail12std_categoryESt14default_deleteIS9_EEEEbEC2ISE_bLb1EEEOT_OT0_
FNDA:0,_ZNSt4pairISt17_Rb_tree_iteratorIS_IKPKN5boost6system14error_categoryESt10unique_ptrINS2_6detail12std_categoryESt14default_deleteIS9_EEEEbEC2ISE_bLb1EEEOT_OT0_
FN:352,_ZNSt4pairIKPKN5boost6system14error_categoryESt10unique_ptrINS1_6detail12std_categoryESt14default_deleteIS8_EEEC2IS4_SB_Lb1EEEOT_OT0_
FNDA:0,_ZNSt4pairIKPKN5boost6system14error_categoryESt10unique_ptrINS1_6detail12std_categoryESt14default_deleteIS8_EEEC2IS4_SB_Lb1EEEOT_OT0_
DA:315,0
DA:322,0
DA:323,0
DA:352,0
DA:353,0
DA:352,0
DA:353,0
DA:352,0
DA:353,0
end_of_record
SF:/usr/include/c++/11/bits/stl_tree.h
FN:146,_ZNSt20_Rb_tree_key_compareIN5boost6system6detail12cat_ptr_lessEEC2Ev
FNDA:0,_ZNSt20_Rb_tree_key_compareIN5boost6system6detail12cat_ptr_lessEEC2Ev
FN:173,_ZNSt15_Rb_tree_headerC2Ev
FNDA:0,_ZNSt15_Rb_tree_headerC2Ev
FN:206,_ZNSt15_Rb_tree_header8_M_resetEv
FNDA:0,_ZNSt15_Rb_tree_header8_M_resetEv
FN:234,_ZNSt13_Rb_tree_nodeISt4pairIKPKN5boost6system14error_categoryESt10unique_ptrINS2_6detail12std_categoryESt14default_deleteIS9_EEEE9_M_valptrEv
FNDA:0,_ZNSt13_Rb_tree_nodeISt4pairIKPKN5boost6system14error_categoryESt10unique_ptrINS2_6detail12std_categoryESt14default_deleteIS9_EEEE9_M_valptrEv
FN:238,_ZNKSt13_Rb_tree_nodeISt4pairIKPKN5boost6system14error_categoryESt10unique_ptrINS2_6detail12std_categoryESt14default_deleteIS9_EEEE9_M_valptrEv
FNDA:0,_ZNKSt13_Rb_tree_nodeISt4pairIKPKN5boost6system14error_categoryESt10unique_ptrINS2_6detail12std_categoryESt14default_deleteIS9_EEEE9_M_valptrEv
FN:273,_ZNSt17_Rb_tree_iteratorISt4pairIKPKN5boost6system14error_categoryESt10unique_ptrINS2_6detail12std_categoryESt14default_deleteIS9_EEEEC2EPSt18_Rb_tree_node_base
FNDA:0,_ZNSt17_Rb_tree_iteratorISt4pairIKPKN5boost6system14error_categoryESt10unique_ptrINS2_6detail12std_categoryESt14default_deleteIS9_EEEEC2EPSt18_Rb_tree_node_base
FN:281,_ZNKSt17_Rb_tree_iteratorISt4pairIKPKN5boost6system14error_categoryESt10unique_ptrINS2_6detail12std_categoryESt14default_deleteIS9_EEEEptEv
FNDA:0,_ZNKSt17_Rb_tree_iteratorISt4pairIKPKN5boost6system14error_categoryESt10unique_ptrINS2_6detail12std_categoryESt14default_deleteIS9_EEEEptEv
FN:300,_ZNSt17_Rb_tree_iteratorISt4pairIKPKN5boost6system14error_categoryESt10unique_ptrINS2_6detail12std_categoryESt14default_deleteIS9_EEEEmmEv
FNDA:0,_ZNSt17_Rb_tree_iteratorISt4pairIKPKN5boost6system14error_categoryESt10unique_ptrINS2_6detail12std_categoryESt14default_deleteIS9_EEEEmmEv
FN:315,_ZSteqRKSt17_Rb_tree_iteratorISt4pairIKPKN5boost6system14error_categoryESt10unique_ptrINS2_6detail12std_categoryESt14default_deleteIS9_EEEESG_
FNDA:0,_ZSteqRKSt17_Rb_tree_iteratorISt4pairIKPKN5boost6system14error_categoryESt10unique_ptrINS2_6detail12std_categoryESt14default_deleteIS9_EEEESG_
FN:523,_ZNSt8_Rb_treeIPKN5boost6system14error_categoryESt4pairIKS4_St10unique_ptrINS1_6detail12std_categoryESt14default_deleteIS9_EEESt10_Select1stISD_ENS8_12cat_ptr_lessESaISD_EE11_Alloc_nodeC2ERSI_
FNDA:0,_ZNSt8_Rb_treeIPKN5boost6system14error_categoryESt4pairIKS4_St10unique_ptrINS1_6detail12std_categoryESt14default_deleteIS9_EEESt10_Select1stISD_ENS8_12cat_ptr_lessESaISD_EE11_Alloc_nodeC2ERSI_
FN:528,_ZNKSt8_Rb_treeIPKN5boost6system14error_categoryESt4pairIKS4_St10unique_ptrINS1_6detail12std_categoryESt14default_deleteIS9_EEESt10_Select1stISD_ENS8_12cat_ptr_lessESaISD_EE11_Alloc_nodeclISD_EEPSt13_Rb_tree_nodeISD_EOT_
FNDA:0,_ZNKSt8_Rb_treeIPKN5boost6system14error_categoryESt4pairIKS4_St10unique_ptrINS1_6detail12std_categoryESt14default_deleteIS9_EEESt10_Select1stISD_ENS8_12cat_ptr_lessESaISD_EE11_Alloc_nodeclISD_EEPSt13_Rb_tree_nodeISD_EOT_
FN:547,_ZNSt8_Rb_treeIPKN5boost6system14error_categoryESt4pairIKS4_St10unique_ptrINS1_6detail12std_categoryESt14default_deleteIS9_EEESt10_Select1stISD_ENS8_12cat_ptr_lessESaISD_EE21_M_get_Node_allocatorEv
FNDA:0,_ZNSt8_Rb_treeIPKN5boost6system14error_categoryESt4pairIKS4_St10unique_ptrINS1_6detail12std_categoryESt14default_deleteIS9_EEESt10_Select1stISD_ENS8_12cat_ptr_lessESaISD_EE21_M_get_Node_allocatorEv
FN:560,_ZNSt8_Rb_treeIPKN5boost6system14error_categoryESt4pairIKS4_St10unique_ptrINS1_6detail12std_categoryESt14default_deleteIS9_EEESt10_Select1stISD_ENS8_12cat_ptr_lessESaISD_EE11_M_get_nodeEv
FNDA:0,_ZNSt8_Rb_treeIPKN5boost6system14error_categoryESt4pairIKS4_St10unique_ptrINS1_6detail12std_categoryESt14default_deleteIS9_EEESt10_Select1stISD_ENS8_12cat_ptr_lessESaISD_EE11_M_get_nodeEv
FN:564,_ZNSt8_Rb_treeIPKN5boost6system14error_categoryESt4pairIKS4_St10unique_ptrINS1_6detail12std_categoryESt14default_deleteIS9_EEESt10_Select1stISD_ENS8_12cat_ptr_lessESaISD_EE11_M_put_nodeEPSt13_Rb_tree_nodeISD_E
FNDA:0,_ZNSt8_Rb_treeIPKN5boost6system14error_categoryESt4pairIKS4_St10unique_ptrINS1_6detail12std_categoryESt14default_deleteIS9_EEESt10_Select1stISD_ENS8_12cat_ptr_lessESaISD_EE11_M_put_nodeEPSt13_Rb_tree_nodeISD_E
FN:590,_ZNSt8_Rb_treeIPKN5boost6system14error_categoryESt4pairIKS4_St10unique_ptrINS1_6detail12std_categoryESt14default_deleteIS9_EEESt10_Select1stISD_ENS8_12cat_ptr_lessESaISD_EE17_M_construct_nodeIJSD_EEEvPSt13_Rb_tree_nodeISD_EDpOT_
FNDA:0,_ZNSt8_Rb_treeIPKN5boost6system14error_categoryESt4pairIKS4_St10unique_ptrINS1_6detail12std_categoryESt14default_deleteIS9_EEESt10_Select1stISD_ENS8_12cat_ptr_lessESaISD_EE17_M_construct_nodeIJSD_EEEvPSt13_Rb_tree_nodeISD_EDpOT_
FN:609,_ZNSt8_Rb_treeIPKN5boost6system14error_categoryESt4pairIKS4_St10unique_ptrINS1_6detail12std_categoryESt14default_deleteIS9_EEESt10_Select1stISD_ENS8_12cat_ptr_lessESaISD_EE14_M_create_nodeIJSD_EEEPSt13_Rb_tree_nodeISD_EDpOT_
FNDA:0,_ZNSt8_Rb_treeIPKN5boost6system14error_categoryESt4pairIKS4_St10unique_ptrINS1_6detail12std_categoryESt14default_deleteIS9_EEESt10_Select1stISD_ENS8_12cat_ptr_lessESaISD_EE14_M_create_nodeIJSD_EEEPSt13_Rb_tree_nodeISD_EDpOT_
FN:618,_ZNSt8_Rb_treeIPKN5boost6system14error_categoryESt4pairIKS4_St10unique_ptrINS1_6detail12std_categoryESt14default_deleteIS9_EEESt10_Select1stISD_ENS8_12cat_ptr_lessESaISD_EE15_M_destroy_nodeEPSt13_Rb_tree_nodeISD_E
FNDA:0,_ZNSt8_Rb_treeIPKN5boost6system14error_categoryESt4pairIKS4_St10unique_ptrINS1_6detail12std_categoryESt14default_deleteIS9_EEESt10_Select1stISD_ENS8_12cat_ptr_lessESaISD_EE15_M_destroy_nodeEPSt13_Rb_tree_nodeISD_E
FN:629,_ZNSt8_Rb_treeIPKN5boost6system14error_categoryESt4pairIKS4_St10unique_ptrINS1_6detail12std_categoryESt14default_deleteIS9_EEESt10_Select1stISD_ENS8_12cat_ptr_lessESaISD_EE12_M_drop_nodeEPSt13_Rb_tree_nodeISD_E
FNDA:0,_ZNSt8_Rb_treeIPKN5boost6system14error_categoryESt4pairIKS4_St10unique_ptrINS1_6detail12std_categoryESt14default_deleteIS9_EEESt10_Select1stISD_ENS8_12cat_ptr_lessESaISD_EE12_M_drop_nodeEPSt13_Rb_tree_nodeISD_E
FN:667,_ZNSt8_Rb_treeIPKN5boost6system14error_categoryESt4pairIKS4_St10unique_ptrINS1_6detail12std_categoryESt14default_deleteIS9_EEESt10_Select1stISD_ENS8_12cat_ptr_lessESaISD_EE13_Rb_tree_implISG_Lb1EEC2Ev
FNDA:0,_ZNSt8_Rb_treeIPKN5boost6system14error_categoryESt4pairIKS4_St10unique_ptrINS1_6detail12std_categoryESt14default_deleteIS9_EEESt10_Select1stISD_ENS8_12cat_ptr_lessESaISD_EE13_Rb_tree_implISG_Lb1EEC2Ev
FN:734,_ZNKSt8_Rb_treeIPKN5boost6system14error_categoryESt4pairIKS4_St10unique_ptrINS1_6detail12std_categoryESt14default_deleteIS9_EEESt10_Select1stISD_ENS8_12cat_ptr_lessESaISD_EE9_M_mbeginEv
FNDA:0,_ZNKSt8_Rb_treeIPKN5boost6system14error_categoryESt4pairIKS4_St10unique_ptrINS1_6detail12std_categoryESt14default_deleteIS9_EEESt10_Select1stISD_ENS8_12cat_ptr_lessESaISD_EE9_M_mbeginEv
FN:738,_ZNSt8_Rb_treeIPKN5boost6system14error_categoryESt4pairIKS4_St10unique_ptrINS1_6detail12std_categoryESt14default_deleteIS9_EEESt10_Select1stISD_ENS8_12cat_ptr_lessESaISD_EE8_M_beginEv
FNDA:0,_ZNSt8_Rb_treeIPKN5boost6system14error_categoryESt4pairIKS4_St10unique_ptrINS1_6detail12std_categoryESt14default_deleteIS9_EEESt10_Select1stISD_ENS8_12cat_ptr_lessESaISD_EE8_M_beginEv
FN:749,_ZNSt8_Rb_treeIPKN5boost6system14error_categoryESt4pairIKS4_St10unique_ptrINS1_6detail12std_categoryESt14default_deleteIS9_EEESt10_Select1stISD_ENS8_12cat_ptr_lessESaISD_EE6_M_endEv
FNDA:0,_ZNSt8_Rb_treeIPKN5boost6system14error_categoryESt4pairIKS4_St10unique_ptrINS1_6detail12std_categoryESt14default_deleteIS9_EEESt10_Select1stISD_ENS8_12cat_ptr_lessESaISD_EE6_M_endEv
FN:757,_ZNSt8_Rb_treeIPKN5boost6system14error_categoryESt4pairIKS4_St10unique_ptrINS1_6detail12std_categoryESt14default_deleteIS9_EEESt10_Select1stISD_ENS8_12cat_ptr_lessESaISD_EE6_S_keyEPKSt13_Rb_tree_nodeISD_E
FNDA:0,_ZNSt8_Rb_treeIPKN5boost6system14error_categoryESt4pairIKS4_St10unique_ptrINS1_6detail12std_categoryESt14default_deleteIS9_EEESt10_Select1stISD_ENS8_12cat_ptr_lessESaISD_EE6_S_keyEPKSt13_Rb_tree_nodeISD_E
FN:779,_ZNSt8_Rb_treeIPKN5boost6system14error_categoryESt4pairIKS4_St10unique_ptrINS1_6detail12std_categoryESt14default_deleteIS9_EEESt10_Select1stISD_ENS8_12cat_ptr_lessESaISD_EE7_S_leftEPSt18_Rb_tree_node_base
FNDA:0,_ZNSt8_Rb_treeIPKN5boost6system14error_categoryESt4pairIKS4_St10unique_ptrINS1_6detail12std_categoryESt14default_deleteIS9_EEESt10_Select1stISD_ENS8_12cat_ptr_lessESaISD_EE7_S_leftEPSt18_Rb_tree_node_base
FN:787,_ZNSt8_Rb_treeIPKN5boost6system14error_categoryESt4pairIKS4_St10unique_ptrINS1_6detail12std_categoryESt14default_deleteIS9_EEESt10_Select1stISD_ENS8_12cat_ptr_lessESaISD_EE8_S_rightEPSt18_Rb_tree_node_base
FNDA:0,_ZNSt8_Rb_treeIPKN5boost6system14error_categoryESt4pairIKS4_St10unique_ptrINS1_6detail12std_categoryESt14default_deleteIS9_EEESt10_Select1stISD_ENS8_12cat_ptr_lessESaISD_EE8_S_rightEPSt18_Rb_tree_node_base
FN:795,_ZNSt8_Rb_treeIPKN5boost6system14error_categoryESt4pairIKS4_St10unique_ptrINS1_6detail12std_categoryESt14default_deleteIS9_EEESt10_Select1stISD_ENS8_12cat_ptr_lessESaISD_EE6_S_keyEPKSt18_Rb_tree_node_base
FNDA:0,_ZNSt8_Rb_treeIPKN5boost6system14error_categoryESt4pairIKS4_St10unique_ptrINS1_6detail12std_categoryESt14default_deleteIS9_EEESt10_Select1stISD_ENS8_12cat_ptr_lessESaISD_EE6_S_keyEPKSt18_Rb_tree_node_base
FN:928,_ZNSt8_Rb_treeIPKN5boost6system14error_categoryESt4pairIKS4_St10unique_ptrINS1_6detail12std_categoryESt14default_deleteIS9_EEESt10_Select1stISD_ENS8_12cat_ptr_lessESaISD_EEC2Ev
FNDA:0,_ZNSt8_Rb_treeIPKN5boost6system14error_categoryESt4pairIKS4_St10unique_ptrINS1_6detail12std_categoryESt14default_deleteIS9_EEESt10_Select1stISD_ENS8_12cat_ptr_lessESaISD_EEC2Ev
FN:983,_ZNSt8_Rb_treeIPKN5boost6system14error_categoryESt4pairIKS4_St10unique_ptrINS1_6detail12std_categoryESt14default_deleteIS9_EEESt10_Select1stISD_ENS8_12cat_ptr_lessESaISD_EED2Ev
FNDA:0,_ZNSt8_Rb_treeIPKN5boost6system14error_categoryESt4pairIKS4_St10unique_ptrINS1_6detail12std_categoryESt14default_deleteIS9_EEESt10_Select1stISD_ENS8_12cat_ptr_lessESaISD_EED2Ev
FN:995,_ZNSt8_Rb_treeIPKN5boost6system14error_categoryESt4pairIKS4_St10unique_ptrINS1_6detail12std_categoryESt14default_deleteIS9_EEESt10_Select1stISD_ENS8_12cat_ptr_lessESaISD_EE5beginEv
FNDA:0,_ZNSt8_Rb_treeIPKN5boost6system14error_categoryESt4pairIKS4_St10unique_ptrINS1_6detail12std_categoryESt14default_deleteIS9_EEESt10_Select1stISD_ENS8_12cat_ptr_lessESaISD_EE5beginEv
FN:1003,_ZNSt8_Rb_treeIPKN5boost6system14error_categoryESt4pairIKS4_St10unique_ptrINS1_6detail12std_categoryESt14default_deleteIS9_EEESt10_Select1stISD_ENS8_12cat_ptr_lessESaISD_EE3endEv
FNDA:0,_ZNSt8_Rb_treeIPKN5boost6system14error_categoryESt4pairIKS4_St10unique_ptrINS1_6detail12std_categoryESt14default_deleteIS9_EEESt10_Select1stISD_ENS8_12cat_ptr_lessESaISD_EE3endEv
FN:1771,_ZNSt8_Rb_treeIPKN5boost6system14error_categoryESt4pairIKS4_St10unique_ptrINS1_6detail12std_categoryESt14default_deleteIS9_EEESt10_Select1stISD_ENS8_12cat_ptr_lessESaISD_EE10_M_insert_ISD_NSI_11_Alloc_nodeEEESt17_Rb_tree_iteratorISD_EPSt18_Rb_tree_node_baseSO_OT_RT0_
FNDA:0,_ZNSt8_Rb_treeIPKN5boost6system14error_categoryESt4pairIKS4_St10unique_ptrINS1_6detail12std_categoryESt14default_deleteIS9_EEESt10_Select1stISD_ENS8_12cat_ptr_lessESaISD_EE10_M_insert_ISD_NSI_11_Alloc_nodeEEESt17_Rb_tree_iteratorISD_EPSt18_Rb_tree_node_baseSO_OT_RT0_
FN:1883,_ZNSt8_Rb_treeIPKN5boost6system14error_categoryESt4pairIKS4_St10unique_ptrINS1_6detail12std_categoryESt14default_deleteIS9_EEESt10_Select1stISD_ENS8_12cat_ptr_lessESaISD_EE8_M_eraseEPSt13_Rb_tree_nodeISD_E
FNDA:0,_ZNSt8_Rb_treeIPKN5boost6system14error_categoryESt4pairIKS4_St10unique_ptrINS1_6detail12std_categoryESt14default_deleteIS9_EEESt10_Select1stISD_ENS8_12cat_ptr_lessESaISD_EE8_M_eraseEPSt13_Rb_tree_nodeISD_E
FN:1900,_ZNSt8_Rb_treeIPKN5boost6system14error_categoryESt4pairIKS4_St10unique_ptrINS1_6detail12std_categoryESt14default_deleteIS9_EEESt10_Select1stISD_ENS8_12cat_ptr_lessESaISD_EE14_M_lower_boundEPSt13_Rb_tree_nodeISD_EPSt18_Rb_tree_node_baseRS6_
FNDA:0,_ZNSt8_Rb_treeIPKN5boost6system14error_categoryESt4pairIKS4_St10unique_ptrINS1_6detail12std_categoryESt14default_deleteIS9_EEESt10_Select1stISD_ENS8_12cat_ptr_lessESaISD_EE14_M_lower_boundEPSt13_Rb_tree_nodeISD_EPSt18_Rb_tree_node_baseRS6_
FN:2061,_ZNSt8_Rb_treeIPKN5boost6system14error_categoryESt4pairIKS4_St10unique_ptrINS1_6detail12std_categoryESt14default_deleteIS9_EEESt10_Select1stISD_ENS8_12cat_ptr_lessESaISD_EE24_M_get_insert_unique_posERS6_
FNDA:0,_ZNSt8_Rb_treeIPKN5boost6system14error_categoryESt4pairIKS4_St10unique_ptrINS1_6detail12std_categoryESt14default_deleteIS9_EEESt10_Select1stISD_ENS8_12cat_ptr_lessESaISD_EE24_M_get_insert_unique_posERS6_
FN:2115,_ZNSt8_Rb_treeIPKN5boost6system14error_categoryESt4pairIKS4_St10unique_ptrINS1_6detail12std_categoryESt14default_deleteIS9_EEESt10_Select1stISD_ENS8_12cat_ptr_lessESaISD_EE16_M_insert_uniqueISD_EES5_ISt17_Rb_tree_iteratorISD_EbEOT_
FNDA:0,_ZNSt8_Rb_treeIPKN5boost6system14error_categoryESt4pairIKS4_St10unique_ptrINS1_6detail12std_categoryESt14default_deleteIS9_EEESt10_Select1stISD_ENS8_12cat_ptr_lessESaISD_EE16_M_insert_uniqueISD_EES5_ISt17_Rb_tree_iteratorISD_EbEOT_
FN:2520,_ZNSt8_Rb_treeIPKN5boost6system14error_categoryESt4pairIKS4_St10unique_ptrINS1_6detail12std_categoryESt14default_deleteIS9_EEESt10_Select1stISD_ENS8_12cat_ptr_lessESaISD_EE4findERS6_
FNDA:0,_ZNSt8_Rb_treeIPKN5boost6system14error_categoryESt4pairIKS4_St10unique_ptrINS1_6detail12std_categoryESt14default_deleteIS9_EEESt10_Select1stISD_ENS8_12cat_ptr_lessESaISD_EE4findERS6_
DA:146,0
DA:150,0
DA:173,0
DA:174,0
DA:175,0
DA:176,0
DA:177,0
DA:206,0
DA:208,0
DA:209,0
DA:210,0
DA:211,0
DA:212,0
DA:234,0
DA:235,0
DA:238,0
DA:239,0
DA:273,0
DA:274,0
DA:281,0
DA:282,0
DA:300,0
DA:302,0
DA:303,0
DA:315,0
DA:316,0
DA:523,0
DA:524,0
DA:528,0
DA:529,0
DA:547,0
DA:548,0
DA:560,0
DA:561,0
DA:564,0
DA:565,0
DA:590,0
DA:594,0
DA:595,0
DA:605,0
DA:609,0
DA:611,0
DA:612,0
DA:613,0
DA:618,0
DA:623,0
DA:624,0
DA:626,0
DA:629,0
DA:631,0
DA:632,0
DA:633,0
DA:667,0
DA:671,0
DA:672,0
DA:734,0
DA:735,0
DA:738,0
DA:739,0
DA:749,0
DA:750,0
DA:757,0
DA:775,0
DA:779,0
DA:780,0
DA:787,0
DA:788,0
DA:795,0
DA:796,0
DA:928,0
DA:983,0
DA:984,0
DA:995,0
DA:996,0
DA:1003,0
DA:1004,0
DA:1771,0
DA:1780,0
DA:1781,0
DA:1782,0
DA:1784,0
DA:1786,0
DA:1787,0
DA:1788,0
DA:1789,0
DA:1883,0
DA:1887,0
DA:1889,0
DA:1890,0
DA:1891,0
DA:1892,0
DA:1894,0
DA:1900,0
DA:1904,0
DA:1905,0
DA:1906,0
DA:1908,0
DA:1909,0
DA:2061,0
DA:2065,0
DA:2066,0
DA:2067,0
DA:2068,0
DA:2070,0
DA:2071,0
DA:2072,0
DA:2074,0
DA:2075,0
DA:2077,0
DA:2078,0
DA:2080,0
DA:2082,0
DA:2083,0
DA:2084,0
DA:2115,0
DA:2124,0
DA:2126,0
DA:2128,0
DA:2129,0
DA:2131,0
DA:2134,0
DA:2520,0
DA:2523,0
DA:2524,0
DA:2525,0
DA:2526,0
end_of_record
SF:/usr/include/c++/11/bits/move.h
FN:49,_ZSt11__addressofIKcEPT_RS1_
FNDA:0,_ZSt11__addressofIKcEPT_RS1_
FN:49,_ZSt11__addressofIcEPT_RS0_
FNDA:0,_ZSt11__addressofIcEPT_RS0_
FN:77,_ZSt7forwardIRPSt18_Rb_tree_node_baseEOT_RNSt16remove_referenceIS3_E4typeE
FNDA:0,_ZSt7forwardIRPSt18_Rb_tree_node_baseEOT_RNSt16remove_referenceIS3_E4typeE
FN:77,_ZSt7forwardIbEOT_RNSt16remove_referenceIS0_E4typeE
FNDA:0,_ZSt7forwardIbEOT_RNSt16remove_referenceIS0_E4typeE
FN:77,_ZSt7forwardIPKN5boost6system14error_categoryEEOT_RNSt16remove_referenceIS5_E4typeE
FNDA:0,_ZSt7forwardIPKN5boost6system14error_categoryEEOT_RNSt16remove_referenceIS5_E4typeE
FN:77,_ZSt7forwardISt10unique_ptrIN5boost6system6detail12std_categoryESt14default_deleteIS4_EEEOT_RNSt16remove_referenceIS8_E4typeE
FNDA:0,_ZSt7forwardISt10unique_ptrIN5boost6system6detail12std_categoryESt14default_deleteIS4_EEEOT_RNSt16remove_referenceIS8_E4typeE
FN:77,_ZSt7forwardIRKNSt7__cxx1112basic_stringIcSt11char_traitsIcESaIcEEEEOT_RNSt16remove_referenceIS8_E4typeE
FNDA:3343,_ZSt7forwardIRKNSt7__cxx1112basic_stringIcSt11char_traitsIcESaIcEEEEOT_RNSt16remove_referenceIS8_E4typeE
FN:77,_ZSt7forwardIRNSt7__cxx1112basic_stringIcSt11char_traitsIcESaIcEEEEOT_RNSt16remove_referenceIS7_E4typeE
FNDA:124,_ZSt7forwardIRNSt7__cxx1112basic_stringIcSt11char_traitsIcESaIcEEEEOT_RNSt16remove_referenceIS7_E4typeE
FN:77,_ZSt7forwardIPFvRKNSt7__cxx1112basic_stringIcSt11char_traitsIcESaIcEEEEEOT_RNSt16remove_referenceISA_E4typeE
FNDA:84,_ZSt7forwardIPFvRKNSt7__cxx1112basic_stringIcSt11char_traitsIcESaIcEEEEEOT_RNSt16remove_referenceISA_E4typeE
FN:77,_ZSt7forwardISt4pairIKPKN5boost6system14error_categoryESt10unique_ptrINS2_6detail12std_categoryESt14default_deleteIS9_EEEEOT_RNSt16remove_referenceISE_E4typeE
FNDA:0,_ZSt7forwardISt4pairIKPKN5boost6system14error_categoryESt10unique_ptrINS2_6detail12std_categoryESt14default_deleteIS9_EEEEOT_RNSt16remove_referenceISE_E4typeE
FN:77,_ZSt7forwardISt17_Rb_tree_iteratorISt4pairIKPKN5boost6system14error_categoryESt10unique_ptrINS3_6detail12std_categoryESt14default_deleteISA_EEEEEOT_RNSt16remove_referenceISG_E4typeE
FNDA:0,_ZSt7forwardISt17_Rb_tree_iteratorISt4pairIKPKN5boost6system14error_categoryESt10unique_ptrINS3_6detail12std_categoryESt14default_deleteISA_EEEEEOT_RNSt16remove_referenceISG_E4typeE
FN:77,_ZSt7forwardIRPSt13_Rb_tree_nodeISt4pairIKPKN5boost6system14error_categoryESt10unique_ptrINS3_6detail12std_categoryESt14default_deleteISA_EEEEEOT_RNSt16remove_referenceISI_E4typeE
FNDA:0,_ZSt7forwardIRPSt13_Rb_tree_nodeISt4pairIKPKN5boost6system14error_categoryESt10unique_ptrINS3_6detail12std_categoryESt14default_deleteISA_EEEEEOT_RNSt16remove_referenceISI_E4typeE
FN:104,_ZSt4moveIRSt5tupleIJPN5boost6system6detail12std_categoryESt14default_deleteIS4_EEEEONSt16remove_referenceIT_E4typeEOSB_
FNDA:0,_ZSt4moveIRSt5tupleIJPN5boost6system6detail12std_categoryESt14default_deleteIS4_EEEEONSt16remove_referenceIT_E4typeEOSB_
FN:104,_ZSt4moveIRSt4pairIKPKN5boost6system14error_categoryESt10unique_ptrINS2_6detail12std_categoryESt14default_deleteIS9_EEEEONSt16remove_referenceIT_E4typeEOSG_
FNDA:0,_ZSt4moveIRSt4pairIKPKN5boost6system14error_categoryESt10unique_ptrINS2_6detail12std_categoryESt14default_deleteIS9_EEEEONSt16remove_referenceIT_E4typeEOSG_
FN:104,_ZSt4moveIRPN5boost6system6detail12std_categoryEEONSt16remove_referenceIT_E4typeEOS7_
FNDA:0,_ZSt4moveIRPN5boost6system6detail12std_categoryEEONSt16remove_referenceIT_E4typeEOS7_
FN:104,_ZSt4moveIRSaIcEEONSt16remove_referenceIT_E4typeEOS3_
FNDA:14161,_ZSt4moveIRSaIcEEONSt16remove_referenceIT_E4typeEOS3_
FN:104,_ZSt4moveIRSt10unique_ptrIN5boost6system6detail12std_categoryESt14default_deleteIS4_EEEONSt16remove_referenceIT_E4typeEOSA_
FNDA:0,_ZSt4moveIRSt10unique_ptrIN5boost6system6detail12std_categoryESt14default_deleteIS4_EEEONSt16remove_referenceIT_E4typeEOSA_
FN:145,_ZSt9addressofIcEPT_RS0_
FNDA:0,_ZSt9addressofIcEPT_RS0_
FN:145,_ZSt9addressofIKcEPT_RS1_
FNDA:0,_ZSt9addressofIKcEPT_RS1_
DA:49,0
DA:50,0
DA:49,0
DA:50,0
DA:77,0
DA:78,0
DA:77,0
DA:78,0
DA:77,0
DA:78,0
DA:77,0
DA:78,0
DA:77,84
DA:78,84
DA:77,124
DA:78,124
DA:77,3343
DA:78,3343
DA:77,0
DA:78,0
DA:77,0
DA:78,0
DA:77,0
DA:78,0
DA:104,0
DA:105,0
DA:104,0
DA:105,0
DA:104,0
DA:105,0
DA:104,14161
DA:105,14161
DA:104,0
DA:105,0
DA:145,0
DA:146,0
DA:145,0
DA:146,0
end_of_record
SF:/usr/include/boost/system/detail/generic_category.hpp
FN:25,_ZN5boost6system6detail17strerror_r_helperEPKcS3_
FNDA:0,_ZN5boost6system6detail17strerror_r_helperEPKcS3_
FN:35,_ZN5boost6system6detail30generic_error_category_messageEiPcm
FNDA:0,_ZN5boost6system6detail30generic_error_category_messageEiPcm
FN:40,_ZN5boost6system6detail30generic_error_category_messageB5cxx11Ei
FNDA:0,_ZN5boost6system6detail30generic_error_category_messageB5cxx11Ei
DA:25,0
DA:27,0
DA:35,0
DA:37,0
DA:40,0
DA:43,0
end_of_record
SF:/usr/include/c++/11/bits/stl_construct.h
FN:80,_ZSt10destroy_atISt4pairIKPKN5boost6system14error_categoryESt10unique_ptrINS2_6detail12std_categoryESt14default_deleteIS9_EEEEvPT_
FNDA:0,_ZSt10destroy_atISt4pairIKPKN5boost6system14error_categoryESt10unique_ptrINS2_6detail12std_categoryESt14default_deleteIS9_EEEEvPT_
FN:94,_ZSt12construct_atISt4pairIKPKN5boost6system14error_categoryESt10unique_ptrINS2_6detail12std_categoryESt14default_deleteIS9_EEEJSD_EEDTgsnwcvPvLi0E_T_pispcl7declvalIT0_EEEEPSF_DpOSG_
FNDA:0,_ZSt12construct_atISt4pairIKPKN5boost6system14error_categoryESt10unique_ptrINS2_6detail12std_categoryESt14default_deleteIS9_EEEJSD_EEDTgsnwcvPvLi0E_T_pispcl7declvalIT0_EEEEPSF_DpOSG_
DA:80,0
DA:88,0
DA:89,0
DA:94,0
DA:97,0
end_of_record
SF:/usr/include/c++/11/bits/basic_string.h
FN:164,_ZNSt7__cxx1112basic_stringIcSt11char_traitsIcESaIcEE12_Alloc_hiderC2EPcRKS3_
FNDA:0,_ZNSt7__cxx1112basic_stringIcSt11char_traitsIcESaIcEE12_Alloc_hiderC2EPcRKS3_
FN:167,_ZNSt7__cxx1112basic_stringIcSt11char_traitsIcESaIcEE12_Alloc_hiderC2EPcOS3_
FNDA:9557,_ZNSt7__cxx1112basic_stringIcSt11char_traitsIcESaIcEE12_Alloc_hiderC2EPcOS3_
FN:186,_ZNSt7__cxx1112basic_stringIcSt11char_traitsIcESaIcEE7_M_dataEPc
FNDA:0,_ZNSt7__cxx1112basic_stringIcSt11char_traitsIcESaIcEE7_M_dataEPc
FN:190,_ZNSt7__cxx1112basic_stringIcSt11char_traitsIcESaIcEE9_M_lengthEm
FNDA:0,_ZNSt7__cxx1112basic_stringIcSt11char_traitsIcESaIcEE9_M_lengthEm
FN:194,_ZNKSt7__cxx1112basic_stringIcSt11char_traitsIcESaIcEE7_M_dataEv
FNDA:0,_ZNKSt7__cxx1112basic_stringIcSt11char_traitsIcESaIcEE7_M_dataEv
FN:198,_ZNSt7__cxx1112basic_stringIcSt11char_traitsIcESaIcEE13_M_local_dataEv
FNDA:0,_ZNSt7__cxx1112basic_stringIcSt11char_traitsIcESaIcEE13_M_local_dataEv
FN:208,_ZNKSt7__cxx1112basic_stringIcSt11char_traitsIcESaIcEE13_M_local_dataEv
FNDA:0,_ZNKSt7__cxx1112basic_stringIcSt11char_traitsIcESaIcEE13_M_local_dataEv
FN:218,_ZNSt7__cxx1112basic_stringIcSt11char_traitsIcESaIcEE11_M_capacityEm
FNDA:0,_ZNSt7__cxx1112basic_stringIcSt11char_traitsIcESaIcEE11_M_capacityEm
FN:222,_ZNSt7__cxx1112basic_stringIcSt11char_traitsIcESaIcEE13_M_set_lengthEm
FNDA:0,_ZNSt7__cxx1112basic_stringIcSt11char_traitsIcESaIcEE13_M_set_lengthEm
FN:229,_ZNKSt7__cxx1112basic_stringIcSt11char_traitsIcESaIcEE11_M_is_localEv
FNDA:0,_ZNKSt7__cxx1112basic_stringIcSt11char_traitsIcESaIcEE11_M_is_localEv
FN:237,_ZNSt7__cxx1112basic_stringIcSt11char_traitsIcESaIcEE10_M_disposeEv
FNDA:0,_ZNSt7__cxx1112basic_stringIcSt11char_traitsIcESaIcEE10_M_disposeEv
FN:244,_ZNSt7__cxx1112basic_stringIcSt11char_traitsIcESaIcEE10_M_destroyEm
FNDA:0,_ZNSt7__cxx1112basic_stringIcSt11char_traitsIcESaIcEE10_M_destroyEm
FN:294,_ZNSt7__cxx1112basic_stringIcSt11char_traitsIcESaIcEE16_M_get_allocatorEv
FNDA:0,_ZNSt7__cxx1112basic_stringIcSt11char_traitsIcESaIcEE16_M_get_allocatorEv
FN:298,_ZNKSt7__cxx1112basic_stringIcSt11char_traitsIcESaIcEE16_M_get_allocatorEv
FNDA:0,_ZNKSt7__cxx1112basic_stringIcSt11char_traitsIcESaIcEE16_M_get_allocatorEv
FN:328,_ZNKSt7__cxx1112basic_stringIcSt11char_traitsIcESaIcEE15_M_check_lengthEmmPKc
FNDA:0,_ZNKSt7__cxx1112basic_stringIcSt11char_traitsIcESaIcEE15_M_check_lengthEmmPKc
FN:345,_ZNKSt7__cxx1112basic_stringIcSt11char_traitsIcESaIcEE11_M_disjunctEPKc
FNDA:0,_ZNKSt7__cxx1112basic_stringIcSt11char_traitsIcESaIcEE11_M_disjunctEPKc
FN:354,_ZNSt7__cxx1112basic_stringIcSt11char_traitsIcESaIcEE7_S_copyEPcPKcm
FNDA:0,_ZNSt7__cxx1112basic_stringIcSt11char_traitsIcESaIcEE7_S_copyEPcPKcm
FN:363,_ZNSt7__cxx1112basic_stringIcSt11char_traitsIcESaIcEE7_S_moveEPcPKcm
FNDA:0,_ZNSt7__cxx1112basic_stringIcSt11char_traitsIcESaIcEE7_S_moveEPcPKcm
FN:404,_ZNSt7__cxx1112basic_stringIcSt11char_traitsIcESaIcEE13_S_copy_charsEPcPKcS7_
FNDA:0,_ZNSt7__cxx1112basic_stringIcSt11char_traitsIcESaIcEE13_S_copy_charsEPcPKcS7_
FN:439,_ZNSt7__cxx1112basic_stringIcSt11char_traitsIcESaIcEEC2Ev
FNDA:653,_ZNSt7__cxx1112basic_stringIcSt11char_traitsIcESaIcEEC2Ev
FN:533,_ZNSt7__cxx1112basic_stringIcSt11char_traitsIcESaIcEEC2IS3_EEPKcRKS3_
FNDA:0,_ZNSt7__cxx1112basic_stringIcSt11char_traitsIcESaIcEEC2IS3_EEPKcRKS3_
FN:671,_ZNSt7__cxx1112basic_stringIcSt11char_traitsIcESaIcEED2Ev
FNDA:0,_ZNSt7__cxx1112basic_stringIcSt11char_traitsIcESaIcEED2Ev
FN:689,_ZNSt7__cxx1112basic_stringIcSt11char_traitsIcESaIcEEaSEPKc
FNDA:0,_ZNSt7__cxx1112basic_stringIcSt11char_traitsIcESaIcEEaSEPKc
FN:920,_ZNKSt7__cxx1112basic_stringIcSt11char_traitsIcESaIcEE4sizeEv
FNDA:0,_ZNKSt7__cxx1112basic_stringIcSt11char_traitsIcESaIcEE4sizeEv
FN:926,_ZNKSt7__cxx1112basic_stringIcSt11char_traitsIcESaIcEE6lengthEv
FNDA:0,_ZNKSt7__cxx1112basic_stringIcSt11char_traitsIcESaIcEE6lengthEv
FN:931,_ZNKSt7__cxx1112basic_stringIcSt11char_traitsIcESaIcEE8max_sizeEv
FNDA:0,_ZNKSt7__cxx1112basic_stringIcSt11char_traitsIcESaIcEE8max_sizeEv
FN:976,_ZNKSt7__cxx1112basic_stringIcSt11char_traitsIcESaIcEE8capacityEv
FNDA:0,_ZNKSt7__cxx1112basic_stringIcSt11char_traitsIcESaIcEE8capacityEv
FN:1023,_ZNKSt7__cxx1112basic_stringIcSt11char_traitsIcESaIcEE5emptyEv
FNDA:0,_ZNKSt7__cxx1112basic_stringIcSt11char_traitsIcESaIcEE5emptyEv
FN:1160,_ZNSt7__cxx1112basic_stringIcSt11char_traitsIcESaIcEEpLERKS4_
FNDA:0,_ZNSt7__cxx1112basic_stringIcSt11char_traitsIcESaIcEEpLERKS4_
FN:1169,_ZNSt7__cxx1112basic_stringIcSt11char_traitsIcESaIcEEpLEPKc
FNDA:0,_ZNSt7__cxx1112basic_stringIcSt11char_traitsIcESaIcEEpLEPKc
FN:1213,_ZNSt7__cxx1112basic_stringIcSt11char_traitsIcESaIcEE6appendERKS4_
FNDA:0,_ZNSt7__cxx1112basic_stringIcSt11char_traitsIcESaIcEE6appendERKS4_
FN:1255,_ZNSt7__cxx1112basic_stringIcSt11char_traitsIcESaIcEE6appendEPKc
FNDA:0,_ZNSt7__cxx1112basic_stringIcSt11char_traitsIcESaIcEE6appendEPKc
FN:1456,_ZNSt7__cxx1112basic_stringIcSt11char_traitsIcESaIcEE6assignEPKc
FNDA:0,_ZNSt7__cxx1112basic_stringIcSt11char_traitsIcESaIcEE6assignEPKc
FN:2320,_ZNKSt7__cxx1112basic_stringIcSt11char_traitsIcESaIcEE5c_strEv
FNDA:0,_ZNKSt7__cxx1112basic_stringIcSt11char_traitsIcESaIcEE5c_strEv
DA:164,0
DA:165,0
DA:167,9557
DA:168,9557
DA:186,0
DA:187,0
DA:190,0
DA:191,0
DA:194,0
DA:195,0
DA:198,0
DA:201,0
DA:208,0
DA:211,0
DA:218,0
DA:219,0
DA:222,0
DA:224,0
DA:225,0
DA:226,0
DA:229,0
DA:230,0
DA:237,0
DA:239,0
DA:240,0
DA:241,0
DA:244,0
DA:245,0
DA:294,0
DA:295,0
DA:298,0
DA:299,0
DA:328,0
DA:330,0
DA:331,0
DA:332,0
DA:345,0
DA:347,0
DA:348,0
DA:354,0
DA:356,0
DA:357,0
DA:359,0
DA:360,0
DA:363,0
DA:365,0
DA:366,0
DA:368,0
DA:369,0
DA:404,0
DA:406,0
DA:439,653
DA:441,653
DA:442,653
DA:533,0
DA:534,0
DA:536,0
DA:539,0
DA:540,0
DA:671,0
DA:672,0
DA:689,0
DA:690,0
DA:920,0
DA:921,0
DA:926,0
DA:927,0
DA:931,0
DA:932,0
DA:976,0
DA:978,0
DA:979,0
DA:1023,0
DA:1024,0
DA:1160,0
DA:1161,0
DA:1169,0
DA:1170,0
DA:1213,0
DA:1214,0
DA:1255,0
DA:1258,0
DA:1259,0
DA:1260,0
DA:1456,0
DA:1459,0
DA:1460,0
DA:2320,0
DA:2321,0
end_of_record
SF:/usr/include/boost/system/detail/system_category_posix.hpp
FN:19,_ZN5boost6system6detail16is_generic_valueEi
FNDA:0,_ZN5boost6system6detail16is_generic_valueEi
FN:116,_ZN5boost6system6detail45system_category_default_error_condition_posixEi
FNDA:0,_ZN5boost6system6detail45system_category_default_error_condition_posixEi
DA:19,0
DA:106,0
DA:108,0
DA:110,0
DA:113,0
DA:116,0
DA:118,0
DA:120,0
DA:124,0
end_of_record
SF:/usr/include/c++/11/system_error
FN:100,_ZNSt3_V214error_categoryC2Ev
FNDA:0,_ZNSt3_V214error_categoryC2Ev
FN:144,_ZNKSt3_V214error_categoryeqERKS0_
FNDA:0,_ZNKSt3_V214error_categoryeqERKS0_
FN:229,_ZNKSt10error_code5valueEv
FNDA:0,_ZNKSt10error_code5valueEv
FN:232,_ZNKSt10error_code8categoryEv
FNDA:0,_ZNKSt10error_code8categoryEv
FN:303,_ZNSt15error_conditionC2EiRKNSt3_V214error_categoryE
FNDA:0,_ZNSt15error_conditionC2EiRKNSt3_V214error_categoryE
FN:331,_ZNKSt15error_condition5valueEv
FNDA:0,_ZNKSt15error_condition5valueEv
FN:334,_ZNKSt15error_condition8categoryEv
FNDA:0,_ZNKSt15error_condition8categoryEv
FN:376,_ZSteqRKSt15error_conditionS1_
FNDA:0,_ZSteqRKSt15error_conditionS1_
DA:100,0
DA:144,0
DA:145,0
DA:229,0
DA:232,0
DA:303,0
DA:304,0
DA:331,0
DA:334,0
DA:376,0
DA:379,0
DA:380,0
end_of_record
SF:/usr/include/boost/asio/detail/keyword_tss_ptr.hpp
FN:36,_ZN5boost4asio6detail15keyword_tss_ptrINS1_10call_stackINS1_23strand_executor_service11strand_implEhE7contextEEC2Ev
FNDA:0,_ZN5boost4asio6detail15keyword_tss_ptrINS1_10call_stackINS1_23strand_executor_service11strand_implEhE7contextEEC2Ev
FN:36,_ZN5boost4asio6detail15keyword_tss_ptrINS1_10call_stackINS1_14strand_service11strand_implEhE7contextEEC2Ev
FNDA:0,_ZN5boost4asio6detail15keyword_tss_ptrINS1_10call_stackINS1_14strand_service11strand_implEhE7contextEEC2Ev
FN:36,_ZN5boost4asio6detail15keyword_tss_ptrINS1_10call_stackINS1_14thread_contextENS1_16thread_info_baseEE7contextEEC2Ev
FNDA:0,_ZN5boost4asio6detail15keyword_tss_ptrINS1_10call_stackINS1_14thread_contextENS1_16thread_info_baseEE7contextEEC2Ev
FN:41,_ZN5boost4asio6detail15keyword_tss_ptrINS1_10call_stackINS1_23strand_executor_service11strand_implEhE7contextEED2Ev
FNDA:0,_ZN5boost4asio6detail15keyword_tss_ptrINS1_10call_stackINS1_23strand_executor_service11strand_implEhE7contextEED2Ev
FN:41,_ZN5boost4asio6detail15keyword_tss_ptrINS1_10call_stackINS1_14strand_service11strand_implEhE7contextEED2Ev
FNDA:0,_ZN5boost4asio6detail15keyword_tss_ptrINS1_10call_stackINS1_14strand_service11strand_implEhE7contextEED2Ev
FN:41,_ZN5boost4asio6detail15keyword_tss_ptrINS1_10call_stackINS1_14thread_contextENS1_16thread_info_baseEE7contextEED2Ev
FNDA:0,_ZN5boost4asio6detail15keyword_tss_ptrINS1_10call_stackINS1_14thread_contextENS1_16thread_info_baseEE7contextEED2Ev
DA:36,0
DA:37,0
DA:38,0
DA:36,0
DA:37,0
DA:38,0
DA:36,0
DA:37,0
DA:38,0
DA:41,0
DA:43,0
DA:41,0
DA:43,0
DA:41,0
DA:43,0
end_of_record
SF:/usr/include/c++/11/bits/unique_ptr.h
FN:79,_ZNKSt14default_deleteIN5boost6system6detail12std_categoryEEclEPS3_
FNDA:0,_ZNKSt14default_deleteIN5boost6system6detail12std_categoryEEclEPS3_
FN:155,_ZNSt15__uniq_ptr_implIN5boost6system6detail12std_categoryESt14default_deleteIS3_EEC2EPS3_
FNDA:0,_ZNSt15__uniq_ptr_implIN5boost6system6detail12std_categoryESt14default_deleteIS3_EEC2EPS3_
FN:161,_ZNSt15__uniq_ptr_implIN5boost6system6detail12std_categoryESt14default_deleteIS3_EEC2EOS6_
FNDA:0,_ZNSt15__uniq_ptr_implIN5boost6system6detail12std_categoryESt14default_deleteIS3_EEC2EOS6_
FN:172,_ZNSt15__uniq_ptr_implIN5boost6system6detail12std_categoryESt14default_deleteIS3_EE6_M_ptrEv
FNDA:0,_ZNSt15__uniq_ptr_implIN5boost6system6detail12std_categoryESt14default_deleteIS3_EE6_M_ptrEv
FN:173,_ZNKSt15__uniq_ptr_implIN5boost6system6detail12std_categoryESt14default_deleteIS3_EE6_M_ptrEv
FNDA:0,_ZNKSt15__uniq_ptr_implIN5boost6system6detail12std_categoryESt14default_deleteIS3_EE6_M_ptrEv
FN:174,_ZNSt15__uniq_ptr_implIN5boost6system6detail12std_categoryESt14default_deleteIS3_EE10_M_deleterEv
FNDA:0,_ZNSt15__uniq_ptr_implIN5boost6system6detail12std_categoryESt14default_deleteIS3_EE10_M_deleterEv
FN:211,_ZNSt15__uniq_ptr_dataIN5boost6system6detail12std_categoryESt14default_deleteIS3_ELb1ELb1EEC2EOS6_
FNDA:0,_ZNSt15__uniq_ptr_dataIN5boost6system6detail12std_categoryESt14default_deleteIS3_ELb1ELb1EEC2EOS6_
FN:281,_ZNSt10unique_ptrIN5boost6system6detail12std_categoryESt14default_deleteIS3_EEC2IS5_vEEPS3_
FNDA:0,_ZNSt10unique_ptrIN5boost6system6detail12std_categoryESt14default_deleteIS3_EEC2IS5_vEEPS3_
FN:327,_ZNSt10unique_ptrIN5boost6system6detail12std_categoryESt14default_deleteIS3_EEC2EOS6_
FNDA:0,_ZNSt10unique_ptrIN5boost6system6detail12std_categoryESt14default_deleteIS3_EEC2EOS6_
FN:355,_ZNSt10unique_ptrIN5boost6system6detail12std_categoryESt14default_deleteIS3_EED2Ev
FNDA:0,_ZNSt10unique_ptrIN5boost6system6detail12std_categoryESt14default_deleteIS3_EED2Ev
FN:405,_ZNKSt10unique_ptrIN5boost6system6detail12std_categoryESt14default_deleteIS3_EEdeEv
FNDA:0,_ZNKSt10unique_ptrIN5boost6system6detail12std_categoryESt14default_deleteIS3_EEdeEv
FN:421,_ZNKSt10unique_ptrIN5boost6system6detail12std_categoryESt14default_deleteIS3_EE3getEv
FNDA:0,_ZNKSt10unique_ptrIN5boost6system6detail12std_categoryESt14default_deleteIS3_EE3getEv
FN:426,_ZNSt10unique_ptrIN5boost6system6detail12std_categoryESt14default_deleteIS3_EE11get_deleterEv
FNDA:0,_ZNSt10unique_ptrIN5boost6system6detail12std_categoryESt14default_deleteIS3_EE11get_deleterEv
DA:79,0
DA:85,0
DA:86,0
DA:155,0
DA:161,0
DA:162,0
DA:163,0
DA:172,0
DA:173,0
DA:174,0
DA:211,0
DA:281,0
DA:282,0
DA:283,0
DA:327,0
DA:355,0
DA:359,0
DA:360,0
DA:361,0
DA:362,0
DA:363,0
DA:405,0
DA:407,0
DA:408,0
DA:421,0
DA:422,0
DA:426,0
DA:427,0
end_of_record
SF:/usr/include/c++/11/bits/char_traits.h
FN:106,_ZN9__gnu_cxx11char_traitsIcE2eqERKcS3_
FNDA:0,_ZN9__gnu_cxx11char_traitsIcE2eqERKcS3_
FN:167,_ZN9__gnu_cxx11char_traitsIcE6lengthEPKc
FNDA:0,_ZN9__gnu_cxx11char_traitsIcE6lengthEPKc
FN:190,_ZN9__gnu_cxx11char_traitsIcE4moveEPcPKcm
FNDA:0,_ZN9__gnu_cxx11char_traitsIcE4moveEPcPKcm
FN:240,_ZN9__gnu_cxx11char_traitsIcE4copyEPcPKcm
FNDA:0,_ZN9__gnu_cxx11char_traitsIcE4copyEPcPKcm
FN:356,_ZNSt11char_traitsIcE6assignERcRKc
FNDA:0,_ZNSt11char_traitsIcE6assignERcRKc
FN:393,_ZNSt11char_traitsIcE6lengthEPKc
FNDA:0,_ZNSt11char_traitsIcE6lengthEPKc
FN:417,_ZNSt11char_traitsIcE4moveEPcPKcm
FNDA:0,_ZNSt11char_traitsIcE4moveEPcPKcm
FN:429,_ZNSt11char_traitsIcE4copyEPcPKcm
FNDA:0,_ZNSt11char_traitsIcE4copyEPcPKcm
DA:106,0
DA:107,0
DA:167,0
DA:170,0
DA:171,0
DA:172,0
DA:173,0
DA:190,0
DA:193,0
DA:194,0
DA:196,0
DA:198,0
DA:199,0
DA:203,0
DA:204,0
DA:205,0
DA:206,0
DA:230,0
DA:233,0
DA:234,0
DA:240,0
DA:244,0
DA:245,0
DA:290,0
DA:356,0
DA:357,0
DA:393,0
DA:396,0
DA:397,0
DA:399,0
DA:417,0
DA:419,0
DA:420,0
DA:422,0
DA:423,0
DA:425,0
DA:429,0
DA:431,0
DA:432,0
DA:434,0
DA:435,0
DA:437,0
end_of_record
SF:/usr/include/c++/11/bits/allocator.h
FN:156,_ZNSaISt13_Rb_tree_nodeISt4pairIKPKN5boost6system14error_categoryESt10unique_ptrINS2_6detail12std_categoryESt14default_deleteIS9_EEEEEC2Ev
FNDA:0,_ZNSaISt13_Rb_tree_nodeISt4pairIKPKN5boost6system14error_categoryESt10unique_ptrINS2_6detail12std_categoryESt14default_deleteIS9_EEEEEC2Ev
FN:174,_ZNSaISt13_Rb_tree_nodeISt4pairIKPKN5boost6system14error_categoryESt10unique_ptrINS2_6detail12std_categoryESt14default_deleteIS9_EEEEED2Ev
FNDA:0,_ZNSaISt13_Rb_tree_nodeISt4pairIKPKN5boost6system14error_categoryESt10unique_ptrINS2_6detail12std_categoryESt14default_deleteIS9_EEEEED2Ev
DA:156,0
DA:174,0
DA:182,0
DA:183,0
DA:185,0
DA:193,0
DA:195,0
DA:196,0
DA:199,0
end_of_record
SF:/usr/include/boost/asio/execution_context.hpp
FN:312,_ZN5boost4asio17execution_context2idC2Ev
FNDA:0,_ZN5boost4asio17execution_context2idC2Ev
DA:312,0
end_of_record
SF:/media/sf_Share_folder/UI/Spotify-rep-1-1/project/include/controller/DetailedPlaylistController.hpp
end_of_record
SF:/usr/include/c++/11/bits/ptr_traits.h
FN:149,_ZNSt14pointer_traitsIPKcE10pointer_toERS0_
FNDA:0,_ZNSt14pointer_traitsIPKcE10pointer_toERS0_
FN:149,_ZNSt14pointer_traitsIPcE10pointer_toERc
FNDA:0,_ZNSt14pointer_traitsIPcE10pointer_toERc
DA:149,0
DA:150,0
DA:149,0
DA:150,0
end_of_record
SF:/usr/include/c++/11/new
FN:174,_ZnwmPv
FNDA:0,_ZnwmPv
DA:174,0
DA:175,0
end_of_record
SF:/usr/include/c++/11/bits/alloc_traits.h
FN:463,_ZNSt16allocator_traitsISaISt13_Rb_tree_nodeISt4pairIKPKN5boost6system14error_categoryESt10unique_ptrINS3_6detail12std_categoryESt14default_deleteISA_EEEEEE8allocateERSG_m
FNDA:0,_ZNSt16allocator_traitsISaISt13_Rb_tree_nodeISt4pairIKPKN5boost6system14error_categoryESt10unique_ptrINS3_6detail12std_categoryESt14default_deleteISA_EEEEEE8allocateERSG_m
FN:463,_ZNSt16allocator_traitsISaIcEE8allocateERS0_m
FNDA:0,_ZNSt16allocator_traitsISaIcEE8allocateERS0_m
FN:495,_ZNSt16allocator_traitsISaISt13_Rb_tree_nodeISt4pairIKPKN5boost6system14error_categoryESt10unique_ptrINS3_6detail12std_categoryESt14default_deleteISA_EEEEEE10deallocateERSG_PSF_m
FNDA:0,_ZNSt16allocator_traitsISaISt13_Rb_tree_nodeISt4pairIKPKN5boost6system14error_categoryESt10unique_ptrINS3_6detail12std_categoryESt14default_deleteISA_EEEEEE10deallocateERSG_PSF_m
FN:495,_ZNSt16allocator_traitsISaIcEE10deallocateERS0_Pcm
FNDA:0,_ZNSt16allocator_traitsISaIcEE10deallocateERS0_Pcm
FN:511,_ZNSt16allocator_traitsISaISt13_Rb_tree_nodeISt4pairIKPKN5boost6system14error_categoryESt10unique_ptrINS3_6detail12std_categoryESt14default_deleteISA_EEEEEE9constructISE_JSE_EEEvRSG_PT_DpOT0_
FNDA:0,_ZNSt16allocator_traitsISaISt13_Rb_tree_nodeISt4pairIKPKN5boost6system14error_categoryESt10unique_ptrINS3_6detail12std_categoryESt14default_deleteISA_EEEEEE9constructISE_JSE_EEEvRSG_PT_DpOT0_
FN:531,_ZNSt16allocator_traitsISaISt13_Rb_tree_nodeISt4pairIKPKN5boost6system14error_categoryESt10unique_ptrINS3_6detail12std_categoryESt14default_deleteISA_EEEEEE7destroyISE_EEvRSG_PT_
FNDA:0,_ZNSt16allocator_traitsISaISt13_Rb_tree_nodeISt4pairIKPKN5boost6system14error_categoryESt10unique_ptrINS3_6detail12std_categoryESt14default_deleteISA_EEEEEE7destroyISE_EEvRSG_PT_
FN:547,_ZNSt16allocator_traitsISaIcEE8max_sizeERKS0_
FNDA:0,_ZNSt16allocator_traitsISaIcEE8max_sizeERKS0_
DA:463,0
DA:464,0
DA:463,0
DA:464,0
DA:495,0
DA:496,0
DA:495,0
DA:496,0
DA:511,0
DA:518,0
DA:520,0
DA:531,0
DA:537,0
DA:539,0
DA:547,0
DA:552,0
end_of_record
SF:/usr/include/boost/system/system_error.hpp
FN:47,_ZN5boost6system12system_errorD0Ev
FNDA:0,_ZN5boost6system12system_errorD0Ev
FN:47,_ZN5boost6system12system_errorD2Ev
FNDA:0,_ZN5boost6system12system_errorD2Ev
FN:59,_ZNK5boost6system12system_error4whatEv
FNDA:0,_ZNK5boost6system12system_error4whatEv
DA:47,0
DA:47,0
DA:59,0
DA:62,0
DA:68,0
DA:69,0
DA:70,0
DA:73,0
DA:76,0
end_of_record
SF:/usr/include/c++/11/bits/basic_string.tcc
FN:132,_ZNSt7__cxx1112basic_stringIcSt11char_traitsIcESaIcEE9_M_createERmm
FNDA:0,_ZNSt7__cxx1112basic_stringIcSt11char_traitsIcESaIcEE9_M_createERmm
FN:206,_ZNSt7__cxx1112basic_stringIcSt11char_traitsIcESaIcEE12_M_constructIPKcEEvT_S8_St20forward_iterator_tag
FNDA:0,_ZNSt7__cxx1112basic_stringIcSt11char_traitsIcESaIcEE12_M_constructIPKcEEvT_S8_St20forward_iterator_tag
FN:300,_ZNSt7__cxx1112basic_stringIcSt11char_traitsIcESaIcEE9_M_mutateEmmPKcm
FNDA:0,_ZNSt7__cxx1112basic_stringIcSt11char_traitsIcESaIcEE9_M_mutateEmmPKcm
FN:384,_ZNSt7__cxx1112basic_stringIcSt11char_traitsIcESaIcEE9_M_appendEPKcm
FNDA:0,_ZNSt7__cxx1112basic_stringIcSt11char_traitsIcESaIcEE9_M_appendEPKcm
FN:448,_ZNSt7__cxx1112basic_stringIcSt11char_traitsIcESaIcEE10_M_replaceEmmPKcm
FNDA:0,_ZNSt7__cxx1112basic_stringIcSt11char_traitsIcESaIcEE10_M_replaceEmmPKcm
DA:132,0
DA:137,0
DA:138,0
DA:143,0
DA:145,0
DA:147,0
DA:148,0
DA:153,0
DA:206,0
DA:211,0
DA:212,0
DA:215,0
DA:217,0
DA:219,0
DA:220,0
DA:225,0
DA:232,0
DA:233,0
DA:300,0
DA:304,0
DA:306,0
DA:307,0
DA:309,0
DA:310,0
DA:311,0
DA:312,0
DA:313,0
DA:314,0
DA:315,0
DA:317,0
DA:318,0
DA:319,0
DA:320,0
DA:384,0
DA:387,0
DA:389,0
DA:391,0
DA:392,0
DA:395,0
DA:397,0
DA:398,0
DA:448,0
DA:452,0
DA:454,0
DA:455,0
DA:457,0
DA:459,0
DA:461,0
DA:462,0
DA:464,0
DA:465,0
DA:466,0
DA:467,0
DA:472,0
DA:473,0
DA:474,0
DA:475,0
DA:476,0
DA:478,0
DA:479,0
DA:480,0
DA:484,0
DA:485,0
DA:489,0
DA:490,0
DA:491,0
DA:498,0
DA:500,0
DA:501,0
end_of_record
SF:/usr/include/c++/11/bits/std_mutex.h
FN:98,_ZNSt5mutex4lockEv
FNDA:0,_ZNSt5mutex4lockEv
FN:115,_ZNSt5mutex6unlockEv
FNDA:0,_ZNSt5mutex6unlockEv
FN:228,_ZNSt10lock_guardISt5mutexEC2ERS0_
FNDA:0,_ZNSt10lock_guardISt5mutexEC2ERS0_
FN:234,_ZNSt10lock_guardISt5mutexED2Ev
FNDA:0,_ZNSt10lock_guardISt5mutexED2Ev
DA:98,0
DA:100,0
DA:103,0
DA:104,0
DA:105,0
DA:115,0
DA:118,0
DA:119,0
DA:228,0
DA:229,0
DA:234,0
DA:235,0
end_of_record
SF:/usr/include/c++/11/ext/type_traits.h
FN:152,_ZN9__gnu_cxx17__is_null_pointerIKcEEbPT_
FNDA:0,_ZN9__gnu_cxx17__is_null_pointerIKcEEbPT_
DA:152,0
DA:153,0
end_of_record
SF:/usr/include/boost/asio/impl/error.ipp
FN:35,_ZNK5boost4asio5error6detail14netdb_category4nameEv
FNDA:0,_ZNK5boost4asio5error6detail14netdb_category4nameEv
FN:40,_ZNK5boost4asio5error6detail14netdb_category7messageB5cxx11Ei
FNDA:0,_ZNK5boost4asio5error6detail14netdb_category7messageB5cxx11Ei
FN:56,_ZN5boost4asio5error18get_netdb_categoryEv
FNDA:0,_ZN5boost4asio5error18get_netdb_categoryEv
FN:67,_ZNK5boost4asio5error6detail17addrinfo_category4nameEv
FNDA:0,_ZNK5boost4asio5error6detail17addrinfo_category4nameEv
FN:72,_ZNK5boost4asio5error6detail17addrinfo_category7messageB5cxx11Ei
FNDA:0,_ZNK5boost4asio5error6detail17addrinfo_category7messageB5cxx11Ei
FN:84,_ZN5boost4asio5error21get_addrinfo_categoryEv
FNDA:0,_ZN5boost4asio5error21get_addrinfo_categoryEv
FN:97,_ZNK5boost4asio5error6detail13misc_category4nameEv
FNDA:0,_ZNK5boost4asio5error6detail13misc_category4nameEv
FN:102,_ZNK5boost4asio5error6detail13misc_category7messageB5cxx11Ei
FNDA:0,_ZNK5boost4asio5error6detail13misc_category7messageB5cxx11Ei
FN:118,_ZN5boost4asio5error17get_misc_categoryEv
FNDA:0,_ZN5boost4asio5error17get_misc_categoryEv
DA:35,0
DA:37,0
DA:40,0
DA:42,0
DA:43,0
DA:44,0
DA:45,0
DA:46,0
DA:47,0
DA:48,0
DA:49,0
DA:50,0
DA:56,0
DA:59,0
DA:67,0
DA:69,0
DA:72,0
DA:74,0
DA:75,0
DA:76,0
DA:77,0
DA:78,0
DA:84,0
DA:87,0
DA:97,0
DA:99,0
DA:102,0
DA:104,0
DA:105,0
DA:106,0
DA:107,0
DA:108,0
DA:109,0
DA:110,0
DA:111,0
DA:112,0
DA:118,0
DA:121,0
end_of_record
SF:/media/sf_Share_folder/UI/Spotify-rep-1-1/project/src/controller/DetailedPlaylistController.cpp
FN:6,_ZN26DetailedPlaylistController11handleInputENSt7__cxx1112basic_stringIcSt11char_traitsIcESaIcEEE
FNDA:7,_ZN26DetailedPlaylistController11handleInputENSt7__cxx1112basic_stringIcSt11char_traitsIcESaIcEEE
FN:90,_ZN26DetailedPlaylistController17addSongToPlaylistERKNSt7__cxx1112basic_stringIcSt11char_traitsIcESaIcEEES7_
FNDA:1,_ZN26DetailedPlaylistController17addSongToPlaylistERKNSt7__cxx1112basic_stringIcSt11char_traitsIcESaIcEEES7_
FN:98,_ZN26DetailedPlaylistController22removeSongFromPlaylistERKNSt7__cxx1112basic_stringIcSt11char_traitsIcESaIcEEES7_
FNDA:1,_ZN26DetailedPlaylistController22removeSongFromPlaylistERKNSt7__cxx1112basic_stringIcSt11char_traitsIcESaIcEEES7_
FN:106,_ZN26DetailedPlaylistController4backEv
FNDA:1,_ZN26DetailedPlaylistController4backEv
FN:111,_ZN26DetailedPlaylistController19showMediafileInListERKNSt7__cxx1112basic_stringIcSt11char_traitsIcESaIcEEE
FNDA:7,_ZN26DetailedPlaylistController19showMediafileInListERKNSt7__cxx1112basic_stringIcSt11char_traitsIcESaIcEEE
DA:6,7
DA:7,7
DA:10,7
DA:11,7
DA:14,7
DA:17,7
DA:20,7
DA:21,2
DA:22,2
DA:23,2
DA:24,2
DA:25,4
DA:26,2
DA:27,1
DA:29,1
DA:31,2
DA:32,2
DA:33,2
DA:34,2
DA:35,2
DA:36,2
DA:37,2
DA:38,4
DA:39,2
DA:40,1
DA:42,1
DA:45,0
DA:47,2
DA:48,2
DA:49,1
DA:50,1
DA:51,1
DA:52,1
DA:53,2
DA:54,1
DA:55,1
DA:57,0
DA:59,1
DA:60,1
DA:61,1
DA:62,1
DA:63,1
DA:65,1
DA:66,1
DA:67,1
DA:68,1
DA:69,2
DA:70,1
DA:71,1
DA:72,2
DA:73,2
DA:74,1
DA:75,1
DA:76,1
DA:77,1
DA:79,0
DA:81,1
DA:82,1
DA:84,7
DA:86,7
DA:90,1
DA:91,1
DA:92,1
DA:93,1
DA:94,1
DA:98,1
DA:99,1
DA:100,2
DA:101,1
DA:102,1
DA:106,1
DA:107,1
DA:111,7
DA:112,7
DA:113,7
DA:114,7
end_of_record
SF:/usr/include/c++/11/type_traits
FN:3419,_ZSt21is_constant_evaluatedv
FNDA:0,_ZSt21is_constant_evaluatedv
DA:3419,0
DA:3420,0
end_of_record
SF:/usr/include/boost/asio/error.hpp
FN:228,_ZN5boost4asio5error19get_system_categoryEv
FNDA:0,_ZN5boost4asio5error19get_system_categoryEv
DA:228,0
DA:230,0
end_of_record
SF:/usr/include/c++/11/bits/std_function.h
FN:247,_ZNKSt14_Function_base8_M_emptyEv
FNDA:5131,_ZNKSt14_Function_base8_M_emptyEv
FN:586,_ZNKSt8functionIFvRKNSt7__cxx1112basic_stringIcSt11char_traitsIcESaIcEEERS5_PFvS7_EEEclES7_S8_SA_
FNDA:21,_ZNKSt8functionIFvRKNSt7__cxx1112basic_stringIcSt11char_traitsIcESaIcEEERS5_PFvS7_EEEclES7_S8_SA_
DA:247,5131
DA:586,21
DA:588,21
DA:589,0
DA:590,21
end_of_record
SF:/usr/include/c++/11/bits/stl_algobase.h
FN:313,_ZSt12__niter_baseIPcET_S1_
FNDA:0,_ZSt12__niter_baseIPcET_S1_
FN:313,_ZSt12__niter_baseIPKcET_S2_
FNDA:0,_ZSt12__niter_baseIPKcET_S2_
FN:335,_ZSt12__niter_wrapIPcET_RKS1_S1_
FNDA:0,_ZSt12__niter_wrapIPcET_RKS1_S1_
FN:380,_ZNSt11__copy_moveILb0ELb0ESt26random_access_iterator_tagE8__copy_mIPKcPcEET0_T_S7_S6_
FNDA:0,_ZNSt11__copy_moveILb0ELb0ESt26random_access_iterator_tagE8__copy_mIPKcPcEET0_T_S7_S6_
FN:420,_ZNSt11__copy_moveILb0ELb1ESt26random_access_iterator_tagE8__copy_mIcEEPT_PKS3_S6_S4_
FNDA:0,_ZNSt11__copy_moveILb0ELb1ESt26random_access_iterator_tagE8__copy_mIcEEPT_PKS3_S6_S4_
FN:486,_ZSt14__copy_move_a2ILb0EPKcPcET1_T0_S4_S3_
FNDA:0,_ZSt14__copy_move_a2ILb0EPKcPcET1_T0_S4_S3_
FN:521,_ZSt14__copy_move_a1ILb0EPKcPcET1_T0_S4_S3_
FNDA:0,_ZSt14__copy_move_a1ILb0EPKcPcET1_T0_S4_S3_
FN:527,_ZSt13__copy_move_aILb0EPKcPcET1_T0_S4_S3_
FNDA:0,_ZSt13__copy_move_aILb0EPKcPcET1_T0_S4_S3_
FN:611,_ZSt4copyIPKcPcET0_T_S4_S3_
FNDA:0,_ZSt4copyIPKcPcET0_T_S4_S3_
DA:313,0
DA:315,0
DA:313,0
DA:315,0
DA:335,0
DA:336,0
DA:380,0
DA:383,0
DA:385,0
DA:386,0
DA:387,0
DA:389,0
DA:420,0
DA:429,0
DA:430,0
DA:431,0
DA:432,0
DA:486,0
DA:490,0
DA:492,0
DA:495,0
DA:521,0
DA:522,0
DA:527,0
DA:529,0
DA:532,0
DA:611,0
DA:620,0
end_of_record
SF:/usr/include/c++/11/bits/shared_ptr.h
end_of_record
SF:/usr/include/boost/system/detail/std_interoperability.hpp
FN:34,_ZN5boost6system6detail12std_categoryC2EPKNS0_14error_categoryEj
FNDA:0,_ZN5boost6system6detail12std_categoryC2EPKNS0_14error_categoryEj
FN:50,_ZNK5boost6system6detail12std_category4nameEv
FNDA:0,_ZNK5boost6system6detail12std_category4nameEv
FN:55,_ZNK5boost6system6detail12std_category7messageB5cxx11Ei
FNDA:0,_ZNK5boost6system6detail12std_category7messageB5cxx11Ei
FN:60,_ZNK5boost6system6detail12std_category23default_error_conditionEi
FNDA:0,_ZNK5boost6system6detail12std_category23default_error_conditionEi
FN:75,_ZNK5boost6system6detail12cat_ptr_lessclEPKNS0_14error_categoryES5_
FNDA:0,_ZNK5boost6system6detail12cat_ptr_lessclEPKNS0_14error_categoryES5_
FN:81,_ZN5boost6system6detail15to_std_categoryERKNS0_14error_categoryE
FNDA:0,_ZN5boost6system6detail15to_std_categoryERKNS0_14error_categoryE
FN:117,_ZNK5boost6system6detail12std_category10equivalentEiRKSt15error_condition
FNDA:0,_ZNK5boost6system6detail12std_category10equivalentEiRKSt15error_condition
FN:146,_ZNK5boost6system6detail12std_category10equivalentERKSt10error_codei
FNDA:0,_ZNK5boost6system6detail12std_category10equivalentERKSt10error_codei
DA:34,0
DA:48,0
DA:50,0
DA:52,0
DA:55,0
DA:57,0
DA:60,0
DA:62,0
DA:75,0
DA:77,0
DA:81,0
DA:83,0
DA:85,0
DA:86,0
DA:88,0
DA:90,0
DA:91,0
DA:97,0
DA:100,0
DA:102,0
DA:104,0
DA:106,0
DA:108,0
DA:110,0
DA:111,0
DA:113,0
DA:114,0
DA:117,0
DA:119,0
DA:121,0
DA:122,0
DA:124,0
DA:126,0
DA:127,0
DA:132,0
DA:134,0
DA:135,0
DA:142,0
DA:146,0
DA:148,0
DA:150,0
DA:151,0
DA:153,0
DA:155,0
DA:156,0
DA:161,0
DA:163,0
DA:164,0
DA:168,0
DA:170,0
DA:174,0
end_of_record
SF:/usr/include/c++/11/bits/stl_iterator_base_types.h
FN:238,_ZSt19__iterator_categoryIPKcENSt15iterator_traitsIT_E17iterator_categoryERKS3_
FNDA:0,_ZSt19__iterator_categoryIPKcENSt15iterator_traitsIT_E17iterator_categoryERKS3_
DA:238,0
DA:239,0
end_of_record
SF:/usr/include/x86_64-linux-gnu/c++/11/bits/gthr-default.h
FN:300,_ZL18__gthread_active_pv
FNDA:0,_ZL18__gthread_active_pv
FN:746,_ZL20__gthread_mutex_lockP15pthread_mutex_t
FNDA:0,_ZL20__gthread_mutex_lockP15pthread_mutex_t
FN:776,_ZL22__gthread_mutex_unlockP15pthread_mutex_t
FNDA:0,_ZL22__gthread_mutex_unlockP15pthread_mutex_t
DA:300,0
DA:302,0
DA:746,0
DA:748,0
DA:749,0
DA:751,0
DA:776,0
DA:778,0
DA:779,0
DA:781,0
end_of_record
SF:/usr/include/c++/11/ext/aligned_buffer.h
FN:64,_ZN9__gnu_cxx16__aligned_membufISt4pairIKPKN5boost6system14error_categoryESt10unique_ptrINS3_6detail12std_categoryESt14default_deleteISA_EEEE7_M_addrEv
FNDA:0,_ZN9__gnu_cxx16__aligned_membufISt4pairIKPKN5boost6system14error_categoryESt10unique_ptrINS3_6detail12std_categoryESt14default_deleteISA_EEEE7_M_addrEv
FN:68,_ZNK9__gnu_cxx16__aligned_membufISt4pairIKPKN5boost6system14error_categoryESt10unique_ptrINS3_6detail12std_categoryESt14default_deleteISA_EEEE7_M_addrEv
FNDA:0,_ZNK9__gnu_cxx16__aligned_membufISt4pairIKPKN5boost6system14error_categoryESt10unique_ptrINS3_6detail12std_categoryESt14default_deleteISA_EEEE7_M_addrEv
FN:72,_ZN9__gnu_cxx16__aligned_membufISt4pairIKPKN5boost6system14error_categoryESt10unique_ptrINS3_6detail12std_categoryESt14default_deleteISA_EEEE6_M_ptrEv
FNDA:0,_ZN9__gnu_cxx16__aligned_membufISt4pairIKPKN5boost6system14error_categoryESt10unique_ptrINS3_6detail12std_categoryESt14default_deleteISA_EEEE6_M_ptrEv
FN:76,_ZNK9__gnu_cxx16__aligned_membufISt4pairIKPKN5boost6system14error_categoryESt10unique_ptrINS3_6detail12std_categoryESt14default_deleteISA_EEEE6_M_ptrEv
FNDA:0,_ZNK9__gnu_cxx16__aligned_membufISt4pairIKPKN5boost6system14error_categoryESt10unique_ptrINS3_6detail12std_categoryESt14default_deleteISA_EEEE6_M_ptrEv
DA:64,0
DA:65,0
DA:68,0
DA:69,0
DA:72,0
DA:73,0
DA:76,0
DA:77,0
end_of_record
SF:/usr/include/c++/11/tuple
FN:80,_ZNSt10_Head_baseILm1ESt14default_deleteIN5boost6system6detail12std_categoryEELb1EEC2Ev
FNDA:0,_ZNSt10_Head_baseILm1ESt14default_deleteIN5boost6system6detail12std_categoryEELb1EEC2Ev
FN:124,_ZNSt10_Head_baseILm1ESt14default_deleteIN5boost6system6detail12std_categoryEELb1EE7_M_headERS6_
FNDA:0,_ZNSt10_Head_baseILm1ESt14default_deleteIN5boost6system6detail12std_categoryEELb1EE7_M_headERS6_
FN:189,_ZNSt10_Head_baseILm0EPN5boost6system6detail12std_categoryELb0EEC2Ev
FNDA:0,_ZNSt10_Head_baseILm0EPN5boost6system6detail12std_categoryELb0EEC2Ev
FN:233,_ZNSt10_Head_baseILm0EPN5boost6system6detail12std_categoryELb0EE7_M_headERS5_
FNDA:0,_ZNSt10_Head_baseILm0EPN5boost6system6detail12std_categoryELb0EE7_M_headERS5_
FN:236,_ZNSt10_Head_baseILm0EPN5boost6system6detail12std_categoryELb0EE7_M_headERKS5_
FNDA:0,_ZNSt10_Head_baseILm0EPN5boost6system6detail12std_categoryELb0EE7_M_headERKS5_
FN:268,_ZNSt11_Tuple_implILm0EJPN5boost6system6detail12std_categoryESt14default_deleteIS3_EEE7_M_headERS7_
FNDA:0,_ZNSt11_Tuple_implILm0EJPN5boost6system6detail12std_categoryESt14default_deleteIS3_EEE7_M_headERS7_
FN:271,_ZNSt11_Tuple_implILm0EJPN5boost6system6detail12std_categoryESt14default_deleteIS3_EEE7_M_headERKS7_
FNDA:0,_ZNSt11_Tuple_implILm0EJPN5boost6system6detail12std_categoryESt14default_deleteIS3_EEE7_M_headERKS7_
FN:279,_ZNSt11_Tuple_implILm0EJPN5boost6system6detail12std_categoryESt14default_deleteIS3_EEEC2Ev
FNDA:0,_ZNSt11_Tuple_implILm0EJPN5boost6system6detail12std_categoryESt14default_deleteIS3_EEEC2Ev
FN:301,_ZNSt11_Tuple_implILm0EJPN5boost6system6detail12std_categoryESt14default_deleteIS3_EEEC2EOS7_
FNDA:0,_ZNSt11_Tuple_implILm0EJPN5boost6system6detail12std_categoryESt14default_deleteIS3_EEEC2EOS7_
FN:424,_ZNSt11_Tuple_implILm1EJSt14default_deleteIN5boost6system6detail12std_categoryEEEE7_M_headERS6_
FNDA:0,_ZNSt11_Tuple_implILm1EJSt14default_deleteIN5boost6system6detail12std_categoryEEEE7_M_headERS6_
FN:430,_ZNSt11_Tuple_implILm1EJSt14default_deleteIN5boost6system6detail12std_categoryEEEEC2Ev
FNDA:0,_ZNSt11_Tuple_implILm1EJSt14default_deleteIN5boost6system6detail12std_categoryEEEEC2Ev
FN:454,_ZNSt11_Tuple_implILm1EJSt14default_deleteIN5boost6system6detail12std_categoryEEEEC2EOS6_
FNDA:0,_ZNSt11_Tuple_implILm1EJSt14default_deleteIN5boost6system6detail12std_categoryEEEEC2EOS6_
FN:1049,_ZNSt5tupleIJPN5boost6system6detail12std_categoryESt14default_deleteIS3_EEEC2ILb1ELb1EEEv
FNDA:0,_ZNSt5tupleIJPN5boost6system6detail12std_categoryESt14default_deleteIS3_EEEC2ILb1ELb1EEEv
FN:1090,_ZNSt5tupleIJPN5boost6system6detail12std_categoryESt14default_deleteIS3_EEEC2EOS7_
FNDA:0,_ZNSt5tupleIJPN5boost6system6detail12std_categoryESt14default_deleteIS3_EEEC2EOS7_
FN:1377,_ZSt12__get_helperILm1ESt14default_deleteIN5boost6system6detail12std_categoryEEJEERT0_RSt11_Tuple_implIXT_EJS6_DpT1_EE
FNDA:0,_ZSt12__get_helperILm1ESt14default_deleteIN5boost6system6detail12std_categoryEEJEERT0_RSt11_Tuple_implIXT_EJS6_DpT1_EE
FN:1377,_ZSt12__get_helperILm0EPN5boost6system6detail12std_categoryEJSt14default_deleteIS3_EEERT0_RSt11_Tuple_implIXT_EJS7_DpT1_EE
FNDA:0,_ZSt12__get_helperILm0EPN5boost6system6detail12std_categoryEJSt14default_deleteIS3_EEERT0_RSt11_Tuple_implIXT_EJS7_DpT1_EE
FN:1382,_ZSt12__get_helperILm0EPN5boost6system6detail12std_categoryEJSt14default_deleteIS3_EEERKT0_RKSt11_Tuple_implIXT_EJS7_DpT1_EE
FNDA:0,_ZSt12__get_helperILm0EPN5boost6system6detail12std_categoryEJSt14default_deleteIS3_EEERKT0_RKSt11_Tuple_implIXT_EJS7_DpT1_EE
FN:1393,_ZSt3getILm1EJPN5boost6system6detail12std_categoryESt14default_deleteIS3_EEERNSt13tuple_elementIXT_ESt5tupleIJDpT0_EEE4typeERSB_
FNDA:0,_ZSt3getILm1EJPN5boost6system6detail12std_categoryESt14default_deleteIS3_EEERNSt13tuple_elementIXT_ESt5tupleIJDpT0_EEE4typeERSB_
FN:1393,_ZSt3getILm0EJPN5boost6system6detail12std_categoryESt14default_deleteIS3_EEERNSt13tuple_elementIXT_ESt5tupleIJDpT0_EEE4typeERSB_
FNDA:0,_ZSt3getILm0EJPN5boost6system6detail12std_categoryESt14default_deleteIS3_EEERNSt13tuple_elementIXT_ESt5tupleIJDpT0_EEE4typeERSB_
FN:1399,_ZSt3getILm0EJPN5boost6system6detail12std_categoryESt14default_deleteIS3_EEERKNSt13tuple_elementIXT_ESt5tupleIJDpT0_EEE4typeERKSB_
FNDA:0,_ZSt3getILm0EJPN5boost6system6detail12std_categoryESt14default_deleteIS3_EEERKNSt13tuple_elementIXT_ESt5tupleIJDpT0_EEE4typeERKSB_
DA:80,0
DA:81,0
DA:124,0
DA:189,0
DA:190,0
DA:233,0
DA:236,0
DA:268,0
DA:271,0
DA:279,0
DA:280,0
DA:301,0
DA:424,0
DA:430,0
DA:431,0
DA:454,0
DA:457,0
DA:1049,0
DA:1051,0
DA:1090,0
DA:1377,0
DA:1378,0
DA:1377,0
DA:1378,0
DA:1382,0
DA:1383,0
DA:1393,0
DA:1394,0
DA:1393,0
DA:1394,0
DA:1399,0
DA:1400,0
end_of_record
SF:/usr/include/c++/11/iostream
end_of_record
SF:/usr/include/c++/11/bits/shared_ptr_base.h
FN:161,_ZNSt16_Sp_counted_baseILN9__gnu_cxx12_Lock_policyE2EE10_M_releaseEv
FNDA:5241,_ZNSt16_Sp_counted_baseILN9__gnu_cxx12_Lock_policyE2EE10_M_releaseEv
FN:702,_ZNSt14__shared_countILN9__gnu_cxx12_Lock_policyE2EED2Ev
FNDA:5574,_ZNSt14__shared_countILN9__gnu_cxx12_Lock_policyE2EED2Ev
FN:984,_ZNKSt19__shared_ptr_accessI8PlaylistLN9__gnu_cxx12_Lock_policyE2ELb0ELb0EEptEv
FNDA:17,_ZNKSt19__shared_ptr_accessI8PlaylistLN9__gnu_cxx12_Lock_policyE2ELb0ELb0EEptEv
FN:992,_ZNKSt19__shared_ptr_accessI8PlaylistLN9__gnu_cxx12_Lock_policyE2ELb0ELb0EE6_M_getEv
FNDA:30,_ZNKSt19__shared_ptr_accessI8PlaylistLN9__gnu_cxx12_Lock_policyE2ELb0ELb0EE6_M_getEv
FN:1154,_ZNSt12__shared_ptrI9MediaFileLN9__gnu_cxx12_Lock_policyE2EED2Ev
FNDA:361,_ZNSt12__shared_ptrI9MediaFileLN9__gnu_cxx12_Lock_policyE2EED2Ev
FN:1154,_ZNSt12__shared_ptrI8PlaylistLN9__gnu_cxx12_Lock_policyE2EED2Ev
FNDA:109,_ZNSt12__shared_ptrI8PlaylistLN9__gnu_cxx12_Lock_policyE2EED2Ev
FN:1295,_ZNKSt12__shared_ptrI8PlaylistLN9__gnu_cxx12_Lock_policyE2EE3getEv
FNDA:43,_ZNKSt12__shared_ptrI8PlaylistLN9__gnu_cxx12_Lock_policyE2EE3getEv
DA:161,5241
DA:165,10482
DA:168,1919
DA:180,1919
DA:181,1919
DA:184,1919
DA:187,5241
DA:702,5574
DA:704,5574
DA:705,4620
DA:706,5574
DA:984,17
DA:987,17
DA:992,30
DA:993,30
DA:1154,361
DA:1154,109
DA:1295,43
DA:1296,43
end_of_record
SF:/usr/include/c++/11/bits/stl_function.h
FN:447,_ZNKSt4lessIPKcEclES1_S1_
FNDA:0,_ZNKSt4lessIPKcEclES1_S1_
FN:447,_ZNKSt4lessIPKN5boost6system14error_categoryEEclES4_S4_
FNDA:0,_ZNKSt4lessIPKN5boost6system14error_categoryEEclES4_S4_
FN:1170,_ZNKSt10_Select1stISt4pairIKPKN5boost6system14error_categoryESt10unique_ptrINS2_6detail12std_categoryESt14default_deleteIS9_EEEEclERSD_
FNDA:0,_ZNKSt10_Select1stISt4pairIKPKN5boost6system14error_categoryESt10unique_ptrINS2_6detail12std_categoryESt14default_deleteIS9_EEEEclERSD_
FN:1174,_ZNKSt10_Select1stISt4pairIKPKN5boost6system14error_categoryESt10unique_ptrINS2_6detail12std_categoryESt14default_deleteIS9_EEEEclERKSD_
FNDA:0,_ZNKSt10_Select1stISt4pairIKPKN5boost6system14error_categoryESt10unique_ptrINS2_6detail12std_categoryESt14default_deleteIS9_EEEEclERKSD_
DA:447,0
DA:457,0
DA:447,0
DA:457,0
DA:1170,0
DA:1171,0
DA:1174,0
DA:1175,0
end_of_record
SF:/usr/include/boost/asio/detail/call_stack.hpp
end_of_record
SF:/media/sf_Share_folder/UI/Spotify-rep-1-1/project/include/controller/BaseController.hpp
FN:8,_ZN14BaseControllerD0Ev
FNDA:0,_ZN14BaseControllerD0Ev
FN:8,_ZN14BaseControllerD2Ev
FNDA:0,_ZN14BaseControllerD2Ev
DA:8,0
DA:8,0
end_of_record
SF:/usr/include/c++/11/bits/cpp_type_traits.h
FN:560,_ZSt12__miter_baseIPKcET_S2_
FNDA:0,_ZSt12__miter_baseIPKcET_S2_
DA:560,0
DA:561,0
end_of_record
SF:/usr/include/c++/11/bits/stl_iterator_base_funcs.h
FN:98,_ZSt10__distanceIPKcENSt15iterator_traitsIT_E15difference_typeES3_S3_St26random_access_iterator_tag
FNDA:0,_ZSt10__distanceIPKcENSt15iterator_traitsIT_E15difference_typeES3_S3_St26random_access_iterator_tag
FN:138,_ZSt8distanceIPKcENSt15iterator_traitsIT_E15difference_typeES3_S3_
FNDA:0,_ZSt8distanceIPKcENSt15iterator_traitsIT_E15difference_typeES3_S3_
DA:98,0
DA:104,0
DA:138,0
DA:141,0
DA:142,0
end_of_record
SF:/usr/include/boost/asio/detail/tss_ptr.hpp
end_of_record
TN:
SF:/usr/include/boost/system/detail/std_interoperability.hpp
FN:34,_ZN5boost6system6detail12std_categoryC2EPKNS0_14error_categoryEj
FNDA:0,_ZN5boost6system6detail12std_categoryC2EPKNS0_14error_categoryEj
FN:50,_ZNK5boost6system6detail12std_category4nameEv
FNDA:0,_ZNK5boost6system6detail12std_category4nameEv
FN:55,_ZNK5boost6system6detail12std_category7messageB5cxx11Ei
FNDA:0,_ZNK5boost6system6detail12std_category7messageB5cxx11Ei
FN:60,_ZNK5boost6system6detail12std_category23default_error_conditionEi
FNDA:0,_ZNK5boost6system6detail12std_category23default_error_conditionEi
FN:75,_ZNK5boost6system6detail12cat_ptr_lessclEPKNS0_14error_categoryES5_
FNDA:0,_ZNK5boost6system6detail12cat_ptr_lessclEPKNS0_14error_categoryES5_
FN:81,_ZN5boost6system6detail15to_std_categoryERKNS0_14error_categoryE
FNDA:0,_ZN5boost6system6detail15to_std_categoryERKNS0_14error_categoryE
FN:117,_ZNK5boost6system6detail12std_category10equivalentEiRKSt15error_condition
FNDA:0,_ZNK5boost6system6detail12std_category10equivalentEiRKSt15error_condition
FN:146,_ZNK5boost6system6detail12std_category10equivalentERKSt10error_codei
FNDA:0,_ZNK5boost6system6detail12std_category10equivalentERKSt10error_codei
DA:34,0
DA:48,0
DA:50,0
DA:52,0
DA:55,0
DA:57,0
DA:60,0
DA:62,0
DA:75,0
DA:77,0
DA:81,0
DA:83,0
DA:85,0
DA:86,0
DA:88,0
DA:90,0
DA:91,0
DA:97,0
DA:100,0
DA:102,0
DA:104,0
DA:106,0
DA:108,0
DA:110,0
DA:111,0
DA:113,0
DA:114,0
DA:117,0
DA:119,0
DA:121,0
DA:122,0
DA:124,0
DA:126,0
DA:127,0
DA:132,0
DA:134,0
DA:135,0
DA:142,0
DA:146,0
DA:148,0
DA:150,0
DA:151,0
DA:153,0
DA:155,0
DA:156,0
DA:161,0
DA:163,0
DA:164,0
DA:168,0
DA:170,0
DA:174,0
end_of_record
SF:/usr/include/c++/11/bits/stl_iterator_base_types.h
FN:238,_ZSt19__iterator_categoryIPKcENSt15iterator_traitsIT_E17iterator_categoryERKS3_
FNDA:0,_ZSt19__iterator_categoryIPKcENSt15iterator_traitsIT_E17iterator_categoryERKS3_
DA:238,0
DA:239,0
end_of_record
SF:/usr/include/c++/11/bits/stl_algobase.h
FN:230,_ZSt3minImERKT_S2_S2_
FNDA:0,_ZSt3minImERKT_S2_S2_
FN:313,_ZSt12__niter_baseIPcET_S1_
FNDA:0,_ZSt12__niter_baseIPcET_S1_
FN:313,_ZSt12__niter_baseIPKcET_S2_
FNDA:0,_ZSt12__niter_baseIPKcET_S2_
FN:335,_ZSt12__niter_wrapIPcET_RKS1_S1_
FNDA:0,_ZSt12__niter_wrapIPcET_RKS1_S1_
FN:380,_ZNSt11__copy_moveILb0ELb0ESt26random_access_iterator_tagE8__copy_mIPKcPcEET0_T_S7_S6_
FNDA:0,_ZNSt11__copy_moveILb0ELb0ESt26random_access_iterator_tagE8__copy_mIPKcPcEET0_T_S7_S6_
FN:420,_ZNSt11__copy_moveILb0ELb1ESt26random_access_iterator_tagE8__copy_mIcEEPT_PKS3_S6_S4_
FNDA:0,_ZNSt11__copy_moveILb0ELb1ESt26random_access_iterator_tagE8__copy_mIcEEPT_PKS3_S6_S4_
FN:486,_ZSt14__copy_move_a2ILb0EPKcPcET1_T0_S4_S3_
FNDA:0,_ZSt14__copy_move_a2ILb0EPKcPcET1_T0_S4_S3_
FN:521,_ZSt14__copy_move_a1ILb0EPKcPcET1_T0_S4_S3_
FNDA:0,_ZSt14__copy_move_a1ILb0EPKcPcET1_T0_S4_S3_
FN:527,_ZSt13__copy_move_aILb0EPKcPcET1_T0_S4_S3_
FNDA:0,_ZSt13__copy_move_aILb0EPKcPcET1_T0_S4_S3_
FN:611,_ZSt4copyIPKcPcET0_T_S4_S3_
FNDA:0,_ZSt4copyIPKcPcET0_T_S4_S3_
DA:230,0
DA:235,0
DA:236,0
DA:237,0
DA:313,0
DA:315,0
DA:313,0
DA:315,0
DA:335,0
DA:336,0
DA:380,0
DA:383,0
DA:385,0
DA:386,0
DA:387,0
DA:389,0
DA:420,0
DA:429,0
DA:430,0
DA:431,0
DA:432,0
DA:486,0
DA:490,0
DA:492,0
DA:495,0
DA:521,0
DA:522,0
DA:527,0
DA:529,0
DA:532,0
DA:611,0
DA:620,0
end_of_record
SF:/usr/include/c++/11/bits/std_function.h
FN:85,_ZNSt9_Any_data9_M_accessEv
FNDA:5108,_ZNSt9_Any_data9_M_accessEv
FN:86,_ZNKSt9_Any_data9_M_accessEv
FNDA:2848,_ZNKSt9_Any_data9_M_accessEv
FN:90,_ZNSt9_Any_data9_M_accessIPKSt9type_infoEERT_v
FNDA:0,_ZNSt9_Any_data9_M_accessIPKSt9type_infoEERT_v
FN:90,_ZNSt9_Any_data9_M_accessIZN18HardwareControllerC4ERKNSt7__cxx1112basic_stringIcSt11char_traitsIcESaIcEEEiEUlS9_E_EERT_v
FNDA:240,_ZNSt9_Any_data9_M_accessIZN18HardwareControllerC4ERKNSt7__cxx1112basic_stringIcSt11char_traitsIcESaIcEEEiEUlS9_E_EERT_v
FN:90,_ZNSt9_Any_data9_M_accessIPZN18HardwareControllerC4ERKNSt7__cxx1112basic_stringIcSt11char_traitsIcESaIcEEEiEUlS9_E_EERT_v
FNDA:0,_ZNSt9_Any_data9_M_accessIPZN18HardwareControllerC4ERKNSt7__cxx1112basic_stringIcSt11char_traitsIcESaIcEEEiEUlS9_E_EERT_v
FN:95,_ZNKSt9_Any_data9_M_accessIZN18HardwareControllerC4ERKNSt7__cxx1112basic_stringIcSt11char_traitsIcESaIcEEEiEUlS9_E_EERKT_v
FNDA:121,_ZNKSt9_Any_data9_M_accessIZN18HardwareControllerC4ERKNSt7__cxx1112basic_stringIcSt11char_traitsIcESaIcEEEiEUlS9_E_EERKT_v
FN:134,_ZNSt14_Function_base13_Base_managerIZN18HardwareControllerC4ERKNSt7__cxx1112basic_stringIcSt11char_traitsIcESaIcEEEiEUlS9_E_E14_M_get_pointerERKSt9_Any_data
FNDA:121,_ZNSt14_Function_base13_Base_managerIZN18HardwareControllerC4ERKNSt7__cxx1112basic_stringIcSt11char_traitsIcESaIcEEEiEUlS9_E_E14_M_get_pointerERKSt9_Any_data
FN:150,_ZNSt14_Function_base13_Base_managerIZN18HardwareControllerC4ERKNSt7__cxx1112basic_stringIcSt11char_traitsIcESaIcEEEiEUlS9_E_E9_M_createISA_EEvRSt9_Any_dataOT_St17integral_constantIbLb1EE
FNDA:121,_ZNSt14_Function_base13_Base_managerIZN18HardwareControllerC4ERKNSt7__cxx1112basic_stringIcSt11char_traitsIcESaIcEEEiEUlS9_E_E9_M_createISA_EEvRSt9_Any_dataOT_St17integral_constantIbLb1EE
FN:150,_ZNSt14_Function_base13_Base_managerIZN18HardwareControllerC4ERKNSt7__cxx1112basic_stringIcSt11char_traitsIcESaIcEEEiEUlS9_E_E9_M_createIRKSA_EEvRSt9_Any_dataOT_St17integral_constantIbLb1EE
FNDA:121,_ZNSt14_Function_base13_Base_managerIZN18HardwareControllerC4ERKNSt7__cxx1112basic_stringIcSt11char_traitsIcESaIcEEEiEUlS9_E_E9_M_createIRKSA_EEvRSt9_Any_dataOT_St17integral_constantIbLb1EE
FN:166,_ZNSt14_Function_base13_Base_managerIZN18HardwareControllerC4ERKNSt7__cxx1112basic_stringIcSt11char_traitsIcESaIcEEEiEUlS9_E_E10_M_destroyERSt9_Any_dataSt17integral_constantIbLb1EE
FNDA:240,_ZNSt14_Function_base13_Base_managerIZN18HardwareControllerC4ERKNSt7__cxx1112basic_stringIcSt11char_traitsIcESaIcEEEiEUlS9_E_E10_M_destroyERSt9_Any_dataSt17integral_constantIbLb1EE
FN:180,_ZNSt14_Function_base13_Base_managerIZN18HardwareControllerC4ERKNSt7__cxx1112basic_stringIcSt11char_traitsIcESaIcEEEiEUlS9_E_E10_M_managerERSt9_Any_dataRKSC_St18_Manager_operation
FNDA:361,_ZNSt14_Function_base13_Base_managerIZN18HardwareControllerC4ERKNSt7__cxx1112basic_stringIcSt11char_traitsIcESaIcEEEiEUlS9_E_E10_M_managerERSt9_Any_dataRKSC_St18_Manager_operation
FN:211,_ZNSt14_Function_base13_Base_managerIZN18HardwareControllerC4ERKNSt7__cxx1112basic_stringIcSt11char_traitsIcESaIcEEEiEUlS9_E_E15_M_init_functorIRKSA_EEvRSt9_Any_dataOT_
FNDA:121,_ZNSt14_Function_base13_Base_managerIZN18HardwareControllerC4ERKNSt7__cxx1112basic_stringIcSt11char_traitsIcESaIcEEEiEUlS9_E_E15_M_init_functorIRKSA_EEvRSt9_Any_dataOT_
FN:211,_ZNSt14_Function_base13_Base_managerIZN18HardwareControllerC4ERKNSt7__cxx1112basic_stringIcSt11char_traitsIcESaIcEEEiEUlS9_E_E15_M_init_functorISA_EEvRSt9_Any_dataOT_
FNDA:121,_ZNSt14_Function_base13_Base_managerIZN18HardwareControllerC4ERKNSt7__cxx1112basic_stringIcSt11char_traitsIcESaIcEEEiEUlS9_E_E15_M_init_functorISA_EEvRSt9_Any_dataOT_
FN:235,_ZNSt14_Function_base13_Base_managerIZN18HardwareControllerC4ERKNSt7__cxx1112basic_stringIcSt11char_traitsIcESaIcEEEiEUlS9_E_E21_M_not_empty_functionISA_EEbRKT_
FNDA:121,_ZNSt14_Function_base13_Base_managerIZN18HardwareControllerC4ERKNSt7__cxx1112basic_stringIcSt11char_traitsIcESaIcEEEiEUlS9_E_E21_M_not_empty_functionISA_EEbRKT_
FN:239,_ZNSt14_Function_baseC2Ev
FNDA:3360,_ZNSt14_Function_baseC2Ev
FN:241,_ZNSt14_Function_baseD2Ev
FNDA:3358,_ZNSt14_Function_baseD2Ev
FN:267,_ZNSt17_Function_handlerIFvRKNSt7__cxx1112basic_stringIcSt11char_traitsIcESaIcEEEEZN18HardwareControllerC4ES7_iEUlS7_E_E10_M_managerERSt9_Any_dataRKSC_St18_Manager_operation
FNDA:361,_ZNSt17_Function_handlerIFvRKNSt7__cxx1112basic_stringIcSt11char_traitsIcESaIcEEEEZN18HardwareControllerC4ES7_iEUlS7_E_E10_M_managerERSt9_Any_dataRKSC_St18_Manager_operation
FN:288,_ZNSt17_Function_handlerIFvRKNSt7__cxx1112basic_stringIcSt11char_traitsIcESaIcEEEEZN18HardwareControllerC4ES7_iEUlS7_E_E9_M_invokeERKSt9_Any_dataS7_
FNDA:0,_ZNSt17_Function_handlerIFvRKNSt7__cxx1112basic_stringIcSt11char_traitsIcESaIcEEEEZN18HardwareControllerC4ES7_iEUlS7_E_E9_M_invokeERKSt9_Any_dataS7_
FN:435,_ZNSt8functionIFvRKNSt7__cxx1112basic_stringIcSt11char_traitsIcESaIcEEEEEC2IZN18HardwareControllerC4ES7_iEUlS7_E_vEEOT_
FNDA:121,_ZNSt8functionIFvRKNSt7__cxx1112basic_stringIcSt11char_traitsIcESaIcEEEEEC2IZN18HardwareControllerC4ES7_iEUlS7_E_vEEOT_
DA:85,5108
DA:86,2848
DA:90,240
DA:91,240
DA:90,0
DA:91,0
DA:90,0
DA:91,0
DA:95,121
DA:96,121
DA:134,121
DA:138,121
DA:139,121
DA:150,121
DA:152,121
DA:153,121
DA:150,121
DA:152,121
DA:153,121
DA:166,240
DA:168,240
DA:169,240
DA:180,361
DA:183,361
DA:185,0
DA:187,0
DA:191,0
DA:193,0
DA:194,0
DA:195,0
DA:197,121
DA:198,121
DA:199,121
DA:200,121
DA:202,240
DA:203,240
DA:204,240
DA:206,361
DA:211,121
DA:215,121
DA:216,121
DA:211,121
DA:215,121
DA:216,121
DA:235,121
DA:236,121
DA:239,3360
DA:241,3358
DA:243,3358
DA:244,2553
DA:245,3358
DA:267,361
DA:270,361
DA:273,0
DA:274,0
DA:275,0
DA:277,0
DA:278,0
DA:279,0
DA:281,361
DA:282,361
DA:284,361
DA:288,0
DA:290,0
DA:291,0
DA:435,121
DA:437,121
DA:447,121
DA:449,121
DA:451,121
DA:452,121
DA:454,121
end_of_record
SF:/usr/include/boost/asio/error.hpp
FN:228,_ZN5boost4asio5error19get_system_categoryEv
FNDA:0,_ZN5boost4asio5error19get_system_categoryEv
DA:228,0
DA:230,0
end_of_record
SF:/usr/include/c++/11/bits/atomic_base.h
FN:104,_ZStanSt12memory_orderSt23__memory_order_modifier
FNDA:280,_ZStanSt12memory_orderSt23__memory_order_modifier
FN:345,_ZNSt13__atomic_baseIbEC1Eb
FNDA:0,_ZNSt13__atomic_baseIbEC1Eb
FN:354,_ZNSt13__atomic_baseIbEaSEb
FNDA:122,_ZNSt13__atomic_baseIbEaSEb
DA:104,280
DA:106,280
DA:345,0
DA:354,122
DA:356,122
DA:357,122
DA:459,122
DA:464,122
DA:465,122
DA:484,121
DA:488,121
end_of_record
SF:/usr/include/c++/11/type_traits
FN:3419,_ZSt21is_constant_evaluatedv
FNDA:0,_ZSt21is_constant_evaluatedv
DA:3419,0
DA:3420,0
end_of_record
SF:/media/sf_Share_folder/UI/Spotify-rep-1-1/project/src/controller/HardwareController.cpp
FN:7,_ZN18HardwareController15sendPlayCommandEv
FNDA:1,_ZN18HardwareController15sendPlayCommandEv
FN:12,_ZN18HardwareController16sendPauseCommandEv
FNDA:1,_ZN18HardwareController16sendPauseCommandEv
FN:18,_ZN18HardwareController15sendStopCommandEv
FNDA:1,_ZN18HardwareController15sendStopCommandEv
FN:24,_ZN18HardwareController10sendSignalERKNSt7__cxx1112basic_stringIcSt11char_traitsIcESaIcEEE
FNDA:1,_ZN18HardwareController10sendSignalERKNSt7__cxx1112basic_stringIcSt11char_traitsIcESaIcEEE
FN:29,_ZN18HardwareControllerC2ERKNSt7__cxx1112basic_stringIcSt11char_traitsIcESaIcEEEi
FNDA:121,_ZN18HardwareControllerC2ERKNSt7__cxx1112basic_stringIcSt11char_traitsIcESaIcEEEi
FN:31,_ZZN18HardwareControllerC4ERKNSt7__cxx1112basic_stringIcSt11char_traitsIcESaIcEEEiENKUlS7_E_clES7_
FNDA:0,_ZZN18HardwareControllerC4ERKNSt7__cxx1112basic_stringIcSt11char_traitsIcESaIcEEEiENKUlS7_E_clES7_
FN:37,_ZN18HardwareControllerD0Ev
FNDA:77,_ZN18HardwareControllerD0Ev
FN:37,_ZN18HardwareControllerD2Ev
FNDA:119,_ZN18HardwareControllerD2Ev
FN:41,_ZN18HardwareController18handleReceivedDataERKNSt7__cxx1112basic_stringIcSt11char_traitsIcESaIcEEE
FNDA:5,_ZN18HardwareController18handleReceivedDataERKNSt7__cxx1112basic_stringIcSt11char_traitsIcESaIcEEE
FN:55,_ZN18HardwareController12startReadingEv
FNDA:1,_ZN18HardwareController12startReadingEv
FN:61,_ZZN18HardwareController12startReadingEvENKUlvE_clEv
FNDA:1,_ZZN18HardwareController12startReadingEvENKUlvE_clEv
FN:70,_ZN18HardwareController11stopReadingEv
FNDA:119,_ZN18HardwareController11stopReadingEv
DA:7,1
DA:8,1
DA:9,1
DA:12,1
DA:13,1
DA:14,1
DA:18,1
DA:19,1
DA:20,1
DA:24,1
DA:25,1
DA:26,1
DA:29,121
DA:30,121
DA:31,121
DA:32,0
DA:33,0
DA:34,121
DA:37,77
DA:39,77
DA:37,119
DA:38,119
DA:39,119
DA:41,5
DA:42,5
DA:43,1
DA:44,4
DA:45,1
DA:46,3
DA:47,1
DA:48,2
DA:49,1
DA:51,1
DA:53,5
DA:55,1
DA:56,1
DA:57,0
DA:59,1
DA:61,2
DA:63,1
DA:64,0
DA:65,0
DA:66,0
DA:67,2
DA:70,119
DA:71,119
DA:72,118
DA:74,1
DA:75,1
DA:76,1
DA:77,1
end_of_record
SF:/usr/include/c++/11/ext/type_traits.h
FN:152,_ZN9__gnu_cxx17__is_null_pointerIKcEEbPT_
FNDA:0,_ZN9__gnu_cxx17__is_null_pointerIKcEEbPT_
DA:152,0
DA:153,0
end_of_record
SF:/usr/include/boost/asio/impl/error.ipp
FN:35,_ZNK5boost4asio5error6detail14netdb_category4nameEv
FNDA:0,_ZNK5boost4asio5error6detail14netdb_category4nameEv
FN:40,_ZNK5boost4asio5error6detail14netdb_category7messageB5cxx11Ei
FNDA:0,_ZNK5boost4asio5error6detail14netdb_category7messageB5cxx11Ei
FN:56,_ZN5boost4asio5error18get_netdb_categoryEv
FNDA:0,_ZN5boost4asio5error18get_netdb_categoryEv
FN:67,_ZNK5boost4asio5error6detail17addrinfo_category4nameEv
FNDA:0,_ZNK5boost4asio5error6detail17addrinfo_category4nameEv
FN:72,_ZNK5boost4asio5error6detail17addrinfo_category7messageB5cxx11Ei
FNDA:0,_ZNK5boost4asio5error6detail17addrinfo_category7messageB5cxx11Ei
FN:84,_ZN5boost4asio5error21get_addrinfo_categoryEv
FNDA:0,_ZN5boost4asio5error21get_addrinfo_categoryEv
FN:97,_ZNK5boost4asio5error6detail13misc_category4nameEv
FNDA:0,_ZNK5boost4asio5error6detail13misc_category4nameEv
FN:102,_ZNK5boost4asio5error6detail13misc_category7messageB5cxx11Ei
FNDA:0,_ZNK5boost4asio5error6detail13misc_category7messageB5cxx11Ei
FN:118,_ZN5boost4asio5error17get_misc_categoryEv
FNDA:0,_ZN5boost4asio5error17get_misc_categoryEv
DA:35,0
DA:37,0
DA:40,0
DA:42,0
DA:43,0
DA:44,0
DA:45,0
DA:46,0
DA:47,0
DA:48,0
DA:49,0
DA:50,0
DA:56,0
DA:59,0
DA:67,0
DA:69,0
DA:72,0
DA:74,0
DA:75,0
DA:76,0
DA:77,0
DA:78,0
DA:84,0
DA:87,0
DA:97,0
DA:99,0
DA:102,0
DA:104,0
DA:105,0
DA:106,0
DA:107,0
DA:108,0
DA:109,0
DA:110,0
DA:111,0
DA:112,0
DA:118,0
DA:121,0
end_of_record
SF:/media/sf_Share_folder/UI/Spotify-rep-1-1/project/include/controller/BaseController.hpp
FN:8,_ZN14BaseControllerD0Ev
FNDA:0,_ZN14BaseControllerD0Ev
FN:8,_ZN14BaseControllerD2Ev
FNDA:0,_ZN14BaseControllerD2Ev
DA:8,0
DA:8,0
end_of_record
SF:/usr/include/c++/11/bits/stl_iterator_base_funcs.h
FN:98,_ZSt10__distanceIPKcENSt15iterator_traitsIT_E15difference_typeES3_S3_St26random_access_iterator_tag
FNDA:0,_ZSt10__distanceIPKcENSt15iterator_traitsIT_E15difference_typeES3_S3_St26random_access_iterator_tag
FN:138,_ZSt8distanceIPKcENSt15iterator_traitsIT_E15difference_typeES3_S3_
FNDA:0,_ZSt8distanceIPKcENSt15iterator_traitsIT_E15difference_typeES3_S3_
DA:98,0
DA:104,0
DA:138,0
DA:141,0
DA:142,0
end_of_record
SF:/usr/include/c++/11/bits/cpp_type_traits.h
FN:560,_ZSt12__miter_baseIPKcET_S2_
FNDA:0,_ZSt12__miter_baseIPKcET_S2_
DA:560,0
DA:561,0
end_of_record
SF:/usr/include/boost/asio/detail/tss_ptr.hpp
end_of_record
SF:/usr/include/c++/11/bits/stl_function.h
FN:447,_ZNKSt4lessIPKcEclES1_S1_
FNDA:0,_ZNKSt4lessIPKcEclES1_S1_
FN:447,_ZNKSt4lessIPKN5boost6system14error_categoryEEclES4_S4_
FNDA:0,_ZNKSt4lessIPKN5boost6system14error_categoryEEclES4_S4_
FN:1170,_ZNKSt10_Select1stISt4pairIKPKN5boost6system14error_categoryESt10unique_ptrINS2_6detail12std_categoryESt14default_deleteIS9_EEEEclERSD_
FNDA:0,_ZNKSt10_Select1stISt4pairIKPKN5boost6system14error_categoryESt10unique_ptrINS2_6detail12std_categoryESt14default_deleteIS9_EEEEclERSD_
FN:1174,_ZNKSt10_Select1stISt4pairIKPKN5boost6system14error_categoryESt10unique_ptrINS2_6detail12std_categoryESt14default_deleteIS9_EEEEclERKSD_
FNDA:0,_ZNKSt10_Select1stISt4pairIKPKN5boost6system14error_categoryESt10unique_ptrINS2_6detail12std_categoryESt14default_deleteIS9_EEEEclERKSD_
DA:447,0
DA:457,0
DA:447,0
DA:457,0
DA:1170,0
DA:1171,0
DA:1174,0
DA:1175,0
end_of_record
SF:/usr/include/c++/11/iostream
end_of_record
SF:/usr/include/boost/asio/detail/call_stack.hpp
end_of_record
SF:/usr/include/x86_64-linux-gnu/c++/11/bits/gthr-default.h
FN:300,_ZL18__gthread_active_pv
FNDA:0,_ZL18__gthread_active_pv
FN:746,_ZL20__gthread_mutex_lockP15pthread_mutex_t
FNDA:0,_ZL20__gthread_mutex_lockP15pthread_mutex_t
FN:776,_ZL22__gthread_mutex_unlockP15pthread_mutex_t
FNDA:0,_ZL22__gthread_mutex_unlockP15pthread_mutex_t
DA:300,0
DA:302,0
DA:746,0
DA:748,0
DA:749,0
DA:751,0
DA:776,0
DA:778,0
DA:779,0
DA:781,0
end_of_record
SF:/usr/include/c++/11/ext/aligned_buffer.h
FN:64,_ZN9__gnu_cxx16__aligned_membufISt4pairIKPKN5boost6system14error_categoryESt10unique_ptrINS3_6detail12std_categoryESt14default_deleteISA_EEEE7_M_addrEv
FNDA:0,_ZN9__gnu_cxx16__aligned_membufISt4pairIKPKN5boost6system14error_categoryESt10unique_ptrINS3_6detail12std_categoryESt14default_deleteISA_EEEE7_M_addrEv
FN:68,_ZNK9__gnu_cxx16__aligned_membufISt4pairIKPKN5boost6system14error_categoryESt10unique_ptrINS3_6detail12std_categoryESt14default_deleteISA_EEEE7_M_addrEv
FNDA:0,_ZNK9__gnu_cxx16__aligned_membufISt4pairIKPKN5boost6system14error_categoryESt10unique_ptrINS3_6detail12std_categoryESt14default_deleteISA_EEEE7_M_addrEv
FN:72,_ZN9__gnu_cxx16__aligned_membufISt4pairIKPKN5boost6system14error_categoryESt10unique_ptrINS3_6detail12std_categoryESt14default_deleteISA_EEEE6_M_ptrEv
FNDA:0,_ZN9__gnu_cxx16__aligned_membufISt4pairIKPKN5boost6system14error_categoryESt10unique_ptrINS3_6detail12std_categoryESt14default_deleteISA_EEEE6_M_ptrEv
FN:76,_ZNK9__gnu_cxx16__aligned_membufISt4pairIKPKN5boost6system14error_categoryESt10unique_ptrINS3_6detail12std_categoryESt14default_deleteISA_EEEE6_M_ptrEv
FNDA:0,_ZNK9__gnu_cxx16__aligned_membufISt4pairIKPKN5boost6system14error_categoryESt10unique_ptrINS3_6detail12std_categoryESt14default_deleteISA_EEEE6_M_ptrEv
DA:64,0
DA:65,0
DA:68,0
DA:69,0
DA:72,0
DA:73,0
DA:76,0
DA:77,0
end_of_record
SF:/usr/include/c++/11/tuple
FN:80,_ZNSt10_Head_baseILm1ESt14default_deleteIN5boost6system6detail12std_categoryEELb1EEC2Ev
FNDA:0,_ZNSt10_Head_baseILm1ESt14default_deleteIN5boost6system6detail12std_categoryEELb1EEC2Ev
FN:80,_ZNSt10_Head_baseILm1ESt14default_deleteINSt6thread6_StateEELb1EEC2Ev
FNDA:1,_ZNSt10_Head_baseILm1ESt14default_deleteINSt6thread6_StateEELb1EEC2Ev
FN:124,_ZNSt10_Head_baseILm1ESt14default_deleteINSt6thread6_StateEELb1EE7_M_headERS4_
FNDA:0,_ZNSt10_Head_baseILm1ESt14default_deleteINSt6thread6_StateEELb1EE7_M_headERS4_
FN:124,_ZNSt10_Head_baseILm1ESt14default_deleteIN5boost6system6detail12std_categoryEELb1EE7_M_headERS6_
FNDA:0,_ZNSt10_Head_baseILm1ESt14default_deleteIN5boost6system6detail12std_categoryEELb1EE7_M_headERS6_
FN:189,_ZNSt10_Head_baseILm0EPNSt6thread6_StateELb0EEC2Ev
FNDA:1,_ZNSt10_Head_baseILm0EPNSt6thread6_StateELb0EEC2Ev
FN:189,_ZNSt10_Head_baseILm0EPN5boost6system6detail12std_categoryELb0EEC2Ev
FNDA:0,_ZNSt10_Head_baseILm0EPN5boost6system6detail12std_categoryELb0EEC2Ev
FN:199,_ZNSt10_Head_baseILm0EZN18HardwareController12startReadingEvEUlvE_Lb0EEC2IS1_EEOT_
FNDA:1,_ZNSt10_Head_baseILm0EZN18HardwareController12startReadingEvEUlvE_Lb0EEC2IS1_EEOT_
FN:233,_ZNSt10_Head_baseILm0EPN5boost6system6detail12std_categoryELb0EE7_M_headERS5_
FNDA:0,_ZNSt10_Head_baseILm0EPN5boost6system6detail12std_categoryELb0EE7_M_headERS5_
FN:233,_ZNSt10_Head_baseILm0EPNSt6thread6_StateELb0EE7_M_headERS3_
FNDA:2,_ZNSt10_Head_baseILm0EPNSt6thread6_StateELb0EE7_M_headERS3_
FN:233,_ZNSt10_Head_baseILm0EZN18HardwareController12startReadingEvEUlvE_Lb0EE7_M_headERS2_
FNDA:1,_ZNSt10_Head_baseILm0EZN18HardwareController12startReadingEvEUlvE_Lb0EE7_M_headERS2_
FN:236,_ZNSt10_Head_baseILm0EPN5boost6system6detail12std_categoryELb0EE7_M_headERKS5_
FNDA:0,_ZNSt10_Head_baseILm0EPN5boost6system6detail12std_categoryELb0EE7_M_headERKS5_
FN:268,_ZNSt11_Tuple_implILm0EJPN5boost6system6detail12std_categoryESt14default_deleteIS3_EEE7_M_headERS7_
FNDA:0,_ZNSt11_Tuple_implILm0EJPN5boost6system6detail12std_categoryESt14default_deleteIS3_EEE7_M_headERS7_
FN:268,_ZNSt11_Tuple_implILm0EJPNSt6thread6_StateESt14default_deleteIS1_EEE7_M_headERS5_
FNDA:2,_ZNSt11_Tuple_implILm0EJPNSt6thread6_StateESt14default_deleteIS1_EEE7_M_headERS5_
FN:271,_ZNSt11_Tuple_implILm0EJPN5boost6system6detail12std_categoryESt14default_deleteIS3_EEE7_M_headERKS7_
FNDA:0,_ZNSt11_Tuple_implILm0EJPN5boost6system6detail12std_categoryESt14default_deleteIS3_EEE7_M_headERKS7_
FN:279,_ZNSt11_Tuple_implILm0EJPN5boost6system6detail12std_categoryESt14default_deleteIS3_EEEC2Ev
FNDA:0,_ZNSt11_Tuple_implILm0EJPN5boost6system6detail12std_categoryESt14default_deleteIS3_EEEC2Ev
FN:279,_ZNSt11_Tuple_implILm0EJPNSt6thread6_StateESt14default_deleteIS1_EEEC2Ev
FNDA:1,_ZNSt11_Tuple_implILm0EJPNSt6thread6_StateESt14default_deleteIS1_EEEC2Ev
FN:301,_ZNSt11_Tuple_implILm0EJPN5boost6system6detail12std_categoryESt14default_deleteIS3_EEEC2EOS7_
FNDA:0,_ZNSt11_Tuple_implILm0EJPN5boost6system6detail12std_categoryESt14default_deleteIS3_EEEC2EOS7_
FN:424,_ZNSt11_Tuple_implILm0EJZN18HardwareController12startReadingEvEUlvE_EE7_M_headERS2_
FNDA:1,_ZNSt11_Tuple_implILm0EJZN18HardwareController12startReadingEvEUlvE_EE7_M_headERS2_
FN:424,_ZNSt11_Tuple_implILm1EJSt14default_deleteIN5boost6system6detail12std_categoryEEEE7_M_headERS6_
FNDA:0,_ZNSt11_Tuple_implILm1EJSt14default_deleteIN5boost6system6detail12std_categoryEEEE7_M_headERS6_
FN:424,_ZNSt11_Tuple_implILm1EJSt14default_deleteINSt6thread6_StateEEEE7_M_headERS4_
FNDA:0,_ZNSt11_Tuple_implILm1EJSt14default_deleteINSt6thread6_StateEEEE7_M_headERS4_
FN:430,_ZNSt11_Tuple_implILm1EJSt14default_deleteINSt6thread6_StateEEEEC2Ev
FNDA:1,_ZNSt11_Tuple_implILm1EJSt14default_deleteINSt6thread6_StateEEEEC2Ev
FN:430,_ZNSt11_Tuple_implILm1EJSt14default_deleteIN5boost6system6detail12std_categoryEEEEC2Ev
FNDA:0,_ZNSt11_Tuple_implILm1EJSt14default_deleteIN5boost6system6detail12std_categoryEEEEC2Ev
FN:440,_ZNSt11_Tuple_implILm0EJZN18HardwareController12startReadingEvEUlvE_EEC2IS1_EEOT_
FNDA:1,_ZNSt11_Tuple_implILm0EJZN18HardwareController12startReadingEvEUlvE_EEC2IS1_EEOT_
FN:454,_ZNSt11_Tuple_implILm1EJSt14default_deleteIN5boost6system6detail12std_categoryEEEEC2EOS6_
FNDA:0,_ZNSt11_Tuple_implILm1EJSt14default_deleteIN5boost6system6detail12std_categoryEEEEC2EOS6_
FN:742,_ZNSt5tupleIJZN18HardwareController12startReadingEvEUlvE_EEC2IJS1_ELb1ELb1EEEDpOT_
FNDA:1,_ZNSt5tupleIJZN18HardwareController12startReadingEvEUlvE_EEC2IJS1_ELb1ELb1EEEDpOT_
FN:1049,_ZNSt5tupleIJPN5boost6system6detail12std_categoryESt14default_deleteIS3_EEEC2ILb1ELb1EEEv
FNDA:0,_ZNSt5tupleIJPN5boost6system6detail12std_categoryESt14default_deleteIS3_EEEC2ILb1ELb1EEEv
FN:1049,_ZNSt5tupleIJPNSt6thread6_StateESt14default_deleteIS1_EEEC2ILb1ELb1EEEv
FNDA:1,_ZNSt5tupleIJPNSt6thread6_StateESt14default_deleteIS1_EEEC2ILb1ELb1EEEv
FN:1090,_ZNSt5tupleIJPN5boost6system6detail12std_categoryESt14default_deleteIS3_EEEC2EOS7_
FNDA:0,_ZNSt5tupleIJPN5boost6system6detail12std_categoryESt14default_deleteIS3_EEEC2EOS7_
FN:1377,_ZSt12__get_helperILm0EZN18HardwareController12startReadingEvEUlvE_JEERT0_RSt11_Tuple_implIXT_EJS2_DpT1_EE
FNDA:1,_ZSt12__get_helperILm0EZN18HardwareController12startReadingEvEUlvE_JEERT0_RSt11_Tuple_implIXT_EJS2_DpT1_EE
FN:1377,_ZSt12__get_helperILm0EPN5boost6system6detail12std_categoryEJSt14default_deleteIS3_EEERT0_RSt11_Tuple_implIXT_EJS7_DpT1_EE
FNDA:0,_ZSt12__get_helperILm0EPN5boost6system6detail12std_categoryEJSt14default_deleteIS3_EEERT0_RSt11_Tuple_implIXT_EJS7_DpT1_EE
FN:1377,_ZSt12__get_helperILm1ESt14default_deleteINSt6thread6_StateEEJEERT0_RSt11_Tuple_implIXT_EJS4_DpT1_EE
FNDA:0,_ZSt12__get_helperILm1ESt14default_deleteINSt6thread6_StateEEJEERT0_RSt11_Tuple_implIXT_EJS4_DpT1_EE
FN:1377,_ZSt12__get_helperILm1ESt14default_deleteIN5boost6system6detail12std_categoryEEJEERT0_RSt11_Tuple_implIXT_EJS6_DpT1_EE
FNDA:0,_ZSt12__get_helperILm1ESt14default_deleteIN5boost6system6detail12std_categoryEEJEERT0_RSt11_Tuple_implIXT_EJS6_DpT1_EE
FN:1377,_ZSt12__get_helperILm0EPNSt6thread6_StateEJSt14default_deleteIS1_EEERT0_RSt11_Tuple_implIXT_EJS5_DpT1_EE
FNDA:2,_ZSt12__get_helperILm0EPNSt6thread6_StateEJSt14default_deleteIS1_EEERT0_RSt11_Tuple_implIXT_EJS5_DpT1_EE
FN:1382,_ZSt12__get_helperILm0EPN5boost6system6detail12std_categoryEJSt14default_deleteIS3_EEERKT0_RKSt11_Tuple_implIXT_EJS7_DpT1_EE
FNDA:0,_ZSt12__get_helperILm0EPN5boost6system6detail12std_categoryEJSt14default_deleteIS3_EEERKT0_RKSt11_Tuple_implIXT_EJS7_DpT1_EE
FN:1393,_ZSt3getILm0EJPNSt6thread6_StateESt14default_deleteIS1_EEERNSt13tuple_elementIXT_ESt5tupleIJDpT0_EEE4typeERS9_
FNDA:2,_ZSt3getILm0EJPNSt6thread6_StateESt14default_deleteIS1_EEERNSt13tuple_elementIXT_ESt5tupleIJDpT0_EEE4typeERS9_
FN:1393,_ZSt3getILm1EJPN5boost6system6detail12std_categoryESt14default_deleteIS3_EEERNSt13tuple_elementIXT_ESt5tupleIJDpT0_EEE4typeERSB_
FNDA:0,_ZSt3getILm1EJPN5boost6system6detail12std_categoryESt14default_deleteIS3_EEERNSt13tuple_elementIXT_ESt5tupleIJDpT0_EEE4typeERSB_
FN:1393,_ZSt3getILm0EJPN5boost6system6detail12std_categoryESt14default_deleteIS3_EEERNSt13tuple_elementIXT_ESt5tupleIJDpT0_EEE4typeERSB_
FNDA:0,_ZSt3getILm0EJPN5boost6system6detail12std_categoryESt14default_deleteIS3_EEERNSt13tuple_elementIXT_ESt5tupleIJDpT0_EEE4typeERSB_
FN:1393,_ZSt3getILm1EJPNSt6thread6_StateESt14default_deleteIS1_EEERNSt13tuple_elementIXT_ESt5tupleIJDpT0_EEE4typeERS9_
FNDA:0,_ZSt3getILm1EJPNSt6thread6_StateESt14default_deleteIS1_EEERNSt13tuple_elementIXT_ESt5tupleIJDpT0_EEE4typeERS9_
FN:1399,_ZSt3getILm0EJPN5boost6system6detail12std_categoryESt14default_deleteIS3_EEERKNSt13tuple_elementIXT_ESt5tupleIJDpT0_EEE4typeERKSB_
FNDA:0,_ZSt3getILm0EJPN5boost6system6detail12std_categoryESt14default_deleteIS3_EEERKNSt13tuple_elementIXT_ESt5tupleIJDpT0_EEE4typeERKSB_
FN:1405,_ZSt3getILm0EJZN18HardwareController12startReadingEvEUlvE_EEONSt13tuple_elementIXT_ESt5tupleIJDpT0_EEE4typeEOS6_
FNDA:1,_ZSt3getILm0EJZN18HardwareController12startReadingEvEUlvE_EEONSt13tuple_elementIXT_ESt5tupleIJDpT0_EEE4typeEOS6_
DA:80,1
DA:81,1
DA:80,0
DA:81,0
DA:124,0
DA:124,0
DA:189,1
DA:190,1
DA:189,0
DA:190,0
DA:199,1
DA:200,1
DA:233,1
DA:233,2
DA:233,0
DA:236,0
DA:268,2
DA:268,0
DA:271,0
DA:279,1
DA:280,1
DA:279,0
DA:280,0
DA:301,0
DA:424,1
DA:424,0
DA:424,0
DA:430,1
DA:431,1
DA:430,0
DA:431,0
DA:440,1
DA:441,1
DA:442,1
DA:454,0
DA:457,0
DA:742,1
DA:744,1
DA:1049,1
DA:1051,1
DA:1049,0
DA:1051,0
DA:1090,0
DA:1377,1
DA:1378,1
DA:1377,0
DA:1378,0
DA:1377,2
DA:1378,2
DA:1377,0
DA:1378,0
DA:1377,0
DA:1378,0
DA:1382,0
DA:1383,0
DA:1393,0
DA:1394,0
DA:1393,2
DA:1394,2
DA:1393,0
DA:1394,0
DA:1393,0
DA:1394,0
DA:1399,0
DA:1400,0
DA:1405,1
DA:1408,1
end_of_record
SF:/usr/include/boost/system/detail/system_category_posix.hpp
FN:19,_ZN5boost6system6detail16is_generic_valueEi
FNDA:0,_ZN5boost6system6detail16is_generic_valueEi
FN:116,_ZN5boost6system6detail45system_category_default_error_condition_posixEi
FNDA:0,_ZN5boost6system6detail45system_category_default_error_condition_posixEi
DA:19,0
DA:106,0
DA:108,0
DA:110,0
DA:113,0
DA:116,0
DA:118,0
DA:120,0
DA:124,0
end_of_record
SF:/usr/include/c++/11/atomic
FN:76,_ZNSt6atomicIbEC2Eb
FNDA:0,_ZNSt6atomicIbEC2Eb
FN:79,_ZNSt6atomicIbEaSEb
FNDA:122,_ZNSt6atomicIbEaSEb
FN:86,_ZNKSt6atomicIbEcvbEv
FNDA:121,_ZNKSt6atomicIbEcvbEv
DA:76,0
DA:79,122
DA:80,122
DA:86,121
DA:87,242
end_of_record
SF:/usr/include/c++/11/system_error
FN:100,_ZNSt3_V214error_categoryC2Ev
FNDA:0,_ZNSt3_V214error_categoryC2Ev
FN:144,_ZNKSt3_V214error_categoryeqERKS0_
FNDA:0,_ZNKSt3_V214error_categoryeqERKS0_
FN:229,_ZNKSt10error_code5valueEv
FNDA:0,_ZNKSt10error_code5valueEv
FN:232,_ZNKSt10error_code8categoryEv
FNDA:0,_ZNKSt10error_code8categoryEv
FN:303,_ZNSt15error_conditionC2EiRKNSt3_V214error_categoryE
FNDA:0,_ZNSt15error_conditionC2EiRKNSt3_V214error_categoryE
FN:331,_ZNKSt15error_condition5valueEv
FNDA:0,_ZNKSt15error_condition5valueEv
FN:334,_ZNKSt15error_condition8categoryEv
FNDA:0,_ZNKSt15error_condition8categoryEv
FN:376,_ZSteqRKSt15error_conditionS1_
FNDA:0,_ZSteqRKSt15error_conditionS1_
DA:100,0
DA:144,0
DA:145,0
DA:229,0
DA:232,0
DA:303,0
DA:304,0
DA:331,0
DA:334,0
DA:376,0
DA:379,0
DA:380,0
end_of_record
SF:/usr/include/boost/asio/detail/keyword_tss_ptr.hpp
FN:36,_ZN5boost4asio6detail15keyword_tss_ptrINS1_10call_stackINS1_23strand_executor_service11strand_implEhE7contextEEC2Ev
FNDA:0,_ZN5boost4asio6detail15keyword_tss_ptrINS1_10call_stackINS1_23strand_executor_service11strand_implEhE7contextEEC2Ev
FN:36,_ZN5boost4asio6detail15keyword_tss_ptrINS1_10call_stackINS1_14strand_service11strand_implEhE7contextEEC2Ev
FNDA:0,_ZN5boost4asio6detail15keyword_tss_ptrINS1_10call_stackINS1_14strand_service11strand_implEhE7contextEEC2Ev
FN:36,_ZN5boost4asio6detail15keyword_tss_ptrINS1_10call_stackINS1_14thread_contextENS1_16thread_info_baseEE7contextEEC2Ev
FNDA:0,_ZN5boost4asio6detail15keyword_tss_ptrINS1_10call_stackINS1_14thread_contextENS1_16thread_info_baseEE7contextEEC2Ev
FN:41,_ZN5boost4asio6detail15keyword_tss_ptrINS1_10call_stackINS1_23strand_executor_service11strand_implEhE7contextEED2Ev
FNDA:0,_ZN5boost4asio6detail15keyword_tss_ptrINS1_10call_stackINS1_23strand_executor_service11strand_implEhE7contextEED2Ev
FN:41,_ZN5boost4asio6detail15keyword_tss_ptrINS1_10call_stackINS1_14strand_service11strand_implEhE7contextEED2Ev
FNDA:0,_ZN5boost4asio6detail15keyword_tss_ptrINS1_10call_stackINS1_14strand_service11strand_implEhE7contextEED2Ev
FN:41,_ZN5boost4asio6detail15keyword_tss_ptrINS1_10call_stackINS1_14thread_contextENS1_16thread_info_baseEE7contextEED2Ev
FNDA:0,_ZN5boost4asio6detail15keyword_tss_ptrINS1_10call_stackINS1_14thread_contextENS1_16thread_info_baseEE7contextEED2Ev
DA:36,0
DA:37,0
DA:38,0
DA:36,0
DA:37,0
DA:38,0
DA:36,0
DA:37,0
DA:38,0
DA:41,0
DA:43,0
DA:41,0
DA:43,0
DA:41,0
DA:43,0
end_of_record
SF:/usr/include/c++/11/ext/string_conversions.h
FN:54,_ZN9__gnu_cxx6__stoaIlicJiEEET0_PFT_PKT1_PPS3_DpT2_EPKcS5_PmS9_
FNDA:71,_ZN9__gnu_cxx6__stoaIlicJiEEET0_PFT_PKT1_PPS3_DpT2_EPKcS5_PmS9_
FN:63,_ZZN9__gnu_cxx6__stoaIlicJiEEET0_PFT_PKT1_PPS3_DpT2_EPKcS5_PmS9_EN11_Save_errnoC2Ev
FNDA:71,_ZZN9__gnu_cxx6__stoaIlicJiEEET0_PFT_PKT1_PPS3_DpT2_EPKcS5_PmS9_EN11_Save_errnoC2Ev
FN:64,_ZZN9__gnu_cxx6__stoaIlicJiEEET0_PFT_PKT1_PPS3_DpT2_EPKcS5_PmS9_EN11_Save_errnoD2Ev
FNDA:71,_ZZN9__gnu_cxx6__stoaIlicJiEEET0_PFT_PKT1_PPS3_DpT2_EPKcS5_PmS9_EN11_Save_errnoD2Ev
FN:73,_ZZN9__gnu_cxx6__stoaIlicJiEEET0_PFT_PKT1_PPS3_DpT2_EPKcS5_PmS9_EN10_Range_chk6_S_chkElSt17integral_constantIbLb1EE
FNDA:71,_ZZN9__gnu_cxx6__stoaIlicJiEEET0_PFT_PKT1_PPS3_DpT2_EPKcS5_PmS9_EN10_Range_chk6_S_chkElSt17integral_constantIbLb1EE
DA:54,71
DA:63,71
DA:64,71
DA:66,71
DA:73,71
DA:76,71
DA:80,71
DA:82,71
DA:83,0
DA:84,142
DA:85,71
DA:86,0
DA:88,71
DA:90,71
DA:91,0
DA:93,71
DA:94,71
end_of_record
SF:/usr/include/c++/11/bits/move.h
FN:49,_ZSt11__addressofIKcEPT_RS1_
FNDA:0,_ZSt11__addressofIKcEPT_RS1_
FN:49,_ZSt11__addressofIcEPT_RS0_
FNDA:0,_ZSt11__addressofIcEPT_RS0_
FN:49,_ZSt11__addressofIKZN18HardwareControllerC4ERKNSt7__cxx1112basic_stringIcSt11char_traitsIcESaIcEEEiEUlS8_E_EPT_RSB_
FNDA:121,_ZSt11__addressofIKZN18HardwareControllerC4ERKNSt7__cxx1112basic_stringIcSt11char_traitsIcESaIcEEEiEUlS8_E_EPT_RSB_
FN:77,_ZSt7forwardIRKNSt7__cxx1112basic_stringIcSt11char_traitsIcESaIcEEEEOT_RNSt16remove_referenceIS8_E4typeE
FNDA:0,_ZSt7forwardIRKNSt7__cxx1112basic_stringIcSt11char_traitsIcESaIcEEEEOT_RNSt16remove_referenceIS8_E4typeE
FN:77,_ZSt7forwardIbEOT_RNSt16remove_referenceIS0_E4typeE
FNDA:0,_ZSt7forwardIbEOT_RNSt16remove_referenceIS0_E4typeE
FN:77,_ZSt7forwardIPKN5boost6system14error_categoryEEOT_RNSt16remove_referenceIS5_E4typeE
FNDA:0,_ZSt7forwardIPKN5boost6system14error_categoryEEOT_RNSt16remove_referenceIS5_E4typeE
FN:77,_ZSt7forwardISt10unique_ptrIN5boost6system6detail12std_categoryESt14default_deleteIS4_EEEOT_RNSt16remove_referenceIS8_E4typeE
FNDA:0,_ZSt7forwardISt10unique_ptrIN5boost6system6detail12std_categoryESt14default_deleteIS4_EEEOT_RNSt16remove_referenceIS8_E4typeE
FN:77,_ZSt7forwardIZN18HardwareControllerC4ERKNSt7__cxx1112basic_stringIcSt11char_traitsIcESaIcEEEiEUlS8_E_EOT_RNSt16remove_referenceISA_E4typeE
FNDA:363,_ZSt7forwardIZN18HardwareControllerC4ERKNSt7__cxx1112basic_stringIcSt11char_traitsIcESaIcEEEiEUlS8_E_EOT_RNSt16remove_referenceISA_E4typeE
FN:77,_ZSt7forwardIZN18HardwareController12startReadingEvEUlvE_EOT_RNSt16remove_referenceIS2_E4typeE
FNDA:9,_ZSt7forwardIZN18HardwareController12startReadingEvEUlvE_EOT_RNSt16remove_referenceIS2_E4typeE
FN:77,_ZSt7forwardISt4pairIKPKN5boost6system14error_categoryESt10unique_ptrINS2_6detail12std_categoryESt14default_deleteIS9_EEEEOT_RNSt16remove_referenceISE_E4typeE
FNDA:0,_ZSt7forwardISt4pairIKPKN5boost6system14error_categoryESt10unique_ptrINS2_6detail12std_categoryESt14default_deleteIS9_EEEEOT_RNSt16remove_referenceISE_E4typeE
FN:77,_ZSt7forwardISt17_Rb_tree_iteratorISt4pairIKPKN5boost6system14error_categoryESt10unique_ptrINS3_6detail12std_categoryESt14default_deleteISA_EEEEEOT_RNSt16remove_referenceISG_E4typeE
FNDA:0,_ZSt7forwardISt17_Rb_tree_iteratorISt4pairIKPKN5boost6system14error_categoryESt10unique_ptrINS3_6detail12std_categoryESt14default_deleteISA_EEEEEOT_RNSt16remove_referenceISG_E4typeE
FN:77,_ZSt7forwardIRZN18HardwareControllerC4ERKNSt7__cxx1112basic_stringIcSt11char_traitsIcESaIcEEEiEUlS8_E_EOT_RNSt16remove_referenceISB_E4typeE
FNDA:0,_ZSt7forwardIRZN18HardwareControllerC4ERKNSt7__cxx1112basic_stringIcSt11char_traitsIcESaIcEEEiEUlS8_E_EOT_RNSt16remove_referenceISB_E4typeE
FN:77,_ZSt7forwardIRPSt13_Rb_tree_nodeISt4pairIKPKN5boost6system14error_categoryESt10unique_ptrINS3_6detail12std_categoryESt14default_deleteISA_EEEEEOT_RNSt16remove_referenceISI_E4typeE
FNDA:0,_ZSt7forwardIRPSt13_Rb_tree_nodeISt4pairIKPKN5boost6system14error_categoryESt10unique_ptrINS3_6detail12std_categoryESt14default_deleteISA_EEEEEOT_RNSt16remove_referenceISI_E4typeE
FN:77,_ZSt7forwardIRPSt18_Rb_tree_node_baseEOT_RNSt16remove_referenceIS3_E4typeE
FNDA:0,_ZSt7forwardIRPSt18_Rb_tree_node_baseEOT_RNSt16remove_referenceIS3_E4typeE
FN:77,_ZSt7forwardIRKZN18HardwareControllerC4ERKNSt7__cxx1112basic_stringIcSt11char_traitsIcESaIcEEEiEUlS8_E_EOT_RNSt16remove_referenceISC_E4typeE
FNDA:242,_ZSt7forwardIRKZN18HardwareControllerC4ERKNSt7__cxx1112basic_stringIcSt11char_traitsIcESaIcEEEiEUlS8_E_EOT_RNSt16remove_referenceISC_E4typeE
FN:104,_ZSt4moveIRPNSt6thread6_StateEEONSt16remove_referenceIT_E4typeEOS5_
FNDA:0,_ZSt4moveIRPNSt6thread6_StateEEONSt16remove_referenceIT_E4typeEOS5_
FN:104,_ZSt4moveIRSt5tupleIJZN18HardwareController12startReadingEvEUlvE_EEEONSt16remove_referenceIT_E4typeEOS6_
FNDA:1,_ZSt4moveIRSt5tupleIJZN18HardwareController12startReadingEvEUlvE_EEEONSt16remove_referenceIT_E4typeEOS6_
FN:104,_ZSt4moveIRSt5tupleIJPN5boost6system6detail12std_categoryESt14default_deleteIS4_EEEEONSt16remove_referenceIT_E4typeEOSB_
FNDA:0,_ZSt4moveIRSt5tupleIJPN5boost6system6detail12std_categoryESt14default_deleteIS4_EEEEONSt16remove_referenceIT_E4typeEOSB_
FN:104,_ZSt4moveIRSt4pairIKPKN5boost6system14error_categoryESt10unique_ptrINS2_6detail12std_categoryESt14default_deleteIS9_EEEEONSt16remove_referenceIT_E4typeEOSG_
FNDA:0,_ZSt4moveIRSt4pairIKPKN5boost6system14error_categoryESt10unique_ptrINS2_6detail12std_categoryESt14default_deleteIS9_EEEEONSt16remove_referenceIT_E4typeEOSG_
FN:104,_ZSt4moveIRPN5boost6system6detail12std_categoryEEONSt16remove_referenceIT_E4typeEOS7_
FNDA:0,_ZSt4moveIRPN5boost6system6detail12std_categoryEEONSt16remove_referenceIT_E4typeEOS7_
FN:104,_ZSt4moveIRNSt6thread2idEEONSt16remove_referenceIT_E4typeEOS4_
FNDA:3,_ZSt4moveIRNSt6thread2idEEONSt16remove_referenceIT_E4typeEOS4_
FN:104,_ZSt4moveIRSt10unique_ptrIN5boost6system6detail12std_categoryESt14default_deleteIS4_EEEONSt16remove_referenceIT_E4typeEOSA_
FNDA:0,_ZSt4moveIRSt10unique_ptrIN5boost6system6detail12std_categoryESt14default_deleteIS4_EEEONSt16remove_referenceIT_E4typeEOSA_
FN:145,_ZSt9addressofIcEPT_RS0_
FNDA:0,_ZSt9addressofIcEPT_RS0_
FN:145,_ZSt9addressofIKcEPT_RS1_
FNDA:0,_ZSt9addressofIKcEPT_RS1_
FN:196,_ZSt4swapINSt6thread2idEENSt9enable_ifIXsrSt6__and_IJSt6__not_ISt15__is_tuple_likeIT_EESt21is_move_constructibleIS6_ESt18is_move_assignableIS6_EEE5valueEvE4typeERS6_SG_
FNDA:1,_ZSt4swapINSt6thread2idEENSt9enable_ifIXsrSt6__and_IJSt6__not_ISt15__is_tuple_likeIT_EESt21is_move_constructibleIS6_ESt18is_move_assignableIS6_EEE5valueEvE4typeERS6_SG_
DA:49,0
DA:50,0
DA:49,0
DA:50,0
DA:49,121
DA:50,121
DA:77,242
DA:78,242
DA:77,0
DA:78,0
DA:77,0
DA:78,0
DA:77,0
DA:78,0
DA:77,0
DA:78,0
DA:77,0
DA:78,0
DA:77,0
DA:78,0
DA:77,9
DA:78,9
DA:77,363
DA:78,363
DA:77,0
DA:78,0
DA:77,0
DA:78,0
DA:77,0
DA:78,0
DA:104,1
DA:105,1
DA:104,0
DA:105,0
DA:104,0
DA:105,0
DA:104,0
DA:105,0
DA:104,0
DA:105,0
DA:104,3
DA:105,3
DA:104,0
DA:105,0
DA:145,0
DA:146,0
DA:145,0
DA:146,0
DA:196,1
DA:204,1
DA:205,1
DA:206,1
DA:207,1
end_of_record
SF:/usr/include/boost/system/detail/generic_category.hpp
FN:25,_ZN5boost6system6detail17strerror_r_helperEPKcS3_
FNDA:0,_ZN5boost6system6detail17strerror_r_helperEPKcS3_
FN:35,_ZN5boost6system6detail30generic_error_category_messageEiPcm
FNDA:0,_ZN5boost6system6detail30generic_error_category_messageEiPcm
FN:40,_ZN5boost6system6detail30generic_error_category_messageB5cxx11Ei
FNDA:0,_ZN5boost6system6detail30generic_error_category_messageB5cxx11Ei
DA:25,0
DA:27,0
DA:35,0
DA:37,0
DA:40,0
DA:43,0
end_of_record
SF:/usr/include/c++/11/bits/stl_construct.h
FN:80,_ZSt10destroy_atISt4pairIKPKN5boost6system14error_categoryESt10unique_ptrINS2_6detail12std_categoryESt14default_deleteIS9_EEEEvPT_
FNDA:0,_ZSt10destroy_atISt4pairIKPKN5boost6system14error_categoryESt10unique_ptrINS2_6detail12std_categoryESt14default_deleteIS9_EEEEvPT_
FN:94,_ZSt12construct_atISt4pairIKPKN5boost6system14error_categoryESt10unique_ptrINS2_6detail12std_categoryESt14default_deleteIS9_EEEJSD_EEDTgsnwcvPvLi0E_T_pispcl7declvalIT0_EEEEPSF_DpOSG_
FNDA:0,_ZSt12construct_atISt4pairIKPKN5boost6system14error_categoryESt10unique_ptrINS2_6detail12std_categoryESt14default_deleteIS9_EEEJSD_EEDTgsnwcvPvLi0E_T_pispcl7declvalIT0_EEEEPSF_DpOSG_
DA:80,0
DA:88,0
DA:89,0
DA:94,0
DA:97,0
end_of_record
SF:/usr/include/c++/11/bits/stl_tree.h
FN:146,_ZNSt20_Rb_tree_key_compareIN5boost6system6detail12cat_ptr_lessEEC2Ev
FNDA:0,_ZNSt20_Rb_tree_key_compareIN5boost6system6detail12cat_ptr_lessEEC2Ev
FN:173,_ZNSt15_Rb_tree_headerC2Ev
FNDA:0,_ZNSt15_Rb_tree_headerC2Ev
FN:206,_ZNSt15_Rb_tree_header8_M_resetEv
FNDA:0,_ZNSt15_Rb_tree_header8_M_resetEv
FN:234,_ZNSt13_Rb_tree_nodeISt4pairIKPKN5boost6system14error_categoryESt10unique_ptrINS2_6detail12std_categoryESt14default_deleteIS9_EEEE9_M_valptrEv
FNDA:0,_ZNSt13_Rb_tree_nodeISt4pairIKPKN5boost6system14error_categoryESt10unique_ptrINS2_6detail12std_categoryESt14default_deleteIS9_EEEE9_M_valptrEv
FN:238,_ZNKSt13_Rb_tree_nodeISt4pairIKPKN5boost6system14error_categoryESt10unique_ptrINS2_6detail12std_categoryESt14default_deleteIS9_EEEE9_M_valptrEv
FNDA:0,_ZNKSt13_Rb_tree_nodeISt4pairIKPKN5boost6system14error_categoryESt10unique_ptrINS2_6detail12std_categoryESt14default_deleteIS9_EEEE9_M_valptrEv
FN:273,_ZNSt17_Rb_tree_iteratorISt4pairIKPKN5boost6system14error_categoryESt10unique_ptrINS2_6detail12std_categoryESt14default_deleteIS9_EEEEC2EPSt18_Rb_tree_node_base
FNDA:0,_ZNSt17_Rb_tree_iteratorISt4pairIKPKN5boost6system14error_categoryESt10unique_ptrINS2_6detail12std_categoryESt14default_deleteIS9_EEEEC2EPSt18_Rb_tree_node_base
FN:281,_ZNKSt17_Rb_tree_iteratorISt4pairIKPKN5boost6system14error_categoryESt10unique_ptrINS2_6detail12std_categoryESt14default_deleteIS9_EEEEptEv
FNDA:0,_ZNKSt17_Rb_tree_iteratorISt4pairIKPKN5boost6system14error_categoryESt10unique_ptrINS2_6detail12std_categoryESt14default_deleteIS9_EEEEptEv
FN:300,_ZNSt17_Rb_tree_iteratorISt4pairIKPKN5boost6system14error_categoryESt10unique_ptrINS2_6detail12std_categoryESt14default_deleteIS9_EEEEmmEv
FNDA:0,_ZNSt17_Rb_tree_iteratorISt4pairIKPKN5boost6system14error_categoryESt10unique_ptrINS2_6detail12std_categoryESt14default_deleteIS9_EEEEmmEv
FN:315,_ZSteqRKSt17_Rb_tree_iteratorISt4pairIKPKN5boost6system14error_categoryESt10unique_ptrINS2_6detail12std_categoryESt14default_deleteIS9_EEEESG_
FNDA:0,_ZSteqRKSt17_Rb_tree_iteratorISt4pairIKPKN5boost6system14error_categoryESt10unique_ptrINS2_6detail12std_categoryESt14default_deleteIS9_EEEESG_
FN:523,_ZNSt8_Rb_treeIPKN5boost6system14error_categoryESt4pairIKS4_St10unique_ptrINS1_6detail12std_categoryESt14default_deleteIS9_EEESt10_Select1stISD_ENS8_12cat_ptr_lessESaISD_EE11_Alloc_nodeC2ERSI_
FNDA:0,_ZNSt8_Rb_treeIPKN5boost6system14error_categoryESt4pairIKS4_St10unique_ptrINS1_6detail12std_categoryESt14default_deleteIS9_EEESt10_Select1stISD_ENS8_12cat_ptr_lessESaISD_EE11_Alloc_nodeC2ERSI_
FN:528,_ZNKSt8_Rb_treeIPKN5boost6system14error_categoryESt4pairIKS4_St10unique_ptrINS1_6detail12std_categoryESt14default_deleteIS9_EEESt10_Select1stISD_ENS8_12cat_ptr_lessESaISD_EE11_Alloc_nodeclISD_EEPSt13_Rb_tree_nodeISD_EOT_
FNDA:0,_ZNKSt8_Rb_treeIPKN5boost6system14error_categoryESt4pairIKS4_St10unique_ptrINS1_6detail12std_categoryESt14default_deleteIS9_EEESt10_Select1stISD_ENS8_12cat_ptr_lessESaISD_EE11_Alloc_nodeclISD_EEPSt13_Rb_tree_nodeISD_EOT_
FN:547,_ZNSt8_Rb_treeIPKN5boost6system14error_categoryESt4pairIKS4_St10unique_ptrINS1_6detail12std_categoryESt14default_deleteIS9_EEESt10_Select1stISD_ENS8_12cat_ptr_lessESaISD_EE21_M_get_Node_allocatorEv
FNDA:0,_ZNSt8_Rb_treeIPKN5boost6system14error_categoryESt4pairIKS4_St10unique_ptrINS1_6detail12std_categoryESt14default_deleteIS9_EEESt10_Select1stISD_ENS8_12cat_ptr_lessESaISD_EE21_M_get_Node_allocatorEv
FN:560,_ZNSt8_Rb_treeIPKN5boost6system14error_categoryESt4pairIKS4_St10unique_ptrINS1_6detail12std_categoryESt14default_deleteIS9_EEESt10_Select1stISD_ENS8_12cat_ptr_lessESaISD_EE11_M_get_nodeEv
FNDA:0,_ZNSt8_Rb_treeIPKN5boost6system14error_categoryESt4pairIKS4_St10unique_ptrINS1_6detail12std_categoryESt14default_deleteIS9_EEESt10_Select1stISD_ENS8_12cat_ptr_lessESaISD_EE11_M_get_nodeEv
FN:564,_ZNSt8_Rb_treeIPKN5boost6system14error_categoryESt4pairIKS4_St10unique_ptrINS1_6detail12std_categoryESt14default_deleteIS9_EEESt10_Select1stISD_ENS8_12cat_ptr_lessESaISD_EE11_M_put_nodeEPSt13_Rb_tree_nodeISD_E
FNDA:0,_ZNSt8_Rb_treeIPKN5boost6system14error_categoryESt4pairIKS4_St10unique_ptrINS1_6detail12std_categoryESt14default_deleteIS9_EEESt10_Select1stISD_ENS8_12cat_ptr_lessESaISD_EE11_M_put_nodeEPSt13_Rb_tree_nodeISD_E
FN:590,_ZNSt8_Rb_treeIPKN5boost6system14error_categoryESt4pairIKS4_St10unique_ptrINS1_6detail12std_categoryESt14default_deleteIS9_EEESt10_Select1stISD_ENS8_12cat_ptr_lessESaISD_EE17_M_construct_nodeIJSD_EEEvPSt13_Rb_tree_nodeISD_EDpOT_
FNDA:0,_ZNSt8_Rb_treeIPKN5boost6system14error_categoryESt4pairIKS4_St10unique_ptrINS1_6detail12std_categoryESt14default_deleteIS9_EEESt10_Select1stISD_ENS8_12cat_ptr_lessESaISD_EE17_M_construct_nodeIJSD_EEEvPSt13_Rb_tree_nodeISD_EDpOT_
FN:609,_ZNSt8_Rb_treeIPKN5boost6system14error_categoryESt4pairIKS4_St10unique_ptrINS1_6detail12std_categoryESt14default_deleteIS9_EEESt10_Select1stISD_ENS8_12cat_ptr_lessESaISD_EE14_M_create_nodeIJSD_EEEPSt13_Rb_tree_nodeISD_EDpOT_
FNDA:0,_ZNSt8_Rb_treeIPKN5boost6system14error_categoryESt4pairIKS4_St10unique_ptrINS1_6detail12std_categoryESt14default_deleteIS9_EEESt10_Select1stISD_ENS8_12cat_ptr_lessESaISD_EE14_M_create_nodeIJSD_EEEPSt13_Rb_tree_nodeISD_EDpOT_
FN:618,_ZNSt8_Rb_treeIPKN5boost6system14error_categoryESt4pairIKS4_St10unique_ptrINS1_6detail12std_categoryESt14default_deleteIS9_EEESt10_Select1stISD_ENS8_12cat_ptr_lessESaISD_EE15_M_destroy_nodeEPSt13_Rb_tree_nodeISD_E
FNDA:0,_ZNSt8_Rb_treeIPKN5boost6system14error_categoryESt4pairIKS4_St10unique_ptrINS1_6detail12std_categoryESt14default_deleteIS9_EEESt10_Select1stISD_ENS8_12cat_ptr_lessESaISD_EE15_M_destroy_nodeEPSt13_Rb_tree_nodeISD_E
FN:629,_ZNSt8_Rb_treeIPKN5boost6system14error_categoryESt4pairIKS4_St10unique_ptrINS1_6detail12std_categoryESt14default_deleteIS9_EEESt10_Select1stISD_ENS8_12cat_ptr_lessESaISD_EE12_M_drop_nodeEPSt13_Rb_tree_nodeISD_E
FNDA:0,_ZNSt8_Rb_treeIPKN5boost6system14error_categoryESt4pairIKS4_St10unique_ptrINS1_6detail12std_categoryESt14default_deleteIS9_EEESt10_Select1stISD_ENS8_12cat_ptr_lessESaISD_EE12_M_drop_nodeEPSt13_Rb_tree_nodeISD_E
FN:667,_ZNSt8_Rb_treeIPKN5boost6system14error_categoryESt4pairIKS4_St10unique_ptrINS1_6detail12std_categoryESt14default_deleteIS9_EEESt10_Select1stISD_ENS8_12cat_ptr_lessESaISD_EE13_Rb_tree_implISG_Lb1EEC2Ev
FNDA:0,_ZNSt8_Rb_treeIPKN5boost6system14error_categoryESt4pairIKS4_St10unique_ptrINS1_6detail12std_categoryESt14default_deleteIS9_EEESt10_Select1stISD_ENS8_12cat_ptr_lessESaISD_EE13_Rb_tree_implISG_Lb1EEC2Ev
FN:734,_ZNKSt8_Rb_treeIPKN5boost6system14error_categoryESt4pairIKS4_St10unique_ptrINS1_6detail12std_categoryESt14default_deleteIS9_EEESt10_Select1stISD_ENS8_12cat_ptr_lessESaISD_EE9_M_mbeginEv
FNDA:0,_ZNKSt8_Rb_treeIPKN5boost6system14error_categoryESt4pairIKS4_St10unique_ptrINS1_6detail12std_categoryESt14default_deleteIS9_EEESt10_Select1stISD_ENS8_12cat_ptr_lessESaISD_EE9_M_mbeginEv
FN:738,_ZNSt8_Rb_treeIPKN5boost6system14error_categoryESt4pairIKS4_St10unique_ptrINS1_6detail12std_categoryESt14default_deleteIS9_EEESt10_Select1stISD_ENS8_12cat_ptr_lessESaISD_EE8_M_beginEv
FNDA:0,_ZNSt8_Rb_treeIPKN5boost6system14error_categoryESt4pairIKS4_St10unique_ptrINS1_6detail12std_categoryESt14default_deleteIS9_EEESt10_Select1stISD_ENS8_12cat_ptr_lessESaISD_EE8_M_beginEv
FN:749,_ZNSt8_Rb_treeIPKN5boost6system14error_categoryESt4pairIKS4_St10unique_ptrINS1_6detail12std_categoryESt14default_deleteIS9_EEESt10_Select1stISD_ENS8_12cat_ptr_lessESaISD_EE6_M_endEv
FNDA:0,_ZNSt8_Rb_treeIPKN5boost6system14error_categoryESt4pairIKS4_St10unique_ptrINS1_6detail12std_categoryESt14default_deleteIS9_EEESt10_Select1stISD_ENS8_12cat_ptr_lessESaISD_EE6_M_endEv
FN:757,_ZNSt8_Rb_treeIPKN5boost6system14error_categoryESt4pairIKS4_St10unique_ptrINS1_6detail12std_categoryESt14default_deleteIS9_EEESt10_Select1stISD_ENS8_12cat_ptr_lessESaISD_EE6_S_keyEPKSt13_Rb_tree_nodeISD_E
FNDA:0,_ZNSt8_Rb_treeIPKN5boost6system14error_categoryESt4pairIKS4_St10unique_ptrINS1_6detail12std_categoryESt14default_deleteIS9_EEESt10_Select1stISD_ENS8_12cat_ptr_lessESaISD_EE6_S_keyEPKSt13_Rb_tree_nodeISD_E
FN:779,_ZNSt8_Rb_treeIPKN5boost6system14error_categoryESt4pairIKS4_St10unique_ptrINS1_6detail12std_categoryESt14default_deleteIS9_EEESt10_Select1stISD_ENS8_12cat_ptr_lessESaISD_EE7_S_leftEPSt18_Rb_tree_node_base
FNDA:0,_ZNSt8_Rb_treeIPKN5boost6system14error_categoryESt4pairIKS4_St10unique_ptrINS1_6detail12std_categoryESt14default_deleteIS9_EEESt10_Select1stISD_ENS8_12cat_ptr_lessESaISD_EE7_S_leftEPSt18_Rb_tree_node_base
FN:787,_ZNSt8_Rb_treeIPKN5boost6system14error_categoryESt4pairIKS4_St10unique_ptrINS1_6detail12std_categoryESt14default_deleteIS9_EEESt10_Select1stISD_ENS8_12cat_ptr_lessESaISD_EE8_S_rightEPSt18_Rb_tree_node_base
FNDA:0,_ZNSt8_Rb_treeIPKN5boost6system14error_categoryESt4pairIKS4_St10unique_ptrINS1_6detail12std_categoryESt14default_deleteIS9_EEESt10_Select1stISD_ENS8_12cat_ptr_lessESaISD_EE8_S_rightEPSt18_Rb_tree_node_base
FN:795,_ZNSt8_Rb_treeIPKN5boost6system14error_categoryESt4pairIKS4_St10unique_ptrINS1_6detail12std_categoryESt14default_deleteIS9_EEESt10_Select1stISD_ENS8_12cat_ptr_lessESaISD_EE6_S_keyEPKSt18_Rb_tree_node_base
FNDA:0,_ZNSt8_Rb_treeIPKN5boost6system14error_categoryESt4pairIKS4_St10unique_ptrINS1_6detail12std_categoryESt14default_deleteIS9_EEESt10_Select1stISD_ENS8_12cat_ptr_lessESaISD_EE6_S_keyEPKSt18_Rb_tree_node_base
FN:928,_ZNSt8_Rb_treeIPKN5boost6system14error_categoryESt4pairIKS4_St10unique_ptrINS1_6detail12std_categoryESt14default_deleteIS9_EEESt10_Select1stISD_ENS8_12cat_ptr_lessESaISD_EEC2Ev
FNDA:0,_ZNSt8_Rb_treeIPKN5boost6system14error_categoryESt4pairIKS4_St10unique_ptrINS1_6detail12std_categoryESt14default_deleteIS9_EEESt10_Select1stISD_ENS8_12cat_ptr_lessESaISD_EEC2Ev
FN:983,_ZNSt8_Rb_treeIPKN5boost6system14error_categoryESt4pairIKS4_St10unique_ptrINS1_6detail12std_categoryESt14default_deleteIS9_EEESt10_Select1stISD_ENS8_12cat_ptr_lessESaISD_EED2Ev
FNDA:0,_ZNSt8_Rb_treeIPKN5boost6system14error_categoryESt4pairIKS4_St10unique_ptrINS1_6detail12std_categoryESt14default_deleteIS9_EEESt10_Select1stISD_ENS8_12cat_ptr_lessESaISD_EED2Ev
FN:995,_ZNSt8_Rb_treeIPKN5boost6system14error_categoryESt4pairIKS4_St10unique_ptrINS1_6detail12std_categoryESt14default_deleteIS9_EEESt10_Select1stISD_ENS8_12cat_ptr_lessESaISD_EE5beginEv
FNDA:0,_ZNSt8_Rb_treeIPKN5boost6system14error_categoryESt4pairIKS4_St10unique_ptrINS1_6detail12std_categoryESt14default_deleteIS9_EEESt10_Select1stISD_ENS8_12cat_ptr_lessESaISD_EE5beginEv
FN:1003,_ZNSt8_Rb_treeIPKN5boost6system14error_categoryESt4pairIKS4_St10unique_ptrINS1_6detail12std_categoryESt14default_deleteIS9_EEESt10_Select1stISD_ENS8_12cat_ptr_lessESaISD_EE3endEv
FNDA:0,_ZNSt8_Rb_treeIPKN5boost6system14error_categoryESt4pairIKS4_St10unique_ptrINS1_6detail12std_categoryESt14default_deleteIS9_EEESt10_Select1stISD_ENS8_12cat_ptr_lessESaISD_EE3endEv
FN:1771,_ZNSt8_Rb_treeIPKN5boost6system14error_categoryESt4pairIKS4_St10unique_ptrINS1_6detail12std_categoryESt14default_deleteIS9_EEESt10_Select1stISD_ENS8_12cat_ptr_lessESaISD_EE10_M_insert_ISD_NSI_11_Alloc_nodeEEESt17_Rb_tree_iteratorISD_EPSt18_Rb_tree_node_baseSO_OT_RT0_
FNDA:0,_ZNSt8_Rb_treeIPKN5boost6system14error_categoryESt4pairIKS4_St10unique_ptrINS1_6detail12std_categoryESt14default_deleteIS9_EEESt10_Select1stISD_ENS8_12cat_ptr_lessESaISD_EE10_M_insert_ISD_NSI_11_Alloc_nodeEEESt17_Rb_tree_iteratorISD_EPSt18_Rb_tree_node_baseSO_OT_RT0_
FN:1883,_ZNSt8_Rb_treeIPKN5boost6system14error_categoryESt4pairIKS4_St10unique_ptrINS1_6detail12std_categoryESt14default_deleteIS9_EEESt10_Select1stISD_ENS8_12cat_ptr_lessESaISD_EE8_M_eraseEPSt13_Rb_tree_nodeISD_E
FNDA:0,_ZNSt8_Rb_treeIPKN5boost6system14error_categoryESt4pairIKS4_St10unique_ptrINS1_6detail12std_categoryESt14default_deleteIS9_EEESt10_Select1stISD_ENS8_12cat_ptr_lessESaISD_EE8_M_eraseEPSt13_Rb_tree_nodeISD_E
FN:1900,_ZNSt8_Rb_treeIPKN5boost6system14error_categoryESt4pairIKS4_St10unique_ptrINS1_6detail12std_categoryESt14default_deleteIS9_EEESt10_Select1stISD_ENS8_12cat_ptr_lessESaISD_EE14_M_lower_boundEPSt13_Rb_tree_nodeISD_EPSt18_Rb_tree_node_baseRS6_
FNDA:0,_ZNSt8_Rb_treeIPKN5boost6system14error_categoryESt4pairIKS4_St10unique_ptrINS1_6detail12std_categoryESt14default_deleteIS9_EEESt10_Select1stISD_ENS8_12cat_ptr_lessESaISD_EE14_M_lower_boundEPSt13_Rb_tree_nodeISD_EPSt18_Rb_tree_node_baseRS6_
FN:2061,_ZNSt8_Rb_treeIPKN5boost6system14error_categoryESt4pairIKS4_St10unique_ptrINS1_6detail12std_categoryESt14default_deleteIS9_EEESt10_Select1stISD_ENS8_12cat_ptr_lessESaISD_EE24_M_get_insert_unique_posERS6_
FNDA:0,_ZNSt8_Rb_treeIPKN5boost6system14error_categoryESt4pairIKS4_St10unique_ptrINS1_6detail12std_categoryESt14default_deleteIS9_EEESt10_Select1stISD_ENS8_12cat_ptr_lessESaISD_EE24_M_get_insert_unique_posERS6_
FN:2115,_ZNSt8_Rb_treeIPKN5boost6system14error_categoryESt4pairIKS4_St10unique_ptrINS1_6detail12std_categoryESt14default_deleteIS9_EEESt10_Select1stISD_ENS8_12cat_ptr_lessESaISD_EE16_M_insert_uniqueISD_EES5_ISt17_Rb_tree_iteratorISD_EbEOT_
FNDA:0,_ZNSt8_Rb_treeIPKN5boost6system14error_categoryESt4pairIKS4_St10unique_ptrINS1_6detail12std_categoryESt14default_deleteIS9_EEESt10_Select1stISD_ENS8_12cat_ptr_lessESaISD_EE16_M_insert_uniqueISD_EES5_ISt17_Rb_tree_iteratorISD_EbEOT_
FN:2520,_ZNSt8_Rb_treeIPKN5boost6system14error_categoryESt4pairIKS4_St10unique_ptrINS1_6detail12std_categoryESt14default_deleteIS9_EEESt10_Select1stISD_ENS8_12cat_ptr_lessESaISD_EE4findERS6_
FNDA:0,_ZNSt8_Rb_treeIPKN5boost6system14error_categoryESt4pairIKS4_St10unique_ptrINS1_6detail12std_categoryESt14default_deleteIS9_EEESt10_Select1stISD_ENS8_12cat_ptr_lessESaISD_EE4findERS6_
DA:146,0
DA:150,0
DA:173,0
DA:174,0
DA:175,0
DA:176,0
DA:177,0
DA:206,0
DA:208,0
DA:209,0
DA:210,0
DA:211,0
DA:212,0
DA:234,0
DA:235,0
DA:238,0
DA:239,0
DA:273,0
DA:274,0
DA:281,0
DA:282,0
DA:300,0
DA:302,0
DA:303,0
DA:315,0
DA:316,0
DA:523,0
DA:524,0
DA:528,0
DA:529,0
DA:547,0
DA:548,0
DA:560,0
DA:561,0
DA:564,0
DA:565,0
DA:590,0
DA:594,0
DA:595,0
DA:605,0
DA:609,0
DA:611,0
DA:612,0
DA:613,0
DA:618,0
DA:623,0
DA:624,0
DA:626,0
DA:629,0
DA:631,0
DA:632,0
DA:633,0
DA:667,0
DA:671,0
DA:672,0
DA:734,0
DA:735,0
DA:738,0
DA:739,0
DA:749,0
DA:750,0
DA:757,0
DA:775,0
DA:779,0
DA:780,0
DA:787,0
DA:788,0
DA:795,0
DA:796,0
DA:928,0
DA:983,0
DA:984,0
DA:995,0
DA:996,0
DA:1003,0
DA:1004,0
DA:1771,0
DA:1780,0
DA:1781,0
DA:1782,0
DA:1784,0
DA:1786,0
DA:1787,0
DA:1788,0
DA:1789,0
DA:1883,0
DA:1887,0
DA:1889,0
DA:1890,0
DA:1891,0
DA:1892,0
DA:1894,0
DA:1900,0
DA:1904,0
DA:1905,0
DA:1906,0
DA:1908,0
DA:1909,0
DA:2061,0
DA:2065,0
DA:2066,0
DA:2067,0
DA:2068,0
DA:2070,0
DA:2071,0
DA:2072,0
DA:2074,0
DA:2075,0
DA:2077,0
DA:2078,0
DA:2080,0
DA:2082,0
DA:2083,0
DA:2084,0
DA:2115,0
DA:2124,0
DA:2126,0
DA:2128,0
DA:2129,0
DA:2131,0
DA:2134,0
DA:2520,0
DA:2523,0
DA:2524,0
DA:2525,0
DA:2526,0
end_of_record
SF:/usr/include/c++/11/bits/basic_string.h
FN:164,_ZNSt7__cxx1112basic_stringIcSt11char_traitsIcESaIcEE12_Alloc_hiderC2EPcRKS3_
FNDA:0,_ZNSt7__cxx1112basic_stringIcSt11char_traitsIcESaIcEE12_Alloc_hiderC2EPcRKS3_
FN:186,_ZNSt7__cxx1112basic_stringIcSt11char_traitsIcESaIcEE7_M_dataEPc
FNDA:0,_ZNSt7__cxx1112basic_stringIcSt11char_traitsIcESaIcEE7_M_dataEPc
FN:190,_ZNSt7__cxx1112basic_stringIcSt11char_traitsIcESaIcEE9_M_lengthEm
FNDA:0,_ZNSt7__cxx1112basic_stringIcSt11char_traitsIcESaIcEE9_M_lengthEm
FN:194,_ZNKSt7__cxx1112basic_stringIcSt11char_traitsIcESaIcEE7_M_dataEv
FNDA:0,_ZNKSt7__cxx1112basic_stringIcSt11char_traitsIcESaIcEE7_M_dataEv
FN:198,_ZNSt7__cxx1112basic_stringIcSt11char_traitsIcESaIcEE13_M_local_dataEv
FNDA:0,_ZNSt7__cxx1112basic_stringIcSt11char_traitsIcESaIcEE13_M_local_dataEv
FN:208,_ZNKSt7__cxx1112basic_stringIcSt11char_traitsIcESaIcEE13_M_local_dataEv
FNDA:0,_ZNKSt7__cxx1112basic_stringIcSt11char_traitsIcESaIcEE13_M_local_dataEv
FN:218,_ZNSt7__cxx1112basic_stringIcSt11char_traitsIcESaIcEE11_M_capacityEm
FNDA:0,_ZNSt7__cxx1112basic_stringIcSt11char_traitsIcESaIcEE11_M_capacityEm
FN:222,_ZNSt7__cxx1112basic_stringIcSt11char_traitsIcESaIcEE13_M_set_lengthEm
FNDA:0,_ZNSt7__cxx1112basic_stringIcSt11char_traitsIcESaIcEE13_M_set_lengthEm
FN:229,_ZNKSt7__cxx1112basic_stringIcSt11char_traitsIcESaIcEE11_M_is_localEv
FNDA:0,_ZNKSt7__cxx1112basic_stringIcSt11char_traitsIcESaIcEE11_M_is_localEv
FN:237,_ZNSt7__cxx1112basic_stringIcSt11char_traitsIcESaIcEE10_M_disposeEv
FNDA:0,_ZNSt7__cxx1112basic_stringIcSt11char_traitsIcESaIcEE10_M_disposeEv
FN:244,_ZNSt7__cxx1112basic_stringIcSt11char_traitsIcESaIcEE10_M_destroyEm
FNDA:0,_ZNSt7__cxx1112basic_stringIcSt11char_traitsIcESaIcEE10_M_destroyEm
FN:294,_ZNSt7__cxx1112basic_stringIcSt11char_traitsIcESaIcEE16_M_get_allocatorEv
FNDA:0,_ZNSt7__cxx1112basic_stringIcSt11char_traitsIcESaIcEE16_M_get_allocatorEv
FN:298,_ZNKSt7__cxx1112basic_stringIcSt11char_traitsIcESaIcEE16_M_get_allocatorEv
FNDA:0,_ZNKSt7__cxx1112basic_stringIcSt11char_traitsIcESaIcEE16_M_get_allocatorEv
FN:328,_ZNKSt7__cxx1112basic_stringIcSt11char_traitsIcESaIcEE15_M_check_lengthEmmPKc
FNDA:0,_ZNKSt7__cxx1112basic_stringIcSt11char_traitsIcESaIcEE15_M_check_lengthEmmPKc
FN:345,_ZNKSt7__cxx1112basic_stringIcSt11char_traitsIcESaIcEE11_M_disjunctEPKc
FNDA:0,_ZNKSt7__cxx1112basic_stringIcSt11char_traitsIcESaIcEE11_M_disjunctEPKc
FN:354,_ZNSt7__cxx1112basic_stringIcSt11char_traitsIcESaIcEE7_S_copyEPcPKcm
FNDA:0,_ZNSt7__cxx1112basic_stringIcSt11char_traitsIcESaIcEE7_S_copyEPcPKcm
FN:363,_ZNSt7__cxx1112basic_stringIcSt11char_traitsIcESaIcEE7_S_moveEPcPKcm
FNDA:0,_ZNSt7__cxx1112basic_stringIcSt11char_traitsIcESaIcEE7_S_moveEPcPKcm
FN:404,_ZNSt7__cxx1112basic_stringIcSt11char_traitsIcESaIcEE13_S_copy_charsEPcPKcS7_
FNDA:0,_ZNSt7__cxx1112basic_stringIcSt11char_traitsIcESaIcEE13_S_copy_charsEPcPKcS7_
FN:409,_ZNSt7__cxx1112basic_stringIcSt11char_traitsIcESaIcEE10_S_compareEmm
FNDA:11,_ZNSt7__cxx1112basic_stringIcSt11char_traitsIcESaIcEE10_S_compareEmm
FN:533,_ZNSt7__cxx1112basic_stringIcSt11char_traitsIcESaIcEEC2IS3_EEPKcRKS3_
FNDA:0,_ZNSt7__cxx1112basic_stringIcSt11char_traitsIcESaIcEEC2IS3_EEPKcRKS3_
FN:671,_ZNSt7__cxx1112basic_stringIcSt11char_traitsIcESaIcEED2Ev
FNDA:0,_ZNSt7__cxx1112basic_stringIcSt11char_traitsIcESaIcEED2Ev
FN:689,_ZNSt7__cxx1112basic_stringIcSt11char_traitsIcESaIcEEaSEPKc
FNDA:0,_ZNSt7__cxx1112basic_stringIcSt11char_traitsIcESaIcEEaSEPKc
FN:920,_ZNKSt7__cxx1112basic_stringIcSt11char_traitsIcESaIcEE4sizeEv
FNDA:0,_ZNKSt7__cxx1112basic_stringIcSt11char_traitsIcESaIcEE4sizeEv
FN:926,_ZNKSt7__cxx1112basic_stringIcSt11char_traitsIcESaIcEE6lengthEv
FNDA:0,_ZNKSt7__cxx1112basic_stringIcSt11char_traitsIcESaIcEE6lengthEv
FN:931,_ZNKSt7__cxx1112basic_stringIcSt11char_traitsIcESaIcEE8max_sizeEv
FNDA:0,_ZNKSt7__cxx1112basic_stringIcSt11char_traitsIcESaIcEE8max_sizeEv
FN:976,_ZNKSt7__cxx1112basic_stringIcSt11char_traitsIcESaIcEE8capacityEv
FNDA:0,_ZNKSt7__cxx1112basic_stringIcSt11char_traitsIcESaIcEE8capacityEv
FN:1023,_ZNKSt7__cxx1112basic_stringIcSt11char_traitsIcESaIcEE5emptyEv
FNDA:0,_ZNKSt7__cxx1112basic_stringIcSt11char_traitsIcESaIcEE5emptyEv
FN:1160,_ZNSt7__cxx1112basic_stringIcSt11char_traitsIcESaIcEEpLERKS4_
FNDA:0,_ZNSt7__cxx1112basic_stringIcSt11char_traitsIcESaIcEEpLERKS4_
FN:1169,_ZNSt7__cxx1112basic_stringIcSt11char_traitsIcESaIcEEpLEPKc
FNDA:0,_ZNSt7__cxx1112basic_stringIcSt11char_traitsIcESaIcEEpLEPKc
FN:1213,_ZNSt7__cxx1112basic_stringIcSt11char_traitsIcESaIcEE6appendERKS4_
FNDA:0,_ZNSt7__cxx1112basic_stringIcSt11char_traitsIcESaIcEE6appendERKS4_
FN:1255,_ZNSt7__cxx1112basic_stringIcSt11char_traitsIcESaIcEE6appendEPKc
FNDA:0,_ZNSt7__cxx1112basic_stringIcSt11char_traitsIcESaIcEE6appendEPKc
FN:1456,_ZNSt7__cxx1112basic_stringIcSt11char_traitsIcESaIcEE6assignEPKc
FNDA:0,_ZNSt7__cxx1112basic_stringIcSt11char_traitsIcESaIcEE6assignEPKc
FN:2320,_ZNKSt7__cxx1112basic_stringIcSt11char_traitsIcESaIcEE5c_strEv
FNDA:0,_ZNKSt7__cxx1112basic_stringIcSt11char_traitsIcESaIcEE5c_strEv
FN:6248,_ZSteqIcSt11char_traitsIcESaIcEEbRKNSt7__cxx1112basic_stringIT_T0_T1_EEPKS5_
FNDA:16,_ZSteqIcSt11char_traitsIcESaIcEEbRKNSt7__cxx1112basic_stringIT_T0_T1_EEPKS5_
FN:6619,_ZNSt7__cxx114stoiERKNS_12basic_stringIcSt11char_traitsIcESaIcEEEPmi
FNDA:71,_ZNSt7__cxx114stoiERKNS_12basic_stringIcSt11char_traitsIcESaIcEEEPmi
DA:164,0
DA:165,0
DA:186,0
DA:187,0
DA:190,0
DA:191,0
DA:194,0
DA:195,0
DA:198,0
DA:201,0
DA:208,0
DA:211,0
DA:218,0
DA:219,0
DA:222,0
DA:224,0
DA:225,0
DA:226,0
DA:229,0
DA:230,0
DA:237,0
DA:239,0
DA:240,0
DA:241,0
DA:244,0
DA:245,0
DA:294,0
DA:295,0
DA:298,0
DA:299,0
DA:328,0
DA:330,0
DA:331,0
DA:332,0
DA:345,0
DA:347,0
DA:348,0
DA:354,0
DA:356,0
DA:357,0
DA:359,0
DA:360,0
DA:363,0
DA:365,0
DA:366,0
DA:368,0
DA:369,0
DA:404,0
DA:406,0
DA:409,11
DA:411,11
DA:413,11
DA:414,0
DA:415,11
DA:416,0
DA:418,11
DA:533,0
DA:534,0
DA:536,0
DA:539,0
DA:540,0
DA:671,0
DA:672,0
DA:689,0
DA:690,0
DA:920,0
DA:921,0
DA:926,0
DA:927,0
DA:931,0
DA:932,0
DA:976,0
DA:978,0
DA:979,0
DA:1023,0
DA:1024,0
DA:1160,0
DA:1161,0
DA:1169,0
DA:1170,0
DA:1213,0
DA:1214,0
DA:1255,0
DA:1258,0
DA:1259,0
DA:1260,0
DA:1456,0
DA:1459,0
DA:1460,0
DA:2320,0
DA:2321,0
DA:6248,16
DA:6250,16
DA:6619,71
DA:6620,71
DA:6621,71
end_of_record
SF:/usr/include/boost/system/error_code.hpp
FN:233,_ZNK5boost6system14error_categoryeqERKS1_
FNDA:0,_ZNK5boost6system14error_categoryeqERKS1_
FN:243,_ZNK5boost6system14error_categoryltERKS1_
FNDA:0,_ZNK5boost6system14error_categoryltERKS1_
FN:290,_ZNK5boost6system6detail22generic_error_category4nameEv
FNDA:0,_ZNK5boost6system6detail22generic_error_category4nameEv
FN:308,_ZNK5boost6system6detail21system_error_category4nameEv
FNDA:0,_ZNK5boost6system6detail21system_error_category4nameEv
FN:346,_ZN5boost6system15system_categoryEv
FNDA:0,_ZN5boost6system15system_categoryEv
FN:351,_ZN5boost6system16generic_categoryEv
FNDA:0,_ZN5boost6system16generic_categoryEv
FN:415,_ZN5boost6system6detail11failed_implEiRKNS0_14error_categoryE
FNDA:0,_ZN5boost6system6detail11failed_implEiRKNS0_14error_categoryE
FN:452,_ZN5boost6system15error_conditionC2EiRKNS0_14error_categoryE
FNDA:0,_ZN5boost6system15error_conditionC2EiRKNS0_14error_categoryE
FN:489,_ZNK5boost6system15error_condition5valueEv
FNDA:0,_ZNK5boost6system15error_condition5valueEv
FN:494,_ZNK5boost6system15error_condition8categoryEv
FNDA:0,_ZNK5boost6system15error_condition8categoryEv
FN:542,_ZN5boost6systemeqERKNS0_15error_conditionES3_
FNDA:0,_ZN5boost6systemeqERKNS0_15error_conditionES3_
FN:554,_ZNK5boost6system15error_conditioncvSt15error_conditionEv
FNDA:0,_ZNK5boost6system15error_conditioncvSt15error_conditionEv
FN:588,_ZN5boost6system10error_codeC2EiRKNS0_14error_categoryE
FNDA:0,_ZN5boost6system10error_codeC2EiRKNS0_14error_categoryE
FN:625,_ZNK5boost6system10error_code5valueEv
FNDA:0,_ZNK5boost6system10error_code5valueEv
FN:630,_ZNK5boost6system10error_code8categoryEv
FNDA:0,_ZNK5boost6system10error_code8categoryEv
FN:640,_ZNK5boost6system10error_code7messageB5cxx11Ev
FNDA:0,_ZNK5boost6system10error_code7messageB5cxx11Ev
FN:831,_ZNK5boost6system14error_category23default_error_conditionEi
FNDA:0,_ZNK5boost6system14error_category23default_error_conditionEi
FN:836,_ZNK5boost6system14error_category10equivalentEiRKNS0_15error_conditionE
FNDA:0,_ZNK5boost6system14error_category10equivalentEiRKNS0_15error_conditionE
FN:841,_ZNK5boost6system14error_category10equivalentERKNS0_10error_codeEi
FNDA:0,_ZNK5boost6system14error_category10equivalentERKNS0_10error_codeEi
FN:846,_ZNK5boost6system14error_category7messageEiPcm
FNDA:0,_ZNK5boost6system14error_category7messageEiPcm
FN:894,_ZNK5boost6system14error_category6failedEi
FNDA:0,_ZNK5boost6system14error_category6failedEi
FN:907,_ZNK5boost6system6detail22generic_error_category7messageB5cxx11Ei
FNDA:0,_ZNK5boost6system6detail22generic_error_category7messageB5cxx11Ei
FN:912,_ZNK5boost6system6detail22generic_error_category7messageEiPcm
FNDA:0,_ZNK5boost6system6detail22generic_error_category7messageEiPcm
FN:942,_ZNK5boost6system6detail21system_error_category23default_error_conditionEi
FNDA:0,_ZNK5boost6system6detail21system_error_category23default_error_conditionEi
FN:947,_ZNK5boost6system6detail21system_error_category7messageB5cxx11Ei
FNDA:0,_ZNK5boost6system6detail21system_error_category7messageB5cxx11Ei
FN:952,_ZNK5boost6system6detail21system_error_category7messageEiPcm
FNDA:0,_ZNK5boost6system6detail21system_error_category7messageEiPcm
FN:965,_ZNK5boost6system14error_categorycvRKNSt3_V214error_categoryEEv
FNDA:0,_ZNK5boost6system14error_categorycvRKNSt3_V214error_categoryEEv
DA:233,0
DA:235,0
DA:243,0
DA:245,0
DA:247,0
DA:250,0
DA:252,0
DA:255,0
DA:257,0
DA:260,0
DA:290,0
DA:292,0
DA:308,0
DA:310,0
DA:346,0
DA:348,0
DA:351,0
DA:353,0
DA:415,0
DA:417,0
DA:419,0
DA:423,0
DA:452,0
DA:453,0
DA:455,0
DA:489,0
DA:491,0
DA:494,0
DA:496,0
DA:542,0
DA:544,0
DA:554,0
DA:556,0
DA:588,0
DA:589,0
DA:591,0
DA:625,0
DA:627,0
DA:630,0
DA:632,0
DA:640,0
DA:642,0
DA:831,0
DA:833,0
DA:836,0
DA:838,0
DA:841,0
DA:843,0
DA:846,0
DA:848,0
DA:850,0
DA:853,0
DA:855,0
DA:856,0
DA:863,0
DA:875,0
DA:876,0
DA:884,0
DA:885,0
DA:887,0
DA:889,0
DA:890,0
DA:894,0
DA:896,0
DA:907,0
DA:909,0
DA:912,0
DA:914,0
DA:942,0
DA:944,0
DA:947,0
DA:949,0
DA:952,0
DA:954,0
DA:965,0
DA:967,0
end_of_record
SF:/usr/include/c++/11/bits/stl_pair.h
FN:315,_ZNSt4pairIKPKN5boost6system14error_categoryESt10unique_ptrINS1_6detail12std_categoryESt14default_deleteIS8_EEEC2EOSC_
FNDA:0,_ZNSt4pairIKPKN5boost6system14error_categoryESt10unique_ptrINS1_6detail12std_categoryESt14default_deleteIS8_EEEC2EOSC_
FN:322,_ZNSt4pairIPSt18_Rb_tree_node_baseS1_EC2IRS1_Lb1EEEOT_RKS1_
FNDA:0,_ZNSt4pairIPSt18_Rb_tree_node_baseS1_EC2IRS1_Lb1EEEOT_RKS1_
FN:352,_ZNSt4pairIPSt18_Rb_tree_node_baseS1_EC2IRPSt13_Rb_tree_nodeIS_IKPKN5boost6system14error_categoryESt10unique_ptrINS6_6detail12std_categoryESt14default_deleteISD_EEEERS1_Lb1EEEOT_OT0_
FNDA:0,_ZNSt4pairIPSt18_Rb_tree_node_baseS1_EC2IRPSt13_Rb_tree_nodeIS_IKPKN5boost6system14error_categoryESt10unique_ptrINS6_6detail12std_categoryESt14default_deleteISD_EEEERS1_Lb1EEEOT_OT0_
FN:352,_ZNSt4pairISt17_Rb_tree_iteratorIS_IKPKN5boost6system14error_categoryESt10unique_ptrINS2_6detail12std_categoryESt14default_deleteIS9_EEEEbEC2ISE_bLb1EEEOT_OT0_
FNDA:0,_ZNSt4pairISt17_Rb_tree_iteratorIS_IKPKN5boost6system14error_categoryESt10unique_ptrINS2_6detail12std_categoryESt14default_deleteIS9_EEEEbEC2ISE_bLb1EEEOT_OT0_
FN:352,_ZNSt4pairIKPKN5boost6system14error_categoryESt10unique_ptrINS1_6detail12std_categoryESt14default_deleteIS8_EEEC2IS4_SB_Lb1EEEOT_OT0_
FNDA:0,_ZNSt4pairIKPKN5boost6system14error_categoryESt10unique_ptrINS1_6detail12std_categoryESt14default_deleteIS8_EEEC2IS4_SB_Lb1EEEOT_OT0_
DA:315,0
DA:322,0
DA:323,0
DA:352,0
DA:353,0
DA:352,0
DA:353,0
DA:352,0
DA:353,0
end_of_record
SF:/usr/include/c++/11/bits/invoke.h
FN:60,_ZSt13__invoke_implIvZN18HardwareController12startReadingEvEUlvE_JEET_St14__invoke_otherOT0_DpOT1_
FNDA:1,_ZSt13__invoke_implIvZN18HardwareController12startReadingEvEUlvE_JEET_St14__invoke_otherOT0_DpOT1_
FN:60,_ZSt13__invoke_implIvRZN18HardwareControllerC4ERKNSt7__cxx1112basic_stringIcSt11char_traitsIcESaIcEEEiEUlS8_E_JS8_EET_St14__invoke_otherOT0_DpOT1_
FNDA:0,_ZSt13__invoke_implIvRZN18HardwareControllerC4ERKNSt7__cxx1112basic_stringIcSt11char_traitsIcESaIcEEEiEUlS8_E_JS8_EET_St14__invoke_otherOT0_DpOT1_
FN:90,_ZSt8__invokeIZN18HardwareController12startReadingEvEUlvE_JEENSt15__invoke_resultIT_JDpT0_EE4typeEOS3_DpOS4_
FNDA:1,_ZSt8__invokeIZN18HardwareController12startReadingEvEUlvE_JEENSt15__invoke_resultIT_JDpT0_EE4typeEOS3_DpOS4_
FN:104,_ZSt10__invoke_rIvRZN18HardwareControllerC4ERKNSt7__cxx1112basic_stringIcSt11char_traitsIcESaIcEEEiEUlS8_E_JS8_EENSt9enable_ifIX16is_invocable_r_vIT_T0_DpT1_EESC_E4typeEOSD_DpOSE_
FNDA:0,_ZSt10__invoke_rIvRZN18HardwareControllerC4ERKNSt7__cxx1112basic_stringIcSt11char_traitsIcESaIcEEEiEUlS8_E_JS8_EENSt9enable_ifIX16is_invocable_r_vIT_T0_DpT1_EESC_E4typeEOSD_DpOSE_
DA:60,1
DA:61,1
DA:60,0
DA:61,0
DA:90,1
DA:96,1
DA:97,1
DA:104,0
DA:111,0
DA:117,0
end_of_record
SF:/usr/include/boost/asio/detail/noncopyable.hpp
FN:29,_ZN5boost4asio6detail11noncopyableC2Ev
FNDA:0,_ZN5boost4asio6detail11noncopyableC2Ev
FN:30,_ZN5boost4asio6detail11noncopyableD2Ev
FNDA:0,_ZN5boost4asio6detail11noncopyableD2Ev
DA:29,0
DA:30,0
end_of_record
SF:/usr/include/boost/asio/io_context.hpp
end_of_record
SF:/usr/include/c++/11/bits/stl_map.h
FN:185,_ZNSt3mapIPKN5boost6system14error_categoryESt10unique_ptrINS1_6detail12std_categoryESt14default_deleteIS7_EENS6_12cat_ptr_lessESaISt4pairIKS4_SA_EEEC2Ev
FNDA:0,_ZNSt3mapIPKN5boost6system14error_categoryESt10unique_ptrINS1_6detail12std_categoryESt14default_deleteIS7_EENS6_12cat_ptr_lessESaISt4pairIKS4_SA_EEEC2Ev
FN:302,_ZNSt3mapIPKN5boost6system14error_categoryESt10unique_ptrINS1_6detail12std_categoryESt14default_deleteIS7_EENS6_12cat_ptr_lessESaISt4pairIKS4_SA_EEED2Ev
FNDA:0,_ZNSt3mapIPKN5boost6system14error_categoryESt10unique_ptrINS1_6detail12std_categoryESt14default_deleteIS7_EENS6_12cat_ptr_lessESaISt4pairIKS4_SA_EEED2Ev
FN:374,_ZNSt3mapIPKN5boost6system14error_categoryESt10unique_ptrINS1_6detail12std_categoryESt14default_deleteIS7_EENS6_12cat_ptr_lessESaISt4pairIKS4_SA_EEE3endEv
FNDA:0,_ZNSt3mapIPKN5boost6system14error_categoryESt10unique_ptrINS1_6detail12std_categoryESt14default_deleteIS7_EENS6_12cat_ptr_lessESaISt4pairIKS4_SA_EEE3endEv
FN:810,_ZNSt3mapIPKN5boost6system14error_categoryESt10unique_ptrINS1_6detail12std_categoryESt14default_deleteIS7_EENS6_12cat_ptr_lessESaISt4pairIKS4_SA_EEE6insertEOSE_
FNDA:0,_ZNSt3mapIPKN5boost6system14error_categoryESt10unique_ptrINS1_6detail12std_categoryESt14default_deleteIS7_EENS6_12cat_ptr_lessESaISt4pairIKS4_SA_EEE6insertEOSE_
FN:1169,_ZNSt3mapIPKN5boost6system14error_categoryESt10unique_ptrINS1_6detail12std_categoryESt14default_deleteIS7_EENS6_12cat_ptr_lessESaISt4pairIKS4_SA_EEE4findERSD_
FNDA:0,_ZNSt3mapIPKN5boost6system14error_categoryESt10unique_ptrINS1_6detail12std_categoryESt14default_deleteIS7_EENS6_12cat_ptr_lessESaISt4pairIKS4_SA_EEE4findERSD_
DA:185,0
DA:302,0
DA:374,0
DA:375,0
DA:810,0
DA:811,0
DA:1169,0
DA:1170,0
end_of_record
SF:/usr/include/c++/11/ext/new_allocator.h
FN:79,_ZN9__gnu_cxx13new_allocatorISt13_Rb_tree_nodeISt4pairIKPKN5boost6system14error_categoryESt10unique_ptrINS4_6detail12std_categoryESt14default_deleteISB_EEEEEC2Ev
FNDA:0,_ZN9__gnu_cxx13new_allocatorISt13_Rb_tree_nodeISt4pairIKPKN5boost6system14error_categoryESt10unique_ptrINS4_6detail12std_categoryESt14default_deleteISB_EEEEEC2Ev
FN:79,_ZN9__gnu_cxx13new_allocatorIcEC2Ev
FNDA:0,_ZN9__gnu_cxx13new_allocatorIcEC2Ev
FN:103,_ZN9__gnu_cxx13new_allocatorISt13_Rb_tree_nodeISt4pairIKPKN5boost6system14error_categoryESt10unique_ptrINS4_6detail12std_categoryESt14default_deleteISB_EEEEE8allocateEmPKv
FNDA:0,_ZN9__gnu_cxx13new_allocatorISt13_Rb_tree_nodeISt4pairIKPKN5boost6system14error_categoryESt10unique_ptrINS4_6detail12std_categoryESt14default_deleteISB_EEEEE8allocateEmPKv
FN:103,_ZN9__gnu_cxx13new_allocatorIcE8allocateEmPKv
FNDA:0,_ZN9__gnu_cxx13new_allocatorIcE8allocateEmPKv
FN:132,_ZN9__gnu_cxx13new_allocatorISt13_Rb_tree_nodeISt4pairIKPKN5boost6system14error_categoryESt10unique_ptrINS4_6detail12std_categoryESt14default_deleteISB_EEEEE10deallocateEPSG_m
FNDA:0,_ZN9__gnu_cxx13new_allocatorISt13_Rb_tree_nodeISt4pairIKPKN5boost6system14error_categoryESt10unique_ptrINS4_6detail12std_categoryESt14default_deleteISB_EEEEE10deallocateEPSG_m
FN:132,_ZN9__gnu_cxx13new_allocatorIcE10deallocateEPcm
FNDA:0,_ZN9__gnu_cxx13new_allocatorIcE10deallocateEPcm
FN:197,_ZNK9__gnu_cxx13new_allocatorISt13_Rb_tree_nodeISt4pairIKPKN5boost6system14error_categoryESt10unique_ptrINS4_6detail12std_categoryESt14default_deleteISB_EEEEE11_M_max_sizeEv
FNDA:0,_ZNK9__gnu_cxx13new_allocatorISt13_Rb_tree_nodeISt4pairIKPKN5boost6system14error_categoryESt10unique_ptrINS4_6detail12std_categoryESt14default_deleteISB_EEEEE11_M_max_sizeEv
FN:197,_ZNK9__gnu_cxx13new_allocatorIcE11_M_max_sizeEv
FNDA:0,_ZNK9__gnu_cxx13new_allocatorIcE11_M_max_sizeEv
DA:79,0
DA:79,0
DA:103,0
DA:111,0
DA:115,0
DA:116,0
DA:117,0
DA:127,0
DA:103,0
DA:111,0
DA:117,0
DA:127,0
DA:132,0
DA:145,0
DA:132,0
DA:145,0
DA:197,0
DA:200,0
DA:197,0
DA:200,0
end_of_record
SF:/usr/include/c++/11/bits/std_mutex.h
FN:98,_ZNSt5mutex4lockEv
FNDA:0,_ZNSt5mutex4lockEv
FN:115,_ZNSt5mutex6unlockEv
FNDA:0,_ZNSt5mutex6unlockEv
FN:228,_ZNSt10lock_guardISt5mutexEC2ERS0_
FNDA:0,_ZNSt10lock_guardISt5mutexEC2ERS0_
FN:234,_ZNSt10lock_guardISt5mutexED2Ev
FNDA:0,_ZNSt10lock_guardISt5mutexED2Ev
DA:98,0
DA:100,0
DA:103,0
DA:104,0
DA:105,0
DA:115,0
DA:118,0
DA:119,0
DA:228,0
DA:229,0
DA:234,0
DA:235,0
end_of_record
SF:/usr/include/c++/11/bits/basic_string.tcc
FN:132,_ZNSt7__cxx1112basic_stringIcSt11char_traitsIcESaIcEE9_M_createERmm
FNDA:0,_ZNSt7__cxx1112basic_stringIcSt11char_traitsIcESaIcEE9_M_createERmm
FN:206,_ZNSt7__cxx1112basic_stringIcSt11char_traitsIcESaIcEE12_M_constructIPKcEEvT_S8_St20forward_iterator_tag
FNDA:0,_ZNSt7__cxx1112basic_stringIcSt11char_traitsIcESaIcEE12_M_constructIPKcEEvT_S8_St20forward_iterator_tag
FN:300,_ZNSt7__cxx1112basic_stringIcSt11char_traitsIcESaIcEE9_M_mutateEmmPKcm
FNDA:0,_ZNSt7__cxx1112basic_stringIcSt11char_traitsIcESaIcEE9_M_mutateEmmPKcm
FN:384,_ZNSt7__cxx1112basic_stringIcSt11char_traitsIcESaIcEE9_M_appendEPKcm
FNDA:0,_ZNSt7__cxx1112basic_stringIcSt11char_traitsIcESaIcEE9_M_appendEPKcm
FN:448,_ZNSt7__cxx1112basic_stringIcSt11char_traitsIcESaIcEE10_M_replaceEmmPKcm
FNDA:0,_ZNSt7__cxx1112basic_stringIcSt11char_traitsIcESaIcEE10_M_replaceEmmPKcm
FN:1437,_ZNKSt7__cxx1112basic_stringIcSt11char_traitsIcESaIcEE7compareEPKc
FNDA:4020,_ZNKSt7__cxx1112basic_stringIcSt11char_traitsIcESaIcEE7compareEPKc
DA:132,0
DA:137,0
DA:138,0
DA:143,0
DA:145,0
DA:147,0
DA:148,0
DA:153,0
DA:206,0
DA:211,0
DA:212,0
DA:215,0
DA:217,0
DA:219,0
DA:220,0
DA:225,0
DA:232,0
DA:233,0
DA:300,0
DA:304,0
DA:306,0
DA:307,0
DA:309,0
DA:310,0
DA:311,0
DA:312,0
DA:313,0
DA:314,0
DA:315,0
DA:317,0
DA:318,0
DA:319,0
DA:320,0
DA:384,0
DA:387,0
DA:389,0
DA:391,0
DA:392,0
DA:395,0
DA:397,0
DA:398,0
DA:448,0
DA:452,0
DA:454,0
DA:455,0
DA:457,0
DA:459,0
DA:461,0
DA:462,0
DA:464,0
DA:465,0
DA:466,0
DA:467,0
DA:472,0
DA:473,0
DA:474,0
DA:475,0
DA:476,0
DA:478,0
DA:479,0
DA:480,0
DA:484,0
DA:485,0
DA:489,0
DA:490,0
DA:491,0
DA:498,0
DA:500,0
DA:501,0
DA:1437,4020
DA:1441,4020
DA:1442,4020
DA:1443,4020
DA:1444,4020
DA:1445,4020
DA:1446,11
DA:1447,4020
end_of_record
SF:/usr/include/c++/11/bits/std_thread.h
FN:86,_ZNSt6thread2idC2Ev
FNDA:0,_ZNSt6thread2idC2Ev
FN:121,_ZNSt6threadC2Ev
FNDA:0,_ZNSt6threadC2Ev
FN:127,_ZNSt6threadC2IZN18HardwareController12startReadingEvEUlvE_JEvEEOT_DpOT0_
FNDA:1,_ZNSt6threadC2IZN18HardwareController12startReadingEvEUlvE_JEvEEOT_DpOT0_
FN:149,_ZNSt6threadD2Ev
FNDA:345,_ZNSt6threadD2Ev
FN:162,_ZNSt6threadaSEOS_
FNDA:1,_ZNSt6threadaSEOS_
FN:171,_ZNSt6thread4swapERS_
FNDA:1,_ZNSt6thread4swapERS_
FN:175,_ZNKSt6thread8joinableEv
FNDA:479,_ZNKSt6thread8joinableEv
FN:206,_ZNSt6thread11_State_implINS_8_InvokerISt5tupleIJZN18HardwareController12startReadingEvEUlvE_EEEEEC2IJS4_EEEDpOT_
FNDA:1,_ZNSt6thread11_State_implINS_8_InvokerISt5tupleIJZN18HardwareController12startReadingEvEUlvE_EEEEEC2IJS4_EEEDpOT_
FN:211,_ZNSt6thread11_State_implINS_8_InvokerISt5tupleIJZN18HardwareController12startReadingEvEUlvE_EEEEE6_M_runEv
FNDA:1,_ZNSt6thread11_State_implINS_8_InvokerISt5tupleIJZN18HardwareController12startReadingEvEUlvE_EEEEE6_M_runEv
FN:243,_ZNSt6thread8_InvokerISt5tupleIJZN18HardwareController12startReadingEvEUlvE_EEEC2IJS3_EEEDpOT_
FNDA:1,_ZNSt6thread8_InvokerISt5tupleIJZN18HardwareController12startReadingEvEUlvE_EEEC2IJS3_EEEDpOT_
FN:258,_ZNSt6thread8_InvokerISt5tupleIJZN18HardwareController12startReadingEvEUlvE_EEE9_M_invokeIJLm0EEEEvSt12_Index_tupleIJXspT_EEE
FNDA:1,_ZNSt6thread8_InvokerISt5tupleIJZN18HardwareController12startReadingEvEUlvE_EEE9_M_invokeIJLm0EEEEvSt12_Index_tupleIJXspT_EEE
FN:262,_ZNSt6thread8_InvokerISt5tupleIJZN18HardwareController12startReadingEvEUlvE_EEEclEv
FNDA:1,_ZNSt6thread8_InvokerISt5tupleIJZN18HardwareController12startReadingEvEUlvE_EEEclEv
FN:287,_ZSteqNSt6thread2idES0_
FNDA:479,_ZSteqNSt6thread2idES0_
DA:86,0
DA:121,0
DA:127,1
DA:128,1
DA:138,1
DA:143,1
DA:144,1
DA:146,1
DA:149,345
DA:151,345
DA:152,0
DA:153,345
DA:162,1
DA:164,1
DA:165,0
DA:166,1
DA:167,1
DA:171,1
DA:172,1
DA:175,479
DA:176,479
DA:206,1
DA:207,1
DA:208,1
DA:211,1
DA:243,1
DA:244,1
DA:245,1
DA:258,1
DA:259,1
DA:262,1
DA:266,1
DA:287,479
DA:293,479
end_of_record
SF:/usr/include/boost/system/system_error.hpp
FN:47,_ZN5boost6system12system_errorD0Ev
FNDA:0,_ZN5boost6system12system_errorD0Ev
FN:47,_ZN5boost6system12system_errorD2Ev
FNDA:0,_ZN5boost6system12system_errorD2Ev
FN:59,_ZNK5boost6system12system_error4whatEv
FNDA:0,_ZNK5boost6system12system_error4whatEv
DA:47,0
DA:47,0
DA:59,0
DA:62,0
DA:68,0
DA:69,0
DA:70,0
DA:73,0
DA:76,0
end_of_record
SF:/usr/include/c++/11/new
FN:174,_ZnwmPv
FNDA:0,_ZnwmPv
DA:174,0
DA:175,0
end_of_record
SF:/usr/include/c++/11/bits/alloc_traits.h
FN:463,_ZNSt16allocator_traitsISaISt13_Rb_tree_nodeISt4pairIKPKN5boost6system14error_categoryESt10unique_ptrINS3_6detail12std_categoryESt14default_deleteISA_EEEEEE8allocateERSG_m
FNDA:0,_ZNSt16allocator_traitsISaISt13_Rb_tree_nodeISt4pairIKPKN5boost6system14error_categoryESt10unique_ptrINS3_6detail12std_categoryESt14default_deleteISA_EEEEEE8allocateERSG_m
FN:463,_ZNSt16allocator_traitsISaIcEE8allocateERS0_m
FNDA:0,_ZNSt16allocator_traitsISaIcEE8allocateERS0_m
FN:495,_ZNSt16allocator_traitsISaISt13_Rb_tree_nodeISt4pairIKPKN5boost6system14error_categoryESt10unique_ptrINS3_6detail12std_categoryESt14default_deleteISA_EEEEEE10deallocateERSG_PSF_m
FNDA:0,_ZNSt16allocator_traitsISaISt13_Rb_tree_nodeISt4pairIKPKN5boost6system14error_categoryESt10unique_ptrINS3_6detail12std_categoryESt14default_deleteISA_EEEEEE10deallocateERSG_PSF_m
FN:495,_ZNSt16allocator_traitsISaIcEE10deallocateERS0_Pcm
FNDA:0,_ZNSt16allocator_traitsISaIcEE10deallocateERS0_Pcm
FN:511,_ZNSt16allocator_traitsISaISt13_Rb_tree_nodeISt4pairIKPKN5boost6system14error_categoryESt10unique_ptrINS3_6detail12std_categoryESt14default_deleteISA_EEEEEE9constructISE_JSE_EEEvRSG_PT_DpOT0_
FNDA:0,_ZNSt16allocator_traitsISaISt13_Rb_tree_nodeISt4pairIKPKN5boost6system14error_categoryESt10unique_ptrINS3_6detail12std_categoryESt14default_deleteISA_EEEEEE9constructISE_JSE_EEEvRSG_PT_DpOT0_
FN:531,_ZNSt16allocator_traitsISaISt13_Rb_tree_nodeISt4pairIKPKN5boost6system14error_categoryESt10unique_ptrINS3_6detail12std_categoryESt14default_deleteISA_EEEEEE7destroyISE_EEvRSG_PT_
FNDA:0,_ZNSt16allocator_traitsISaISt13_Rb_tree_nodeISt4pairIKPKN5boost6system14error_categoryESt10unique_ptrINS3_6detail12std_categoryESt14default_deleteISA_EEEEEE7destroyISE_EEvRSG_PT_
FN:547,_ZNSt16allocator_traitsISaIcEE8max_sizeERKS0_
FNDA:0,_ZNSt16allocator_traitsISaIcEE8max_sizeERKS0_
DA:463,0
DA:464,0
DA:463,0
DA:464,0
DA:495,0
DA:496,0
DA:495,0
DA:496,0
DA:511,0
DA:518,0
DA:520,0
DA:531,0
DA:537,0
DA:539,0
DA:547,0
DA:552,0
end_of_record
SF:/usr/include/c++/11/bits/ptr_traits.h
FN:149,_ZNSt14pointer_traitsIPKcE10pointer_toERS0_
FNDA:0,_ZNSt14pointer_traitsIPKcE10pointer_toERS0_
FN:149,_ZNSt14pointer_traitsIPcE10pointer_toERc
FNDA:0,_ZNSt14pointer_traitsIPcE10pointer_toERc
DA:149,0
DA:150,0
DA:149,0
DA:150,0
end_of_record
SF:/usr/include/boost/asio/execution_context.hpp
FN:312,_ZN5boost4asio17execution_context2idC2Ev
FNDA:0,_ZN5boost4asio17execution_context2idC2Ev
DA:312,0
end_of_record
SF:/usr/include/c++/11/bits/unique_ptr.h
FN:79,_ZNKSt14default_deleteINSt6thread6_StateEEclEPS1_
FNDA:0,_ZNKSt14default_deleteINSt6thread6_StateEEclEPS1_
FN:79,_ZNKSt14default_deleteIN5boost6system6detail12std_categoryEEclEPS3_
FNDA:0,_ZNKSt14default_deleteIN5boost6system6detail12std_categoryEEclEPS3_
FN:155,_ZNSt15__uniq_ptr_implIN5boost6system6detail12std_categoryESt14default_deleteIS3_EEC2EPS3_
FNDA:0,_ZNSt15__uniq_ptr_implIN5boost6system6detail12std_categoryESt14default_deleteIS3_EEC2EPS3_
FN:155,_ZNSt15__uniq_ptr_implINSt6thread6_StateESt14default_deleteIS1_EEC2EPS1_
FNDA:1,_ZNSt15__uniq_ptr_implINSt6thread6_StateESt14default_deleteIS1_EEC2EPS1_
FN:161,_ZNSt15__uniq_ptr_implIN5boost6system6detail12std_categoryESt14default_deleteIS3_EEC2EOS6_
FNDA:0,_ZNSt15__uniq_ptr_implIN5boost6system6detail12std_categoryESt14default_deleteIS3_EEC2EOS6_
FN:172,_ZNSt15__uniq_ptr_implINSt6thread6_StateESt14default_deleteIS1_EE6_M_ptrEv
FNDA:2,_ZNSt15__uniq_ptr_implINSt6thread6_StateESt14default_deleteIS1_EE6_M_ptrEv
FN:172,_ZNSt15__uniq_ptr_implIN5boost6system6detail12std_categoryESt14default_deleteIS3_EE6_M_ptrEv
FNDA:0,_ZNSt15__uniq_ptr_implIN5boost6system6detail12std_categoryESt14default_deleteIS3_EE6_M_ptrEv
FN:173,_ZNKSt15__uniq_ptr_implIN5boost6system6detail12std_categoryESt14default_deleteIS3_EE6_M_ptrEv
FNDA:0,_ZNKSt15__uniq_ptr_implIN5boost6system6detail12std_categoryESt14default_deleteIS3_EE6_M_ptrEv
FN:174,_ZNSt15__uniq_ptr_implIN5boost6system6detail12std_categoryESt14default_deleteIS3_EE10_M_deleterEv
FNDA:0,_ZNSt15__uniq_ptr_implIN5boost6system6detail12std_categoryESt14default_deleteIS3_EE10_M_deleterEv
FN:174,_ZNSt15__uniq_ptr_implINSt6thread6_StateESt14default_deleteIS1_EE10_M_deleterEv
FNDA:0,_ZNSt15__uniq_ptr_implINSt6thread6_StateESt14default_deleteIS1_EE10_M_deleterEv
FN:211,_ZNSt15__uniq_ptr_dataIN5boost6system6detail12std_categoryESt14default_deleteIS3_ELb1ELb1EEC2EOS6_
FNDA:0,_ZNSt15__uniq_ptr_dataIN5boost6system6detail12std_categoryESt14default_deleteIS3_ELb1ELb1EEC2EOS6_
FN:281,_ZNSt10unique_ptrINSt6thread6_StateESt14default_deleteIS1_EEC2IS3_vEEPS1_
FNDA:1,_ZNSt10unique_ptrINSt6thread6_StateESt14default_deleteIS1_EEC2IS3_vEEPS1_
FN:281,_ZNSt10unique_ptrIN5boost6system6detail12std_categoryESt14default_deleteIS3_EEC2IS5_vEEPS3_
FNDA:0,_ZNSt10unique_ptrIN5boost6system6detail12std_categoryESt14default_deleteIS3_EEC2IS5_vEEPS3_
FN:327,_ZNSt10unique_ptrIN5boost6system6detail12std_categoryESt14default_deleteIS3_EEC2EOS6_
FNDA:0,_ZNSt10unique_ptrIN5boost6system6detail12std_categoryESt14default_deleteIS3_EEC2EOS6_
FN:355,_ZNSt10unique_ptrINSt6thread6_StateESt14default_deleteIS1_EED2Ev
FNDA:1,_ZNSt10unique_ptrINSt6thread6_StateESt14default_deleteIS1_EED2Ev
FN:355,_ZNSt10unique_ptrIN5boost6system6detail12std_categoryESt14default_deleteIS3_EED2Ev
FNDA:0,_ZNSt10unique_ptrIN5boost6system6detail12std_categoryESt14default_deleteIS3_EED2Ev
FN:405,_ZNKSt10unique_ptrIN5boost6system6detail12std_categoryESt14default_deleteIS3_EEdeEv
FNDA:0,_ZNKSt10unique_ptrIN5boost6system6detail12std_categoryESt14default_deleteIS3_EEdeEv
FN:421,_ZNKSt10unique_ptrIN5boost6system6detail12std_categoryESt14default_deleteIS3_EE3getEv
FNDA:0,_ZNKSt10unique_ptrIN5boost6system6detail12std_categoryESt14default_deleteIS3_EE3getEv
FN:426,_ZNSt10unique_ptrIN5boost6system6detail12std_categoryESt14default_deleteIS3_EE11get_deleterEv
FNDA:0,_ZNSt10unique_ptrIN5boost6system6detail12std_categoryESt14default_deleteIS3_EE11get_deleterEv
FN:426,_ZNSt10unique_ptrINSt6thread6_StateESt14default_deleteIS1_EE11get_deleterEv
FNDA:0,_ZNSt10unique_ptrINSt6thread6_StateESt14default_deleteIS1_EE11get_deleterEv
DA:79,0
DA:85,0
DA:86,0
DA:79,0
DA:85,0
DA:86,0
DA:155,1
DA:155,0
DA:161,0
DA:162,0
DA:163,0
DA:172,2
DA:172,0
DA:173,0
DA:174,0
DA:174,0
DA:211,0
DA:281,1
DA:282,1
DA:283,1
DA:281,0
DA:282,0
DA:283,0
DA:327,0
DA:355,1
DA:359,1
DA:360,1
DA:361,0
DA:362,1
DA:363,1
DA:355,0
DA:359,0
DA:360,0
DA:361,0
DA:362,0
DA:363,0
DA:405,0
DA:407,0
DA:408,0
DA:421,0
DA:422,0
DA:426,0
DA:427,0
DA:426,0
DA:427,0
end_of_record
SF:/usr/include/c++/11/bits/allocator.h
FN:156,_ZNSaISt13_Rb_tree_nodeISt4pairIKPKN5boost6system14error_categoryESt10unique_ptrINS2_6detail12std_categoryESt14default_deleteIS9_EEEEEC2Ev
FNDA:0,_ZNSaISt13_Rb_tree_nodeISt4pairIKPKN5boost6system14error_categoryESt10unique_ptrINS2_6detail12std_categoryESt14default_deleteIS9_EEEEEC2Ev
FN:174,_ZNSaISt13_Rb_tree_nodeISt4pairIKPKN5boost6system14error_categoryESt10unique_ptrINS2_6detail12std_categoryESt14default_deleteIS9_EEEEED2Ev
FNDA:0,_ZNSaISt13_Rb_tree_nodeISt4pairIKPKN5boost6system14error_categoryESt10unique_ptrINS2_6detail12std_categoryESt14default_deleteIS9_EEEEED2Ev
DA:156,0
DA:174,0
DA:182,0
DA:183,0
DA:185,0
DA:193,0
DA:195,0
DA:196,0
DA:199,0
end_of_record
SF:/usr/include/c++/11/bits/char_traits.h
FN:106,_ZN9__gnu_cxx11char_traitsIcE2eqERKcS3_
FNDA:0,_ZN9__gnu_cxx11char_traitsIcE2eqERKcS3_
FN:167,_ZN9__gnu_cxx11char_traitsIcE6lengthEPKc
FNDA:0,_ZN9__gnu_cxx11char_traitsIcE6lengthEPKc
FN:190,_ZN9__gnu_cxx11char_traitsIcE4moveEPcPKcm
FNDA:0,_ZN9__gnu_cxx11char_traitsIcE4moveEPcPKcm
FN:240,_ZN9__gnu_cxx11char_traitsIcE4copyEPcPKcm
FNDA:0,_ZN9__gnu_cxx11char_traitsIcE4copyEPcPKcm
FN:356,_ZNSt11char_traitsIcE6assignERcRKc
FNDA:0,_ZNSt11char_traitsIcE6assignERcRKc
FN:364,_ZNSt11char_traitsIcE2ltERKcS2_
FNDA:0,_ZNSt11char_traitsIcE2ltERKcS2_
FN:372,_ZNSt11char_traitsIcE7compareEPKcS2_m
FNDA:5679,_ZNSt11char_traitsIcE7compareEPKcS2_m
FN:393,_ZNSt11char_traitsIcE6lengthEPKc
FNDA:0,_ZNSt11char_traitsIcE6lengthEPKc
FN:417,_ZNSt11char_traitsIcE4moveEPcPKcm
FNDA:0,_ZNSt11char_traitsIcE4moveEPcPKcm
FN:429,_ZNSt11char_traitsIcE4copyEPcPKcm
FNDA:0,_ZNSt11char_traitsIcE4copyEPcPKcm
DA:106,0
DA:107,0
DA:167,0
DA:170,0
DA:171,0
DA:172,0
DA:173,0
DA:190,0
DA:193,0
DA:194,0
DA:196,0
DA:198,0
DA:199,0
DA:203,0
DA:204,0
DA:205,0
DA:206,0
DA:230,0
DA:233,0
DA:234,0
DA:240,0
DA:244,0
DA:245,0
DA:290,0
DA:356,0
DA:357,0
DA:364,0
DA:367,0
DA:368,0
DA:372,5679
DA:374,5679
DA:375,4
DA:377,5675
DA:379,5675
DA:381,0
DA:382,0
DA:383,0
DA:384,0
DA:385,0
DA:386,0
DA:389,5675
DA:393,0
DA:396,0
DA:397,0
DA:399,0
DA:417,0
DA:419,0
DA:420,0
DA:422,0
DA:423,0
DA:425,0
DA:429,0
DA:431,0
DA:432,0
DA:434,0
DA:435,0
DA:437,0
end_of_record
TN:
SF:/usr/include/c++/11/tuple
FN:80,_ZNSt10_Head_baseILm1ESt14default_deleteIN5boost6system6detail12std_categoryEELb1EEC2Ev
FNDA:0,_ZNSt10_Head_baseILm1ESt14default_deleteIN5boost6system6detail12std_categoryEELb1EEC2Ev
FN:124,_ZNSt10_Head_baseILm1ESt14default_deleteIN5boost6system6detail12std_categoryEELb1EE7_M_headERS6_
FNDA:0,_ZNSt10_Head_baseILm1ESt14default_deleteIN5boost6system6detail12std_categoryEELb1EE7_M_headERS6_
FN:189,_ZNSt10_Head_baseILm0EPN5boost6system6detail12std_categoryELb0EEC2Ev
FNDA:0,_ZNSt10_Head_baseILm0EPN5boost6system6detail12std_categoryELb0EEC2Ev
FN:233,_ZNSt10_Head_baseILm0EPN5boost6system6detail12std_categoryELb0EE7_M_headERS5_
FNDA:0,_ZNSt10_Head_baseILm0EPN5boost6system6detail12std_categoryELb0EE7_M_headERS5_
FN:236,_ZNSt10_Head_baseILm0EPN5boost6system6detail12std_categoryELb0EE7_M_headERKS5_
FNDA:0,_ZNSt10_Head_baseILm0EPN5boost6system6detail12std_categoryELb0EE7_M_headERKS5_
FN:268,_ZNSt11_Tuple_implILm0EJPN5boost6system6detail12std_categoryESt14default_deleteIS3_EEE7_M_headERS7_
FNDA:0,_ZNSt11_Tuple_implILm0EJPN5boost6system6detail12std_categoryESt14default_deleteIS3_EEE7_M_headERS7_
FN:271,_ZNSt11_Tuple_implILm0EJPN5boost6system6detail12std_categoryESt14default_deleteIS3_EEE7_M_headERKS7_
FNDA:0,_ZNSt11_Tuple_implILm0EJPN5boost6system6detail12std_categoryESt14default_deleteIS3_EEE7_M_headERKS7_
FN:279,_ZNSt11_Tuple_implILm0EJPN5boost6system6detail12std_categoryESt14default_deleteIS3_EEEC2Ev
FNDA:0,_ZNSt11_Tuple_implILm0EJPN5boost6system6detail12std_categoryESt14default_deleteIS3_EEEC2Ev
FN:301,_ZNSt11_Tuple_implILm0EJPN5boost6system6detail12std_categoryESt14default_deleteIS3_EEEC2EOS7_
FNDA:0,_ZNSt11_Tuple_implILm0EJPN5boost6system6detail12std_categoryESt14default_deleteIS3_EEEC2EOS7_
FN:424,_ZNSt11_Tuple_implILm1EJSt14default_deleteIN5boost6system6detail12std_categoryEEEE7_M_headERS6_
FNDA:0,_ZNSt11_Tuple_implILm1EJSt14default_deleteIN5boost6system6detail12std_categoryEEEE7_M_headERS6_
FN:430,_ZNSt11_Tuple_implILm1EJSt14default_deleteIN5boost6system6detail12std_categoryEEEEC2Ev
FNDA:0,_ZNSt11_Tuple_implILm1EJSt14default_deleteIN5boost6system6detail12std_categoryEEEEC2Ev
FN:454,_ZNSt11_Tuple_implILm1EJSt14default_deleteIN5boost6system6detail12std_categoryEEEEC2EOS6_
FNDA:0,_ZNSt11_Tuple_implILm1EJSt14default_deleteIN5boost6system6detail12std_categoryEEEEC2EOS6_
FN:1049,_ZNSt5tupleIJPN5boost6system6detail12std_categoryESt14default_deleteIS3_EEEC2ILb1ELb1EEEv
FNDA:0,_ZNSt5tupleIJPN5boost6system6detail12std_categoryESt14default_deleteIS3_EEEC2ILb1ELb1EEEv
FN:1090,_ZNSt5tupleIJPN5boost6system6detail12std_categoryESt14default_deleteIS3_EEEC2EOS7_
FNDA:0,_ZNSt5tupleIJPN5boost6system6detail12std_categoryESt14default_deleteIS3_EEEC2EOS7_
FN:1377,_ZSt12__get_helperILm1ESt14default_deleteIN5boost6system6detail12std_categoryEEJEERT0_RSt11_Tuple_implIXT_EJS6_DpT1_EE
FNDA:0,_ZSt12__get_helperILm1ESt14default_deleteIN5boost6system6detail12std_categoryEEJEERT0_RSt11_Tuple_implIXT_EJS6_DpT1_EE
FN:1377,_ZSt12__get_helperILm0EPN5boost6system6detail12std_categoryEJSt14default_deleteIS3_EEERT0_RSt11_Tuple_implIXT_EJS7_DpT1_EE
FNDA:0,_ZSt12__get_helperILm0EPN5boost6system6detail12std_categoryEJSt14default_deleteIS3_EEERT0_RSt11_Tuple_implIXT_EJS7_DpT1_EE
FN:1382,_ZSt12__get_helperILm0EPN5boost6system6detail12std_categoryEJSt14default_deleteIS3_EEERKT0_RKSt11_Tuple_implIXT_EJS7_DpT1_EE
FNDA:0,_ZSt12__get_helperILm0EPN5boost6system6detail12std_categoryEJSt14default_deleteIS3_EEERKT0_RKSt11_Tuple_implIXT_EJS7_DpT1_EE
FN:1393,_ZSt3getILm1EJPN5boost6system6detail12std_categoryESt14default_deleteIS3_EEERNSt13tuple_elementIXT_ESt5tupleIJDpT0_EEE4typeERSB_
FNDA:0,_ZSt3getILm1EJPN5boost6system6detail12std_categoryESt14default_deleteIS3_EEERNSt13tuple_elementIXT_ESt5tupleIJDpT0_EEE4typeERSB_
FN:1393,_ZSt3getILm0EJPN5boost6system6detail12std_categoryESt14default_deleteIS3_EEERNSt13tuple_elementIXT_ESt5tupleIJDpT0_EEE4typeERSB_
FNDA:0,_ZSt3getILm0EJPN5boost6system6detail12std_categoryESt14default_deleteIS3_EEERNSt13tuple_elementIXT_ESt5tupleIJDpT0_EEE4typeERSB_
FN:1399,_ZSt3getILm0EJPN5boost6system6detail12std_categoryESt14default_deleteIS3_EEERKNSt13tuple_elementIXT_ESt5tupleIJDpT0_EEE4typeERKSB_
FNDA:0,_ZSt3getILm0EJPN5boost6system6detail12std_categoryESt14default_deleteIS3_EEERKNSt13tuple_elementIXT_ESt5tupleIJDpT0_EEE4typeERKSB_
DA:80,0
DA:81,0
DA:124,0
DA:189,0
DA:190,0
DA:233,0
DA:236,0
DA:268,0
DA:271,0
DA:279,0
DA:280,0
DA:301,0
DA:424,0
DA:430,0
DA:431,0
DA:454,0
DA:457,0
DA:1049,0
DA:1051,0
DA:1090,0
DA:1377,0
DA:1378,0
DA:1377,0
DA:1378,0
DA:1382,0
DA:1383,0
DA:1393,0
DA:1394,0
DA:1393,0
DA:1394,0
DA:1399,0
DA:1400,0
end_of_record
SF:/usr/include/c++/11/ext/aligned_buffer.h
FN:64,_ZN9__gnu_cxx16__aligned_membufISt4pairIKPKN5boost6system14error_categoryESt10unique_ptrINS3_6detail12std_categoryESt14default_deleteISA_EEEE7_M_addrEv
FNDA:0,_ZN9__gnu_cxx16__aligned_membufISt4pairIKPKN5boost6system14error_categoryESt10unique_ptrINS3_6detail12std_categoryESt14default_deleteISA_EEEE7_M_addrEv
FN:68,_ZNK9__gnu_cxx16__aligned_membufISt4pairIKPKN5boost6system14error_categoryESt10unique_ptrINS3_6detail12std_categoryESt14default_deleteISA_EEEE7_M_addrEv
FNDA:0,_ZNK9__gnu_cxx16__aligned_membufISt4pairIKPKN5boost6system14error_categoryESt10unique_ptrINS3_6detail12std_categoryESt14default_deleteISA_EEEE7_M_addrEv
FN:72,_ZN9__gnu_cxx16__aligned_membufISt4pairIKPKN5boost6system14error_categoryESt10unique_ptrINS3_6detail12std_categoryESt14default_deleteISA_EEEE6_M_ptrEv
FNDA:0,_ZN9__gnu_cxx16__aligned_membufISt4pairIKPKN5boost6system14error_categoryESt10unique_ptrINS3_6detail12std_categoryESt14default_deleteISA_EEEE6_M_ptrEv
FN:76,_ZNK9__gnu_cxx16__aligned_membufISt4pairIKPKN5boost6system14error_categoryESt10unique_ptrINS3_6detail12std_categoryESt14default_deleteISA_EEEE6_M_ptrEv
FNDA:0,_ZNK9__gnu_cxx16__aligned_membufISt4pairIKPKN5boost6system14error_categoryESt10unique_ptrINS3_6detail12std_categoryESt14default_deleteISA_EEEE6_M_ptrEv
DA:64,0
DA:65,0
DA:68,0
DA:69,0
DA:72,0
DA:73,0
DA:76,0
DA:77,0
end_of_record
SF:/usr/include/x86_64-linux-gnu/c++/11/bits/gthr-default.h
FN:300,_ZL18__gthread_active_pv
FNDA:0,_ZL18__gthread_active_pv
FN:746,_ZL20__gthread_mutex_lockP15pthread_mutex_t
FNDA:0,_ZL20__gthread_mutex_lockP15pthread_mutex_t
FN:776,_ZL22__gthread_mutex_unlockP15pthread_mutex_t
FNDA:0,_ZL22__gthread_mutex_unlockP15pthread_mutex_t
DA:300,0
DA:302,0
DA:746,0
DA:748,0
DA:749,0
DA:751,0
DA:776,0
DA:778,0
DA:779,0
DA:781,0
end_of_record
SF:/usr/include/boost/asio/detail/call_stack.hpp
end_of_record
SF:/usr/include/c++/11/iostream
end_of_record
SF:/usr/include/c++/11/bits/stl_function.h
FN:447,_ZNKSt4lessIPKcEclES1_S1_
FNDA:0,_ZNKSt4lessIPKcEclES1_S1_
FN:447,_ZNKSt4lessIPKN5boost6system14error_categoryEEclES4_S4_
FNDA:0,_ZNKSt4lessIPKN5boost6system14error_categoryEEclES4_S4_
FN:1170,_ZNKSt10_Select1stISt4pairIKPKN5boost6system14error_categoryESt10unique_ptrINS2_6detail12std_categoryESt14default_deleteIS9_EEEEclERSD_
FNDA:0,_ZNKSt10_Select1stISt4pairIKPKN5boost6system14error_categoryESt10unique_ptrINS2_6detail12std_categoryESt14default_deleteIS9_EEEEclERSD_
FN:1174,_ZNKSt10_Select1stISt4pairIKPKN5boost6system14error_categoryESt10unique_ptrINS2_6detail12std_categoryESt14default_deleteIS9_EEEEclERKSD_
FNDA:0,_ZNKSt10_Select1stISt4pairIKPKN5boost6system14error_categoryESt10unique_ptrINS2_6detail12std_categoryESt14default_deleteIS9_EEEEclERKSD_
DA:447,0
DA:457,0
DA:447,0
DA:457,0
DA:1170,0
DA:1171,0
DA:1174,0
DA:1175,0
end_of_record
SF:/usr/include/c++/11/bits/shared_ptr_base.h
FN:161,_ZNSt16_Sp_counted_baseILN9__gnu_cxx12_Lock_policyE2EE10_M_releaseEv
FNDA:0,_ZNSt16_Sp_counted_baseILN9__gnu_cxx12_Lock_policyE2EE10_M_releaseEv
FN:702,_ZNSt14__shared_countILN9__gnu_cxx12_Lock_policyE2EED2Ev
FNDA:0,_ZNSt14__shared_countILN9__gnu_cxx12_Lock_policyE2EED2Ev
FN:984,_ZNKSt19__shared_ptr_accessI9MediaFileLN9__gnu_cxx12_Lock_policyE2ELb0ELb0EEptEv
FNDA:95,_ZNKSt19__shared_ptr_accessI9MediaFileLN9__gnu_cxx12_Lock_policyE2ELb0ELb0EEptEv
FN:992,_ZNKSt19__shared_ptr_accessI9MediaFileLN9__gnu_cxx12_Lock_policyE2ELb0ELb0EE6_M_getEv
FNDA:95,_ZNKSt19__shared_ptr_accessI9MediaFileLN9__gnu_cxx12_Lock_policyE2ELb0ELb0EE6_M_getEv
FN:1154,_ZNSt12__shared_ptrI9MediaFileLN9__gnu_cxx12_Lock_policyE2EED2Ev
FNDA:0,_ZNSt12__shared_ptrI9MediaFileLN9__gnu_cxx12_Lock_policyE2EED2Ev
FN:1295,_ZNKSt12__shared_ptrI9MediaFileLN9__gnu_cxx12_Lock_policyE2EE3getEv
FNDA:103,_ZNKSt12__shared_ptrI9MediaFileLN9__gnu_cxx12_Lock_policyE2EE3getEv
FN:1299,_ZNKSt12__shared_ptrI9MediaFileLN9__gnu_cxx12_Lock_policyE2EEcvbEv
FNDA:14,_ZNKSt12__shared_ptrI9MediaFileLN9__gnu_cxx12_Lock_policyE2EEcvbEv
DA:161,0
DA:165,0
DA:168,0
DA:180,0
DA:181,0
DA:184,0
DA:187,0
DA:702,0
DA:704,0
DA:705,0
DA:706,0
DA:984,95
DA:987,95
DA:992,95
DA:993,95
DA:1154,0
DA:1295,103
DA:1296,103
DA:1299,14
DA:1300,14
end_of_record
SF:/usr/include/boost/asio/detail/tss_ptr.hpp
end_of_record
SF:/usr/include/c++/11/bits/cpp_type_traits.h
FN:560,_ZSt12__miter_baseIPKcET_S2_
FNDA:0,_ZSt12__miter_baseIPKcET_S2_
DA:560,0
DA:561,0
end_of_record
SF:/usr/include/c++/11/bits/stl_iterator_base_funcs.h
FN:98,_ZSt10__distanceIPKcENSt15iterator_traitsIT_E15difference_typeES3_S3_St26random_access_iterator_tag
FNDA:0,_ZSt10__distanceIPKcENSt15iterator_traitsIT_E15difference_typeES3_S3_St26random_access_iterator_tag
FN:138,_ZSt8distanceIPKcENSt15iterator_traitsIT_E15difference_typeES3_S3_
FNDA:0,_ZSt8distanceIPKcENSt15iterator_traitsIT_E15difference_typeES3_S3_
DA:98,0
DA:104,0
DA:138,0
DA:141,0
DA:142,0
end_of_record
SF:/usr/include/boost/asio/impl/error.ipp
FN:35,_ZNK5boost4asio5error6detail14netdb_category4nameEv
FNDA:0,_ZNK5boost4asio5error6detail14netdb_category4nameEv
FN:40,_ZNK5boost4asio5error6detail14netdb_category7messageB5cxx11Ei
FNDA:0,_ZNK5boost4asio5error6detail14netdb_category7messageB5cxx11Ei
FN:56,_ZN5boost4asio5error18get_netdb_categoryEv
FNDA:0,_ZN5boost4asio5error18get_netdb_categoryEv
FN:67,_ZNK5boost4asio5error6detail17addrinfo_category4nameEv
FNDA:0,_ZNK5boost4asio5error6detail17addrinfo_category4nameEv
FN:72,_ZNK5boost4asio5error6detail17addrinfo_category7messageB5cxx11Ei
FNDA:0,_ZNK5boost4asio5error6detail17addrinfo_category7messageB5cxx11Ei
FN:84,_ZN5boost4asio5error21get_addrinfo_categoryEv
FNDA:0,_ZN5boost4asio5error21get_addrinfo_categoryEv
FN:97,_ZNK5boost4asio5error6detail13misc_category4nameEv
FNDA:0,_ZNK5boost4asio5error6detail13misc_category4nameEv
FN:102,_ZNK5boost4asio5error6detail13misc_category7messageB5cxx11Ei
FNDA:0,_ZNK5boost4asio5error6detail13misc_category7messageB5cxx11Ei
FN:118,_ZN5boost4asio5error17get_misc_categoryEv
FNDA:0,_ZN5boost4asio5error17get_misc_categoryEv
DA:35,0
DA:37,0
DA:40,0
DA:42,0
DA:43,0
DA:44,0
DA:45,0
DA:46,0
DA:47,0
DA:48,0
DA:49,0
DA:50,0
DA:56,0
DA:59,0
DA:67,0
DA:69,0
DA:72,0
DA:74,0
DA:75,0
DA:76,0
DA:77,0
DA:78,0
DA:84,0
DA:87,0
DA:97,0
DA:99,0
DA:102,0
DA:104,0
DA:105,0
DA:106,0
DA:107,0
DA:108,0
DA:109,0
DA:110,0
DA:111,0
DA:112,0
DA:118,0
DA:121,0
end_of_record
SF:/usr/include/c++/11/ext/type_traits.h
FN:152,_ZN9__gnu_cxx17__is_null_pointerIKcEEbPT_
FNDA:0,_ZN9__gnu_cxx17__is_null_pointerIKcEEbPT_
DA:152,0
DA:153,0
end_of_record
SF:/usr/include/c++/11/type_traits
FN:3419,_ZSt21is_constant_evaluatedv
FNDA:0,_ZSt21is_constant_evaluatedv
DA:3419,0
DA:3420,0
end_of_record
SF:/usr/include/c++/11/bits/shared_ptr.h
end_of_record
SF:/usr/include/boost/asio/error.hpp
FN:228,_ZN5boost4asio5error19get_system_categoryEv
FNDA:0,_ZN5boost4asio5error19get_system_categoryEv
DA:228,0
DA:230,0
end_of_record
SF:/usr/include/c++/11/bits/stl_algobase.h
FN:313,_ZSt12__niter_baseIPcET_S1_
FNDA:0,_ZSt12__niter_baseIPcET_S1_
FN:313,_ZSt12__niter_baseIPKcET_S2_
FNDA:0,_ZSt12__niter_baseIPKcET_S2_
FN:335,_ZSt12__niter_wrapIPcET_RKS1_S1_
FNDA:0,_ZSt12__niter_wrapIPcET_RKS1_S1_
FN:380,_ZNSt11__copy_moveILb0ELb0ESt26random_access_iterator_tagE8__copy_mIPKcPcEET0_T_S7_S6_
FNDA:0,_ZNSt11__copy_moveILb0ELb0ESt26random_access_iterator_tagE8__copy_mIPKcPcEET0_T_S7_S6_
FN:420,_ZNSt11__copy_moveILb0ELb1ESt26random_access_iterator_tagE8__copy_mIcEEPT_PKS3_S6_S4_
FNDA:0,_ZNSt11__copy_moveILb0ELb1ESt26random_access_iterator_tagE8__copy_mIcEEPT_PKS3_S6_S4_
FN:486,_ZSt14__copy_move_a2ILb0EPKcPcET1_T0_S4_S3_
FNDA:0,_ZSt14__copy_move_a2ILb0EPKcPcET1_T0_S4_S3_
FN:521,_ZSt14__copy_move_a1ILb0EPKcPcET1_T0_S4_S3_
FNDA:0,_ZSt14__copy_move_a1ILb0EPKcPcET1_T0_S4_S3_
FN:527,_ZSt13__copy_move_aILb0EPKcPcET1_T0_S4_S3_
FNDA:0,_ZSt13__copy_move_aILb0EPKcPcET1_T0_S4_S3_
FN:611,_ZSt4copyIPKcPcET0_T_S4_S3_
FNDA:0,_ZSt4copyIPKcPcET0_T_S4_S3_
DA:313,0
DA:315,0
DA:313,0
DA:315,0
DA:335,0
DA:336,0
DA:380,0
DA:383,0
DA:385,0
DA:386,0
DA:387,0
DA:389,0
DA:420,0
DA:429,0
DA:430,0
DA:431,0
DA:432,0
DA:486,0
DA:490,0
DA:492,0
DA:495,0
DA:521,0
DA:522,0
DA:527,0
DA:529,0
DA:532,0
DA:611,0
DA:620,0
end_of_record
SF:/usr/include/c++/11/bits/stl_iterator_base_types.h
FN:238,_ZSt19__iterator_categoryIPKcENSt15iterator_traitsIT_E17iterator_categoryERKS3_
FNDA:0,_ZSt19__iterator_categoryIPKcENSt15iterator_traitsIT_E17iterator_categoryERKS3_
DA:238,0
DA:239,0
end_of_record
SF:/usr/include/boost/system/detail/std_interoperability.hpp
FN:34,_ZN5boost6system6detail12std_categoryC2EPKNS0_14error_categoryEj
FNDA:0,_ZN5boost6system6detail12std_categoryC2EPKNS0_14error_categoryEj
FN:50,_ZNK5boost6system6detail12std_category4nameEv
FNDA:0,_ZNK5boost6system6detail12std_category4nameEv
FN:55,_ZNK5boost6system6detail12std_category7messageB5cxx11Ei
FNDA:0,_ZNK5boost6system6detail12std_category7messageB5cxx11Ei
FN:60,_ZNK5boost6system6detail12std_category23default_error_conditionEi
FNDA:0,_ZNK5boost6system6detail12std_category23default_error_conditionEi
FN:75,_ZNK5boost6system6detail12cat_ptr_lessclEPKNS0_14error_categoryES5_
FNDA:0,_ZNK5boost6system6detail12cat_ptr_lessclEPKNS0_14error_categoryES5_
FN:81,_ZN5boost6system6detail15to_std_categoryERKNS0_14error_categoryE
FNDA:0,_ZN5boost6system6detail15to_std_categoryERKNS0_14error_categoryE
FN:117,_ZNK5boost6system6detail12std_category10equivalentEiRKSt15error_condition
FNDA:0,_ZNK5boost6system6detail12std_category10equivalentEiRKSt15error_condition
FN:146,_ZNK5boost6system6detail12std_category10equivalentERKSt10error_codei
FNDA:0,_ZNK5boost6system6detail12std_category10equivalentERKSt10error_codei
DA:34,0
DA:48,0
DA:50,0
DA:52,0
DA:55,0
DA:57,0
DA:60,0
DA:62,0
DA:75,0
DA:77,0
DA:81,0
DA:83,0
DA:85,0
DA:86,0
DA:88,0
DA:90,0
DA:91,0
DA:97,0
DA:100,0
DA:102,0
DA:104,0
DA:106,0
DA:108,0
DA:110,0
DA:111,0
DA:113,0
DA:114,0
DA:117,0
DA:119,0
DA:121,0
DA:122,0
DA:124,0
DA:126,0
DA:127,0
DA:132,0
DA:134,0
DA:135,0
DA:142,0
DA:146,0
DA:148,0
DA:150,0
DA:151,0
DA:153,0
DA:155,0
DA:156,0
DA:161,0
DA:163,0
DA:164,0
DA:168,0
DA:170,0
DA:174,0
end_of_record
SF:/usr/include/c++/11/bits/char_traits.h
FN:106,_ZN9__gnu_cxx11char_traitsIcE2eqERKcS3_
FNDA:0,_ZN9__gnu_cxx11char_traitsIcE2eqERKcS3_
FN:167,_ZN9__gnu_cxx11char_traitsIcE6lengthEPKc
FNDA:0,_ZN9__gnu_cxx11char_traitsIcE6lengthEPKc
FN:190,_ZN9__gnu_cxx11char_traitsIcE4moveEPcPKcm
FNDA:0,_ZN9__gnu_cxx11char_traitsIcE4moveEPcPKcm
FN:240,_ZN9__gnu_cxx11char_traitsIcE4copyEPcPKcm
FNDA:0,_ZN9__gnu_cxx11char_traitsIcE4copyEPcPKcm
FN:356,_ZNSt11char_traitsIcE6assignERcRKc
FNDA:0,_ZNSt11char_traitsIcE6assignERcRKc
FN:393,_ZNSt11char_traitsIcE6lengthEPKc
FNDA:0,_ZNSt11char_traitsIcE6lengthEPKc
FN:417,_ZNSt11char_traitsIcE4moveEPcPKcm
FNDA:0,_ZNSt11char_traitsIcE4moveEPcPKcm
FN:429,_ZNSt11char_traitsIcE4copyEPcPKcm
FNDA:0,_ZNSt11char_traitsIcE4copyEPcPKcm
DA:106,0
DA:107,0
DA:167,0
DA:170,0
DA:171,0
DA:172,0
DA:173,0
DA:190,0
DA:193,0
DA:194,0
DA:196,0
DA:198,0
DA:199,0
DA:203,0
DA:204,0
DA:205,0
DA:206,0
DA:230,0
DA:233,0
DA:234,0
DA:240,0
DA:244,0
DA:245,0
DA:290,0
DA:356,0
DA:357,0
DA:393,0
DA:396,0
DA:397,0
DA:399,0
DA:417,0
DA:419,0
DA:420,0
DA:422,0
DA:423,0
DA:425,0
DA:429,0
DA:431,0
DA:432,0
DA:434,0
DA:435,0
DA:437,0
end_of_record
SF:/usr/include/c++/11/bits/allocator.h
FN:156,_ZNSaISt13_Rb_tree_nodeISt4pairIKPKN5boost6system14error_categoryESt10unique_ptrINS2_6detail12std_categoryESt14default_deleteIS9_EEEEEC2Ev
FNDA:0,_ZNSaISt13_Rb_tree_nodeISt4pairIKPKN5boost6system14error_categoryESt10unique_ptrINS2_6detail12std_categoryESt14default_deleteIS9_EEEEEC2Ev
FN:174,_ZNSaISt13_Rb_tree_nodeISt4pairIKPKN5boost6system14error_categoryESt10unique_ptrINS2_6detail12std_categoryESt14default_deleteIS9_EEEEED2Ev
FNDA:0,_ZNSaISt13_Rb_tree_nodeISt4pairIKPKN5boost6system14error_categoryESt10unique_ptrINS2_6detail12std_categoryESt14default_deleteIS9_EEEEED2Ev
DA:156,0
DA:174,0
DA:182,0
DA:183,0
DA:185,0
DA:193,0
DA:195,0
DA:196,0
DA:199,0
end_of_record
SF:/usr/include/c++/11/bits/unique_ptr.h
FN:79,_ZNKSt14default_deleteIN5boost6system6detail12std_categoryEEclEPS3_
FNDA:0,_ZNKSt14default_deleteIN5boost6system6detail12std_categoryEEclEPS3_
FN:155,_ZNSt15__uniq_ptr_implIN5boost6system6detail12std_categoryESt14default_deleteIS3_EEC2EPS3_
FNDA:0,_ZNSt15__uniq_ptr_implIN5boost6system6detail12std_categoryESt14default_deleteIS3_EEC2EPS3_
FN:161,_ZNSt15__uniq_ptr_implIN5boost6system6detail12std_categoryESt14default_deleteIS3_EEC2EOS6_
FNDA:0,_ZNSt15__uniq_ptr_implIN5boost6system6detail12std_categoryESt14default_deleteIS3_EEC2EOS6_
FN:172,_ZNSt15__uniq_ptr_implIN5boost6system6detail12std_categoryESt14default_deleteIS3_EE6_M_ptrEv
FNDA:0,_ZNSt15__uniq_ptr_implIN5boost6system6detail12std_categoryESt14default_deleteIS3_EE6_M_ptrEv
FN:173,_ZNKSt15__uniq_ptr_implIN5boost6system6detail12std_categoryESt14default_deleteIS3_EE6_M_ptrEv
FNDA:0,_ZNKSt15__uniq_ptr_implIN5boost6system6detail12std_categoryESt14default_deleteIS3_EE6_M_ptrEv
FN:174,_ZNSt15__uniq_ptr_implIN5boost6system6detail12std_categoryESt14default_deleteIS3_EE10_M_deleterEv
FNDA:0,_ZNSt15__uniq_ptr_implIN5boost6system6detail12std_categoryESt14default_deleteIS3_EE10_M_deleterEv
FN:211,_ZNSt15__uniq_ptr_dataIN5boost6system6detail12std_categoryESt14default_deleteIS3_ELb1ELb1EEC2EOS6_
FNDA:0,_ZNSt15__uniq_ptr_dataIN5boost6system6detail12std_categoryESt14default_deleteIS3_ELb1ELb1EEC2EOS6_
FN:281,_ZNSt10unique_ptrIN5boost6system6detail12std_categoryESt14default_deleteIS3_EEC2IS5_vEEPS3_
FNDA:0,_ZNSt10unique_ptrIN5boost6system6detail12std_categoryESt14default_deleteIS3_EEC2IS5_vEEPS3_
FN:327,_ZNSt10unique_ptrIN5boost6system6detail12std_categoryESt14default_deleteIS3_EEC2EOS6_
FNDA:0,_ZNSt10unique_ptrIN5boost6system6detail12std_categoryESt14default_deleteIS3_EEC2EOS6_
FN:355,_ZNSt10unique_ptrIN5boost6system6detail12std_categoryESt14default_deleteIS3_EED2Ev
FNDA:0,_ZNSt10unique_ptrIN5boost6system6detail12std_categoryESt14default_deleteIS3_EED2Ev
FN:405,_ZNKSt10unique_ptrIN5boost6system6detail12std_categoryESt14default_deleteIS3_EEdeEv
FNDA:0,_ZNKSt10unique_ptrIN5boost6system6detail12std_categoryESt14default_deleteIS3_EEdeEv
FN:421,_ZNKSt10unique_ptrIN5boost6system6detail12std_categoryESt14default_deleteIS3_EE3getEv
FNDA:0,_ZNKSt10unique_ptrIN5boost6system6detail12std_categoryESt14default_deleteIS3_EE3getEv
FN:426,_ZNSt10unique_ptrIN5boost6system6detail12std_categoryESt14default_deleteIS3_EE11get_deleterEv
FNDA:0,_ZNSt10unique_ptrIN5boost6system6detail12std_categoryESt14default_deleteIS3_EE11get_deleterEv
DA:79,0
DA:85,0
DA:86,0
DA:155,0
DA:161,0
DA:162,0
DA:163,0
DA:172,0
DA:173,0
DA:174,0
DA:211,0
DA:281,0
DA:282,0
DA:283,0
DA:327,0
DA:355,0
DA:359,0
DA:360,0
DA:361,0
DA:362,0
DA:363,0
DA:405,0
DA:407,0
DA:408,0
DA:421,0
DA:422,0
DA:426,0
DA:427,0
end_of_record
SF:/media/sf_Share_folder/UI/Spotify-rep-1-1/project/src/controller/MainMenuController.cpp
FN:4,_ZN18MainMenuController11handleInputEv
FNDA:1,_ZN18MainMenuController11handleInputEv
FN:55,_ZN18MainMenuController4backEv
FNDA:1,_ZN18MainMenuController4backEv
DA:4,1
DA:6,1
DA:8,1
DA:9,1
DA:12,1
DA:15,5
DA:16,5
DA:17,5
DA:18,0
DA:19,0
DA:22,5
DA:24,1
DA:25,1
DA:26,1
DA:28,1
DA:29,1
DA:30,1
DA:32,1
DA:33,1
DA:34,1
DA:36,1
DA:37,1
DA:38,1
DA:40,1
DA:41,1
DA:43,1
DA:44,1
DA:45,1
DA:47,0
DA:49,1
DA:52,5
DA:53,1
DA:55,1
DA:56,1
DA:57,1
DA:58,1
DA:59,1
end_of_record
SF:/usr/include/boost/asio/execution_context.hpp
FN:312,_ZN5boost4asio17execution_context2idC2Ev
FNDA:0,_ZN5boost4asio17execution_context2idC2Ev
DA:312,0
end_of_record
SF:/usr/include/c++/11/bits/ptr_traits.h
FN:149,_ZNSt14pointer_traitsIPKcE10pointer_toERS0_
FNDA:0,_ZNSt14pointer_traitsIPKcE10pointer_toERS0_
FN:149,_ZNSt14pointer_traitsIPcE10pointer_toERc
FNDA:0,_ZNSt14pointer_traitsIPcE10pointer_toERc
DA:149,0
DA:150,0
DA:149,0
DA:150,0
end_of_record
SF:/usr/include/c++/11/new
FN:174,_ZnwmPv
FNDA:0,_ZnwmPv
DA:174,0
DA:175,0
end_of_record
SF:/usr/include/c++/11/bits/alloc_traits.h
FN:463,_ZNSt16allocator_traitsISaISt13_Rb_tree_nodeISt4pairIKPKN5boost6system14error_categoryESt10unique_ptrINS3_6detail12std_categoryESt14default_deleteISA_EEEEEE8allocateERSG_m
FNDA:0,_ZNSt16allocator_traitsISaISt13_Rb_tree_nodeISt4pairIKPKN5boost6system14error_categoryESt10unique_ptrINS3_6detail12std_categoryESt14default_deleteISA_EEEEEE8allocateERSG_m
FN:463,_ZNSt16allocator_traitsISaIcEE8allocateERS0_m
FNDA:0,_ZNSt16allocator_traitsISaIcEE8allocateERS0_m
FN:495,_ZNSt16allocator_traitsISaISt13_Rb_tree_nodeISt4pairIKPKN5boost6system14error_categoryESt10unique_ptrINS3_6detail12std_categoryESt14default_deleteISA_EEEEEE10deallocateERSG_PSF_m
FNDA:0,_ZNSt16allocator_traitsISaISt13_Rb_tree_nodeISt4pairIKPKN5boost6system14error_categoryESt10unique_ptrINS3_6detail12std_categoryESt14default_deleteISA_EEEEEE10deallocateERSG_PSF_m
FN:495,_ZNSt16allocator_traitsISaIcEE10deallocateERS0_Pcm
FNDA:0,_ZNSt16allocator_traitsISaIcEE10deallocateERS0_Pcm
FN:511,_ZNSt16allocator_traitsISaISt13_Rb_tree_nodeISt4pairIKPKN5boost6system14error_categoryESt10unique_ptrINS3_6detail12std_categoryESt14default_deleteISA_EEEEEE9constructISE_JSE_EEEvRSG_PT_DpOT0_
FNDA:0,_ZNSt16allocator_traitsISaISt13_Rb_tree_nodeISt4pairIKPKN5boost6system14error_categoryESt10unique_ptrINS3_6detail12std_categoryESt14default_deleteISA_EEEEEE9constructISE_JSE_EEEvRSG_PT_DpOT0_
FN:531,_ZNSt16allocator_traitsISaISt13_Rb_tree_nodeISt4pairIKPKN5boost6system14error_categoryESt10unique_ptrINS3_6detail12std_categoryESt14default_deleteISA_EEEEEE7destroyISE_EEvRSG_PT_
FNDA:0,_ZNSt16allocator_traitsISaISt13_Rb_tree_nodeISt4pairIKPKN5boost6system14error_categoryESt10unique_ptrINS3_6detail12std_categoryESt14default_deleteISA_EEEEEE7destroyISE_EEvRSG_PT_
FN:547,_ZNSt16allocator_traitsISaIcEE8max_sizeERKS0_
FNDA:0,_ZNSt16allocator_traitsISaIcEE8max_sizeERKS0_
DA:463,0
DA:464,0
DA:463,0
DA:464,0
DA:495,0
DA:496,0
DA:495,0
DA:496,0
DA:511,0
DA:518,0
DA:520,0
DA:531,0
DA:537,0
DA:539,0
DA:547,0
DA:552,0
end_of_record
SF:/usr/include/boost/system/system_error.hpp
FN:47,_ZN5boost6system12system_errorD0Ev
FNDA:0,_ZN5boost6system12system_errorD0Ev
FN:47,_ZN5boost6system12system_errorD2Ev
FNDA:0,_ZN5boost6system12system_errorD2Ev
FN:59,_ZNK5boost6system12system_error4whatEv
FNDA:0,_ZNK5boost6system12system_error4whatEv
DA:47,0
DA:47,0
DA:59,0
DA:62,0
DA:68,0
DA:69,0
DA:70,0
DA:73,0
DA:76,0
end_of_record
SF:/usr/include/c++/11/bits/basic_string.tcc
FN:132,_ZNSt7__cxx1112basic_stringIcSt11char_traitsIcESaIcEE9_M_createERmm
FNDA:0,_ZNSt7__cxx1112basic_stringIcSt11char_traitsIcESaIcEE9_M_createERmm
FN:206,_ZNSt7__cxx1112basic_stringIcSt11char_traitsIcESaIcEE12_M_constructIPKcEEvT_S8_St20forward_iterator_tag
FNDA:0,_ZNSt7__cxx1112basic_stringIcSt11char_traitsIcESaIcEE12_M_constructIPKcEEvT_S8_St20forward_iterator_tag
FN:300,_ZNSt7__cxx1112basic_stringIcSt11char_traitsIcESaIcEE9_M_mutateEmmPKcm
FNDA:0,_ZNSt7__cxx1112basic_stringIcSt11char_traitsIcESaIcEE9_M_mutateEmmPKcm
FN:384,_ZNSt7__cxx1112basic_stringIcSt11char_traitsIcESaIcEE9_M_appendEPKcm
FNDA:0,_ZNSt7__cxx1112basic_stringIcSt11char_traitsIcESaIcEE9_M_appendEPKcm
FN:448,_ZNSt7__cxx1112basic_stringIcSt11char_traitsIcESaIcEE10_M_replaceEmmPKcm
FNDA:0,_ZNSt7__cxx1112basic_stringIcSt11char_traitsIcESaIcEE10_M_replaceEmmPKcm
DA:132,0
DA:137,0
DA:138,0
DA:143,0
DA:145,0
DA:147,0
DA:148,0
DA:153,0
DA:206,0
DA:211,0
DA:212,0
DA:215,0
DA:217,0
DA:219,0
DA:220,0
DA:225,0
DA:232,0
DA:233,0
DA:300,0
DA:304,0
DA:306,0
DA:307,0
DA:309,0
DA:310,0
DA:311,0
DA:312,0
DA:313,0
DA:314,0
DA:315,0
DA:317,0
DA:318,0
DA:319,0
DA:320,0
DA:384,0
DA:387,0
DA:389,0
DA:391,0
DA:392,0
DA:395,0
DA:397,0
DA:398,0
DA:448,0
DA:452,0
DA:454,0
DA:455,0
DA:457,0
DA:459,0
DA:461,0
DA:462,0
DA:464,0
DA:465,0
DA:466,0
DA:467,0
DA:472,0
DA:473,0
DA:474,0
DA:475,0
DA:476,0
DA:478,0
DA:479,0
DA:480,0
DA:484,0
DA:485,0
DA:489,0
DA:490,0
DA:491,0
DA:498,0
DA:500,0
DA:501,0
end_of_record
SF:/usr/include/c++/11/bits/std_mutex.h
FN:98,_ZNSt5mutex4lockEv
FNDA:0,_ZNSt5mutex4lockEv
FN:115,_ZNSt5mutex6unlockEv
FNDA:0,_ZNSt5mutex6unlockEv
FN:228,_ZNSt10lock_guardISt5mutexEC2ERS0_
FNDA:0,_ZNSt10lock_guardISt5mutexEC2ERS0_
FN:234,_ZNSt10lock_guardISt5mutexED2Ev
FNDA:0,_ZNSt10lock_guardISt5mutexED2Ev
DA:98,0
DA:100,0
DA:103,0
DA:104,0
DA:105,0
DA:115,0
DA:118,0
DA:119,0
DA:228,0
DA:229,0
DA:234,0
DA:235,0
end_of_record
SF:/usr/include/c++/11/ext/atomicity.h
DA:52,0
DA:66,0
DA:84,0
DA:85,0
DA:86,0
DA:98,0
DA:99,0
DA:101,0
end_of_record
SF:/usr/include/c++/11/ext/new_allocator.h
FN:79,_ZN9__gnu_cxx13new_allocatorISt13_Rb_tree_nodeISt4pairIKPKN5boost6system14error_categoryESt10unique_ptrINS4_6detail12std_categoryESt14default_deleteISB_EEEEEC2Ev
FNDA:0,_ZN9__gnu_cxx13new_allocatorISt13_Rb_tree_nodeISt4pairIKPKN5boost6system14error_categoryESt10unique_ptrINS4_6detail12std_categoryESt14default_deleteISB_EEEEEC2Ev
FN:79,_ZN9__gnu_cxx13new_allocatorIcEC2Ev
FNDA:0,_ZN9__gnu_cxx13new_allocatorIcEC2Ev
FN:103,_ZN9__gnu_cxx13new_allocatorISt13_Rb_tree_nodeISt4pairIKPKN5boost6system14error_categoryESt10unique_ptrINS4_6detail12std_categoryESt14default_deleteISB_EEEEE8allocateEmPKv
FNDA:0,_ZN9__gnu_cxx13new_allocatorISt13_Rb_tree_nodeISt4pairIKPKN5boost6system14error_categoryESt10unique_ptrINS4_6detail12std_categoryESt14default_deleteISB_EEEEE8allocateEmPKv
FN:103,_ZN9__gnu_cxx13new_allocatorIcE8allocateEmPKv
FNDA:0,_ZN9__gnu_cxx13new_allocatorIcE8allocateEmPKv
FN:132,_ZN9__gnu_cxx13new_allocatorISt13_Rb_tree_nodeISt4pairIKPKN5boost6system14error_categoryESt10unique_ptrINS4_6detail12std_categoryESt14default_deleteISB_EEEEE10deallocateEPSG_m
FNDA:0,_ZN9__gnu_cxx13new_allocatorISt13_Rb_tree_nodeISt4pairIKPKN5boost6system14error_categoryESt10unique_ptrINS4_6detail12std_categoryESt14default_deleteISB_EEEEE10deallocateEPSG_m
FN:132,_ZN9__gnu_cxx13new_allocatorIcE10deallocateEPcm
FNDA:0,_ZN9__gnu_cxx13new_allocatorIcE10deallocateEPcm
FN:197,_ZNK9__gnu_cxx13new_allocatorISt13_Rb_tree_nodeISt4pairIKPKN5boost6system14error_categoryESt10unique_ptrINS4_6detail12std_categoryESt14default_deleteISB_EEEEE11_M_max_sizeEv
FNDA:0,_ZNK9__gnu_cxx13new_allocatorISt13_Rb_tree_nodeISt4pairIKPKN5boost6system14error_categoryESt10unique_ptrINS4_6detail12std_categoryESt14default_deleteISB_EEEEE11_M_max_sizeEv
FN:197,_ZNK9__gnu_cxx13new_allocatorIcE11_M_max_sizeEv
FNDA:0,_ZNK9__gnu_cxx13new_allocatorIcE11_M_max_sizeEv
DA:79,0
DA:79,0
DA:103,0
DA:111,0
DA:115,0
DA:116,0
DA:117,0
DA:127,0
DA:103,0
DA:111,0
DA:117,0
DA:127,0
DA:132,0
DA:145,0
DA:132,0
DA:145,0
DA:197,0
DA:200,0
DA:197,0
DA:200,0
end_of_record
SF:/usr/include/c++/11/bits/stl_map.h
FN:185,_ZNSt3mapIPKN5boost6system14error_categoryESt10unique_ptrINS1_6detail12std_categoryESt14default_deleteIS7_EENS6_12cat_ptr_lessESaISt4pairIKS4_SA_EEEC2Ev
FNDA:0,_ZNSt3mapIPKN5boost6system14error_categoryESt10unique_ptrINS1_6detail12std_categoryESt14default_deleteIS7_EENS6_12cat_ptr_lessESaISt4pairIKS4_SA_EEEC2Ev
FN:302,_ZNSt3mapIPKN5boost6system14error_categoryESt10unique_ptrINS1_6detail12std_categoryESt14default_deleteIS7_EENS6_12cat_ptr_lessESaISt4pairIKS4_SA_EEED2Ev
FNDA:0,_ZNSt3mapIPKN5boost6system14error_categoryESt10unique_ptrINS1_6detail12std_categoryESt14default_deleteIS7_EENS6_12cat_ptr_lessESaISt4pairIKS4_SA_EEED2Ev
FN:374,_ZNSt3mapIPKN5boost6system14error_categoryESt10unique_ptrINS1_6detail12std_categoryESt14default_deleteIS7_EENS6_12cat_ptr_lessESaISt4pairIKS4_SA_EEE3endEv
FNDA:0,_ZNSt3mapIPKN5boost6system14error_categoryESt10unique_ptrINS1_6detail12std_categoryESt14default_deleteIS7_EENS6_12cat_ptr_lessESaISt4pairIKS4_SA_EEE3endEv
FN:810,_ZNSt3mapIPKN5boost6system14error_categoryESt10unique_ptrINS1_6detail12std_categoryESt14default_deleteIS7_EENS6_12cat_ptr_lessESaISt4pairIKS4_SA_EEE6insertEOSE_
FNDA:0,_ZNSt3mapIPKN5boost6system14error_categoryESt10unique_ptrINS1_6detail12std_categoryESt14default_deleteIS7_EENS6_12cat_ptr_lessESaISt4pairIKS4_SA_EEE6insertEOSE_
FN:1169,_ZNSt3mapIPKN5boost6system14error_categoryESt10unique_ptrINS1_6detail12std_categoryESt14default_deleteIS7_EENS6_12cat_ptr_lessESaISt4pairIKS4_SA_EEE4findERSD_
FNDA:0,_ZNSt3mapIPKN5boost6system14error_categoryESt10unique_ptrINS1_6detail12std_categoryESt14default_deleteIS7_EENS6_12cat_ptr_lessESaISt4pairIKS4_SA_EEE4findERSD_
DA:185,0
DA:302,0
DA:374,0
DA:375,0
DA:810,0
DA:811,0
DA:1169,0
DA:1170,0
end_of_record
SF:/usr/include/boost/asio/io_context.hpp
end_of_record
SF:/usr/include/boost/asio/detail/noncopyable.hpp
FN:29,_ZN5boost4asio6detail11noncopyableC2Ev
FNDA:0,_ZN5boost4asio6detail11noncopyableC2Ev
FN:30,_ZN5boost4asio6detail11noncopyableD2Ev
FNDA:0,_ZN5boost4asio6detail11noncopyableD2Ev
DA:29,0
DA:30,0
end_of_record
SF:/usr/include/boost/system/error_code.hpp
FN:233,_ZNK5boost6system14error_categoryeqERKS1_
FNDA:0,_ZNK5boost6system14error_categoryeqERKS1_
FN:243,_ZNK5boost6system14error_categoryltERKS1_
FNDA:0,_ZNK5boost6system14error_categoryltERKS1_
FN:290,_ZNK5boost6system6detail22generic_error_category4nameEv
FNDA:0,_ZNK5boost6system6detail22generic_error_category4nameEv
FN:308,_ZNK5boost6system6detail21system_error_category4nameEv
FNDA:0,_ZNK5boost6system6detail21system_error_category4nameEv
FN:346,_ZN5boost6system15system_categoryEv
FNDA:0,_ZN5boost6system15system_categoryEv
FN:351,_ZN5boost6system16generic_categoryEv
FNDA:0,_ZN5boost6system16generic_categoryEv
FN:415,_ZN5boost6system6detail11failed_implEiRKNS0_14error_categoryE
FNDA:0,_ZN5boost6system6detail11failed_implEiRKNS0_14error_categoryE
FN:452,_ZN5boost6system15error_conditionC2EiRKNS0_14error_categoryE
FNDA:0,_ZN5boost6system15error_conditionC2EiRKNS0_14error_categoryE
FN:489,_ZNK5boost6system15error_condition5valueEv
FNDA:0,_ZNK5boost6system15error_condition5valueEv
FN:494,_ZNK5boost6system15error_condition8categoryEv
FNDA:0,_ZNK5boost6system15error_condition8categoryEv
FN:542,_ZN5boost6systemeqERKNS0_15error_conditionES3_
FNDA:0,_ZN5boost6systemeqERKNS0_15error_conditionES3_
FN:554,_ZNK5boost6system15error_conditioncvSt15error_conditionEv
FNDA:0,_ZNK5boost6system15error_conditioncvSt15error_conditionEv
FN:588,_ZN5boost6system10error_codeC2EiRKNS0_14error_categoryE
FNDA:0,_ZN5boost6system10error_codeC2EiRKNS0_14error_categoryE
FN:625,_ZNK5boost6system10error_code5valueEv
FNDA:0,_ZNK5boost6system10error_code5valueEv
FN:630,_ZNK5boost6system10error_code8categoryEv
FNDA:0,_ZNK5boost6system10error_code8categoryEv
FN:640,_ZNK5boost6system10error_code7messageB5cxx11Ev
FNDA:0,_ZNK5boost6system10error_code7messageB5cxx11Ev
FN:831,_ZNK5boost6system14error_category23default_error_conditionEi
FNDA:0,_ZNK5boost6system14error_category23default_error_conditionEi
FN:836,_ZNK5boost6system14error_category10equivalentEiRKNS0_15error_conditionE
FNDA:0,_ZNK5boost6system14error_category10equivalentEiRKNS0_15error_conditionE
FN:841,_ZNK5boost6system14error_category10equivalentERKNS0_10error_codeEi
FNDA:0,_ZNK5boost6system14error_category10equivalentERKNS0_10error_codeEi
FN:846,_ZNK5boost6system14error_category7messageEiPcm
FNDA:0,_ZNK5boost6system14error_category7messageEiPcm
FN:894,_ZNK5boost6system14error_category6failedEi
FNDA:0,_ZNK5boost6system14error_category6failedEi
FN:907,_ZNK5boost6system6detail22generic_error_category7messageB5cxx11Ei
FNDA:0,_ZNK5boost6system6detail22generic_error_category7messageB5cxx11Ei
FN:912,_ZNK5boost6system6detail22generic_error_category7messageEiPcm
FNDA:0,_ZNK5boost6system6detail22generic_error_category7messageEiPcm
FN:942,_ZNK5boost6system6detail21system_error_category23default_error_conditionEi
FNDA:0,_ZNK5boost6system6detail21system_error_category23default_error_conditionEi
FN:947,_ZNK5boost6system6detail21system_error_category7messageB5cxx11Ei
FNDA:0,_ZNK5boost6system6detail21system_error_category7messageB5cxx11Ei
FN:952,_ZNK5boost6system6detail21system_error_category7messageEiPcm
FNDA:0,_ZNK5boost6system6detail21system_error_category7messageEiPcm
FN:965,_ZNK5boost6system14error_categorycvRKNSt3_V214error_categoryEEv
FNDA:0,_ZNK5boost6system14error_categorycvRKNSt3_V214error_categoryEEv
DA:233,0
DA:235,0
DA:243,0
DA:245,0
DA:247,0
DA:250,0
DA:252,0
DA:255,0
DA:257,0
DA:260,0
DA:290,0
DA:292,0
DA:308,0
DA:310,0
DA:346,0
DA:348,0
DA:351,0
DA:353,0
DA:415,0
DA:417,0
DA:419,0
DA:423,0
DA:452,0
DA:453,0
DA:455,0
DA:489,0
DA:491,0
DA:494,0
DA:496,0
DA:542,0
DA:544,0
DA:554,0
DA:556,0
DA:588,0
DA:589,0
DA:591,0
DA:625,0
DA:627,0
DA:630,0
DA:632,0
DA:640,0
DA:642,0
DA:831,0
DA:833,0
DA:836,0
DA:838,0
DA:841,0
DA:843,0
DA:846,0
DA:848,0
DA:850,0
DA:853,0
DA:855,0
DA:856,0
DA:863,0
DA:875,0
DA:876,0
DA:884,0
DA:885,0
DA:887,0
DA:889,0
DA:890,0
DA:894,0
DA:896,0
DA:907,0
DA:909,0
DA:912,0
DA:914,0
DA:942,0
DA:944,0
DA:947,0
DA:949,0
DA:952,0
DA:954,0
DA:965,0
DA:967,0
end_of_record
SF:/usr/include/c++/11/bits/stl_pair.h
FN:315,_ZNSt4pairIKPKN5boost6system14error_categoryESt10unique_ptrINS1_6detail12std_categoryESt14default_deleteIS8_EEEC2EOSC_
FNDA:0,_ZNSt4pairIKPKN5boost6system14error_categoryESt10unique_ptrINS1_6detail12std_categoryESt14default_deleteIS8_EEEC2EOSC_
FN:322,_ZNSt4pairIPSt18_Rb_tree_node_baseS1_EC2IRS1_Lb1EEEOT_RKS1_
FNDA:0,_ZNSt4pairIPSt18_Rb_tree_node_baseS1_EC2IRS1_Lb1EEEOT_RKS1_
FN:352,_ZNSt4pairIPSt18_Rb_tree_node_baseS1_EC2IRPSt13_Rb_tree_nodeIS_IKPKN5boost6system14error_categoryESt10unique_ptrINS6_6detail12std_categoryESt14default_deleteISD_EEEERS1_Lb1EEEOT_OT0_
FNDA:0,_ZNSt4pairIPSt18_Rb_tree_node_baseS1_EC2IRPSt13_Rb_tree_nodeIS_IKPKN5boost6system14error_categoryESt10unique_ptrINS6_6detail12std_categoryESt14default_deleteISD_EEEERS1_Lb1EEEOT_OT0_
FN:352,_ZNSt4pairISt17_Rb_tree_iteratorIS_IKPKN5boost6system14error_categoryESt10unique_ptrINS2_6detail12std_categoryESt14default_deleteIS9_EEEEbEC2ISE_bLb1EEEOT_OT0_
FNDA:0,_ZNSt4pairISt17_Rb_tree_iteratorIS_IKPKN5boost6system14error_categoryESt10unique_ptrINS2_6detail12std_categoryESt14default_deleteIS9_EEEEbEC2ISE_bLb1EEEOT_OT0_
FN:352,_ZNSt4pairIKPKN5boost6system14error_categoryESt10unique_ptrINS1_6detail12std_categoryESt14default_deleteIS8_EEEC2IS4_SB_Lb1EEEOT_OT0_
FNDA:0,_ZNSt4pairIKPKN5boost6system14error_categoryESt10unique_ptrINS1_6detail12std_categoryESt14default_deleteIS8_EEEC2IS4_SB_Lb1EEEOT_OT0_
DA:315,0
DA:322,0
DA:323,0
DA:352,0
DA:353,0
DA:352,0
DA:353,0
DA:352,0
DA:353,0
end_of_record
SF:/usr/include/c++/11/bits/basic_string.h
FN:164,_ZNSt7__cxx1112basic_stringIcSt11char_traitsIcESaIcEE12_Alloc_hiderC2EPcRKS3_
FNDA:0,_ZNSt7__cxx1112basic_stringIcSt11char_traitsIcESaIcEE12_Alloc_hiderC2EPcRKS3_
FN:186,_ZNSt7__cxx1112basic_stringIcSt11char_traitsIcESaIcEE7_M_dataEPc
FNDA:0,_ZNSt7__cxx1112basic_stringIcSt11char_traitsIcESaIcEE7_M_dataEPc
FN:190,_ZNSt7__cxx1112basic_stringIcSt11char_traitsIcESaIcEE9_M_lengthEm
FNDA:0,_ZNSt7__cxx1112basic_stringIcSt11char_traitsIcESaIcEE9_M_lengthEm
FN:194,_ZNKSt7__cxx1112basic_stringIcSt11char_traitsIcESaIcEE7_M_dataEv
FNDA:0,_ZNKSt7__cxx1112basic_stringIcSt11char_traitsIcESaIcEE7_M_dataEv
FN:198,_ZNSt7__cxx1112basic_stringIcSt11char_traitsIcESaIcEE13_M_local_dataEv
FNDA:0,_ZNSt7__cxx1112basic_stringIcSt11char_traitsIcESaIcEE13_M_local_dataEv
FN:208,_ZNKSt7__cxx1112basic_stringIcSt11char_traitsIcESaIcEE13_M_local_dataEv
FNDA:0,_ZNKSt7__cxx1112basic_stringIcSt11char_traitsIcESaIcEE13_M_local_dataEv
FN:218,_ZNSt7__cxx1112basic_stringIcSt11char_traitsIcESaIcEE11_M_capacityEm
FNDA:0,_ZNSt7__cxx1112basic_stringIcSt11char_traitsIcESaIcEE11_M_capacityEm
FN:222,_ZNSt7__cxx1112basic_stringIcSt11char_traitsIcESaIcEE13_M_set_lengthEm
FNDA:0,_ZNSt7__cxx1112basic_stringIcSt11char_traitsIcESaIcEE13_M_set_lengthEm
FN:229,_ZNKSt7__cxx1112basic_stringIcSt11char_traitsIcESaIcEE11_M_is_localEv
FNDA:0,_ZNKSt7__cxx1112basic_stringIcSt11char_traitsIcESaIcEE11_M_is_localEv
FN:237,_ZNSt7__cxx1112basic_stringIcSt11char_traitsIcESaIcEE10_M_disposeEv
FNDA:0,_ZNSt7__cxx1112basic_stringIcSt11char_traitsIcESaIcEE10_M_disposeEv
FN:244,_ZNSt7__cxx1112basic_stringIcSt11char_traitsIcESaIcEE10_M_destroyEm
FNDA:0,_ZNSt7__cxx1112basic_stringIcSt11char_traitsIcESaIcEE10_M_destroyEm
FN:294,_ZNSt7__cxx1112basic_stringIcSt11char_traitsIcESaIcEE16_M_get_allocatorEv
FNDA:0,_ZNSt7__cxx1112basic_stringIcSt11char_traitsIcESaIcEE16_M_get_allocatorEv
FN:298,_ZNKSt7__cxx1112basic_stringIcSt11char_traitsIcESaIcEE16_M_get_allocatorEv
FNDA:0,_ZNKSt7__cxx1112basic_stringIcSt11char_traitsIcESaIcEE16_M_get_allocatorEv
FN:328,_ZNKSt7__cxx1112basic_stringIcSt11char_traitsIcESaIcEE15_M_check_lengthEmmPKc
FNDA:0,_ZNKSt7__cxx1112basic_stringIcSt11char_traitsIcESaIcEE15_M_check_lengthEmmPKc
FN:345,_ZNKSt7__cxx1112basic_stringIcSt11char_traitsIcESaIcEE11_M_disjunctEPKc
FNDA:0,_ZNKSt7__cxx1112basic_stringIcSt11char_traitsIcESaIcEE11_M_disjunctEPKc
FN:354,_ZNSt7__cxx1112basic_stringIcSt11char_traitsIcESaIcEE7_S_copyEPcPKcm
FNDA:0,_ZNSt7__cxx1112basic_stringIcSt11char_traitsIcESaIcEE7_S_copyEPcPKcm
FN:363,_ZNSt7__cxx1112basic_stringIcSt11char_traitsIcESaIcEE7_S_moveEPcPKcm
FNDA:0,_ZNSt7__cxx1112basic_stringIcSt11char_traitsIcESaIcEE7_S_moveEPcPKcm
FN:404,_ZNSt7__cxx1112basic_stringIcSt11char_traitsIcESaIcEE13_S_copy_charsEPcPKcS7_
FNDA:0,_ZNSt7__cxx1112basic_stringIcSt11char_traitsIcESaIcEE13_S_copy_charsEPcPKcS7_
FN:533,_ZNSt7__cxx1112basic_stringIcSt11char_traitsIcESaIcEEC2IS3_EEPKcRKS3_
FNDA:0,_ZNSt7__cxx1112basic_stringIcSt11char_traitsIcESaIcEEC2IS3_EEPKcRKS3_
FN:671,_ZNSt7__cxx1112basic_stringIcSt11char_traitsIcESaIcEED2Ev
FNDA:0,_ZNSt7__cxx1112basic_stringIcSt11char_traitsIcESaIcEED2Ev
FN:689,_ZNSt7__cxx1112basic_stringIcSt11char_traitsIcESaIcEEaSEPKc
FNDA:0,_ZNSt7__cxx1112basic_stringIcSt11char_traitsIcESaIcEEaSEPKc
FN:920,_ZNKSt7__cxx1112basic_stringIcSt11char_traitsIcESaIcEE4sizeEv
FNDA:0,_ZNKSt7__cxx1112basic_stringIcSt11char_traitsIcESaIcEE4sizeEv
FN:926,_ZNKSt7__cxx1112basic_stringIcSt11char_traitsIcESaIcEE6lengthEv
FNDA:0,_ZNKSt7__cxx1112basic_stringIcSt11char_traitsIcESaIcEE6lengthEv
FN:931,_ZNKSt7__cxx1112basic_stringIcSt11char_traitsIcESaIcEE8max_sizeEv
FNDA:0,_ZNKSt7__cxx1112basic_stringIcSt11char_traitsIcESaIcEE8max_sizeEv
FN:976,_ZNKSt7__cxx1112basic_stringIcSt11char_traitsIcESaIcEE8capacityEv
FNDA:0,_ZNKSt7__cxx1112basic_stringIcSt11char_traitsIcESaIcEE8capacityEv
FN:1023,_ZNKSt7__cxx1112basic_stringIcSt11char_traitsIcESaIcEE5emptyEv
FNDA:0,_ZNKSt7__cxx1112basic_stringIcSt11char_traitsIcESaIcEE5emptyEv
FN:1160,_ZNSt7__cxx1112basic_stringIcSt11char_traitsIcESaIcEEpLERKS4_
FNDA:0,_ZNSt7__cxx1112basic_stringIcSt11char_traitsIcESaIcEEpLERKS4_
FN:1169,_ZNSt7__cxx1112basic_stringIcSt11char_traitsIcESaIcEEpLEPKc
FNDA:0,_ZNSt7__cxx1112basic_stringIcSt11char_traitsIcESaIcEEpLEPKc
FN:1213,_ZNSt7__cxx1112basic_stringIcSt11char_traitsIcESaIcEE6appendERKS4_
FNDA:0,_ZNSt7__cxx1112basic_stringIcSt11char_traitsIcESaIcEE6appendERKS4_
FN:1255,_ZNSt7__cxx1112basic_stringIcSt11char_traitsIcESaIcEE6appendEPKc
FNDA:0,_ZNSt7__cxx1112basic_stringIcSt11char_traitsIcESaIcEE6appendEPKc
FN:1456,_ZNSt7__cxx1112basic_stringIcSt11char_traitsIcESaIcEE6assignEPKc
FNDA:0,_ZNSt7__cxx1112basic_stringIcSt11char_traitsIcESaIcEE6assignEPKc
FN:2320,_ZNKSt7__cxx1112basic_stringIcSt11char_traitsIcESaIcEE5c_strEv
FNDA:0,_ZNKSt7__cxx1112basic_stringIcSt11char_traitsIcESaIcEE5c_strEv
DA:164,0
DA:165,0
DA:186,0
DA:187,0
DA:190,0
DA:191,0
DA:194,0
DA:195,0
DA:198,0
DA:201,0
DA:208,0
DA:211,0
DA:218,0
DA:219,0
DA:222,0
DA:224,0
DA:225,0
DA:226,0
DA:229,0
DA:230,0
DA:237,0
DA:239,0
DA:240,0
DA:241,0
DA:244,0
DA:245,0
DA:294,0
DA:295,0
DA:298,0
DA:299,0
DA:328,0
DA:330,0
DA:331,0
DA:332,0
DA:345,0
DA:347,0
DA:348,0
DA:354,0
DA:356,0
DA:357,0
DA:359,0
DA:360,0
DA:363,0
DA:365,0
DA:366,0
DA:368,0
DA:369,0
DA:404,0
DA:406,0
DA:533,0
DA:534,0
DA:536,0
DA:539,0
DA:540,0
DA:671,0
DA:672,0
DA:689,0
DA:690,0
DA:920,0
DA:921,0
DA:926,0
DA:927,0
DA:931,0
DA:932,0
DA:976,0
DA:978,0
DA:979,0
DA:1023,0
DA:1024,0
DA:1160,0
DA:1161,0
DA:1169,0
DA:1170,0
DA:1213,0
DA:1214,0
DA:1255,0
DA:1258,0
DA:1259,0
DA:1260,0
DA:1456,0
DA:1459,0
DA:1460,0
DA:2320,0
DA:2321,0
end_of_record
SF:/usr/include/c++/11/bits/stl_tree.h
FN:146,_ZNSt20_Rb_tree_key_compareIN5boost6system6detail12cat_ptr_lessEEC2Ev
FNDA:0,_ZNSt20_Rb_tree_key_compareIN5boost6system6detail12cat_ptr_lessEEC2Ev
FN:173,_ZNSt15_Rb_tree_headerC2Ev
FNDA:0,_ZNSt15_Rb_tree_headerC2Ev
FN:206,_ZNSt15_Rb_tree_header8_M_resetEv
FNDA:0,_ZNSt15_Rb_tree_header8_M_resetEv
FN:234,_ZNSt13_Rb_tree_nodeISt4pairIKPKN5boost6system14error_categoryESt10unique_ptrINS2_6detail12std_categoryESt14default_deleteIS9_EEEE9_M_valptrEv
FNDA:0,_ZNSt13_Rb_tree_nodeISt4pairIKPKN5boost6system14error_categoryESt10unique_ptrINS2_6detail12std_categoryESt14default_deleteIS9_EEEE9_M_valptrEv
FN:238,_ZNKSt13_Rb_tree_nodeISt4pairIKPKN5boost6system14error_categoryESt10unique_ptrINS2_6detail12std_categoryESt14default_deleteIS9_EEEE9_M_valptrEv
FNDA:0,_ZNKSt13_Rb_tree_nodeISt4pairIKPKN5boost6system14error_categoryESt10unique_ptrINS2_6detail12std_categoryESt14default_deleteIS9_EEEE9_M_valptrEv
FN:273,_ZNSt17_Rb_tree_iteratorISt4pairIKPKN5boost6system14error_categoryESt10unique_ptrINS2_6detail12std_categoryESt14default_deleteIS9_EEEEC2EPSt18_Rb_tree_node_base
FNDA:0,_ZNSt17_Rb_tree_iteratorISt4pairIKPKN5boost6system14error_categoryESt10unique_ptrINS2_6detail12std_categoryESt14default_deleteIS9_EEEEC2EPSt18_Rb_tree_node_base
FN:281,_ZNKSt17_Rb_tree_iteratorISt4pairIKPKN5boost6system14error_categoryESt10unique_ptrINS2_6detail12std_categoryESt14default_deleteIS9_EEEEptEv
FNDA:0,_ZNKSt17_Rb_tree_iteratorISt4pairIKPKN5boost6system14error_categoryESt10unique_ptrINS2_6detail12std_categoryESt14default_deleteIS9_EEEEptEv
FN:300,_ZNSt17_Rb_tree_iteratorISt4pairIKPKN5boost6system14error_categoryESt10unique_ptrINS2_6detail12std_categoryESt14default_deleteIS9_EEEEmmEv
FNDA:0,_ZNSt17_Rb_tree_iteratorISt4pairIKPKN5boost6system14error_categoryESt10unique_ptrINS2_6detail12std_categoryESt14default_deleteIS9_EEEEmmEv
FN:315,_ZSteqRKSt17_Rb_tree_iteratorISt4pairIKPKN5boost6system14error_categoryESt10unique_ptrINS2_6detail12std_categoryESt14default_deleteIS9_EEEESG_
FNDA:0,_ZSteqRKSt17_Rb_tree_iteratorISt4pairIKPKN5boost6system14error_categoryESt10unique_ptrINS2_6detail12std_categoryESt14default_deleteIS9_EEEESG_
FN:523,_ZNSt8_Rb_treeIPKN5boost6system14error_categoryESt4pairIKS4_St10unique_ptrINS1_6detail12std_categoryESt14default_deleteIS9_EEESt10_Select1stISD_ENS8_12cat_ptr_lessESaISD_EE11_Alloc_nodeC2ERSI_
FNDA:0,_ZNSt8_Rb_treeIPKN5boost6system14error_categoryESt4pairIKS4_St10unique_ptrINS1_6detail12std_categoryESt14default_deleteIS9_EEESt10_Select1stISD_ENS8_12cat_ptr_lessESaISD_EE11_Alloc_nodeC2ERSI_
FN:528,_ZNKSt8_Rb_treeIPKN5boost6system14error_categoryESt4pairIKS4_St10unique_ptrINS1_6detail12std_categoryESt14default_deleteIS9_EEESt10_Select1stISD_ENS8_12cat_ptr_lessESaISD_EE11_Alloc_nodeclISD_EEPSt13_Rb_tree_nodeISD_EOT_
FNDA:0,_ZNKSt8_Rb_treeIPKN5boost6system14error_categoryESt4pairIKS4_St10unique_ptrINS1_6detail12std_categoryESt14default_deleteIS9_EEESt10_Select1stISD_ENS8_12cat_ptr_lessESaISD_EE11_Alloc_nodeclISD_EEPSt13_Rb_tree_nodeISD_EOT_
FN:547,_ZNSt8_Rb_treeIPKN5boost6system14error_categoryESt4pairIKS4_St10unique_ptrINS1_6detail12std_categoryESt14default_deleteIS9_EEESt10_Select1stISD_ENS8_12cat_ptr_lessESaISD_EE21_M_get_Node_allocatorEv
FNDA:0,_ZNSt8_Rb_treeIPKN5boost6system14error_categoryESt4pairIKS4_St10unique_ptrINS1_6detail12std_categoryESt14default_deleteIS9_EEESt10_Select1stISD_ENS8_12cat_ptr_lessESaISD_EE21_M_get_Node_allocatorEv
FN:560,_ZNSt8_Rb_treeIPKN5boost6system14error_categoryESt4pairIKS4_St10unique_ptrINS1_6detail12std_categoryESt14default_deleteIS9_EEESt10_Select1stISD_ENS8_12cat_ptr_lessESaISD_EE11_M_get_nodeEv
FNDA:0,_ZNSt8_Rb_treeIPKN5boost6system14error_categoryESt4pairIKS4_St10unique_ptrINS1_6detail12std_categoryESt14default_deleteIS9_EEESt10_Select1stISD_ENS8_12cat_ptr_lessESaISD_EE11_M_get_nodeEv
FN:564,_ZNSt8_Rb_treeIPKN5boost6system14error_categoryESt4pairIKS4_St10unique_ptrINS1_6detail12std_categoryESt14default_deleteIS9_EEESt10_Select1stISD_ENS8_12cat_ptr_lessESaISD_EE11_M_put_nodeEPSt13_Rb_tree_nodeISD_E
FNDA:0,_ZNSt8_Rb_treeIPKN5boost6system14error_categoryESt4pairIKS4_St10unique_ptrINS1_6detail12std_categoryESt14default_deleteIS9_EEESt10_Select1stISD_ENS8_12cat_ptr_lessESaISD_EE11_M_put_nodeEPSt13_Rb_tree_nodeISD_E
FN:590,_ZNSt8_Rb_treeIPKN5boost6system14error_categoryESt4pairIKS4_St10unique_ptrINS1_6detail12std_categoryESt14default_deleteIS9_EEESt10_Select1stISD_ENS8_12cat_ptr_lessESaISD_EE17_M_construct_nodeIJSD_EEEvPSt13_Rb_tree_nodeISD_EDpOT_
FNDA:0,_ZNSt8_Rb_treeIPKN5boost6system14error_categoryESt4pairIKS4_St10unique_ptrINS1_6detail12std_categoryESt14default_deleteIS9_EEESt10_Select1stISD_ENS8_12cat_ptr_lessESaISD_EE17_M_construct_nodeIJSD_EEEvPSt13_Rb_tree_nodeISD_EDpOT_
FN:609,_ZNSt8_Rb_treeIPKN5boost6system14error_categoryESt4pairIKS4_St10unique_ptrINS1_6detail12std_categoryESt14default_deleteIS9_EEESt10_Select1stISD_ENS8_12cat_ptr_lessESaISD_EE14_M_create_nodeIJSD_EEEPSt13_Rb_tree_nodeISD_EDpOT_
FNDA:0,_ZNSt8_Rb_treeIPKN5boost6system14error_categoryESt4pairIKS4_St10unique_ptrINS1_6detail12std_categoryESt14default_deleteIS9_EEESt10_Select1stISD_ENS8_12cat_ptr_lessESaISD_EE14_M_create_nodeIJSD_EEEPSt13_Rb_tree_nodeISD_EDpOT_
FN:618,_ZNSt8_Rb_treeIPKN5boost6system14error_categoryESt4pairIKS4_St10unique_ptrINS1_6detail12std_categoryESt14default_deleteIS9_EEESt10_Select1stISD_ENS8_12cat_ptr_lessESaISD_EE15_M_destroy_nodeEPSt13_Rb_tree_nodeISD_E
FNDA:0,_ZNSt8_Rb_treeIPKN5boost6system14error_categoryESt4pairIKS4_St10unique_ptrINS1_6detail12std_categoryESt14default_deleteIS9_EEESt10_Select1stISD_ENS8_12cat_ptr_lessESaISD_EE15_M_destroy_nodeEPSt13_Rb_tree_nodeISD_E
FN:629,_ZNSt8_Rb_treeIPKN5boost6system14error_categoryESt4pairIKS4_St10unique_ptrINS1_6detail12std_categoryESt14default_deleteIS9_EEESt10_Select1stISD_ENS8_12cat_ptr_lessESaISD_EE12_M_drop_nodeEPSt13_Rb_tree_nodeISD_E
FNDA:0,_ZNSt8_Rb_treeIPKN5boost6system14error_categoryESt4pairIKS4_St10unique_ptrINS1_6detail12std_categoryESt14default_deleteIS9_EEESt10_Select1stISD_ENS8_12cat_ptr_lessESaISD_EE12_M_drop_nodeEPSt13_Rb_tree_nodeISD_E
FN:667,_ZNSt8_Rb_treeIPKN5boost6system14error_categoryESt4pairIKS4_St10unique_ptrINS1_6detail12std_categoryESt14default_deleteIS9_EEESt10_Select1stISD_ENS8_12cat_ptr_lessESaISD_EE13_Rb_tree_implISG_Lb1EEC2Ev
FNDA:0,_ZNSt8_Rb_treeIPKN5boost6system14error_categoryESt4pairIKS4_St10unique_ptrINS1_6detail12std_categoryESt14default_deleteIS9_EEESt10_Select1stISD_ENS8_12cat_ptr_lessESaISD_EE13_Rb_tree_implISG_Lb1EEC2Ev
FN:734,_ZNKSt8_Rb_treeIPKN5boost6system14error_categoryESt4pairIKS4_St10unique_ptrINS1_6detail12std_categoryESt14default_deleteIS9_EEESt10_Select1stISD_ENS8_12cat_ptr_lessESaISD_EE9_M_mbeginEv
FNDA:0,_ZNKSt8_Rb_treeIPKN5boost6system14error_categoryESt4pairIKS4_St10unique_ptrINS1_6detail12std_categoryESt14default_deleteIS9_EEESt10_Select1stISD_ENS8_12cat_ptr_lessESaISD_EE9_M_mbeginEv
FN:738,_ZNSt8_Rb_treeIPKN5boost6system14error_categoryESt4pairIKS4_St10unique_ptrINS1_6detail12std_categoryESt14default_deleteIS9_EEESt10_Select1stISD_ENS8_12cat_ptr_lessESaISD_EE8_M_beginEv
FNDA:0,_ZNSt8_Rb_treeIPKN5boost6system14error_categoryESt4pairIKS4_St10unique_ptrINS1_6detail12std_categoryESt14default_deleteIS9_EEESt10_Select1stISD_ENS8_12cat_ptr_lessESaISD_EE8_M_beginEv
FN:749,_ZNSt8_Rb_treeIPKN5boost6system14error_categoryESt4pairIKS4_St10unique_ptrINS1_6detail12std_categoryESt14default_deleteIS9_EEESt10_Select1stISD_ENS8_12cat_ptr_lessESaISD_EE6_M_endEv
FNDA:0,_ZNSt8_Rb_treeIPKN5boost6system14error_categoryESt4pairIKS4_St10unique_ptrINS1_6detail12std_categoryESt14default_deleteIS9_EEESt10_Select1stISD_ENS8_12cat_ptr_lessESaISD_EE6_M_endEv
FN:757,_ZNSt8_Rb_treeIPKN5boost6system14error_categoryESt4pairIKS4_St10unique_ptrINS1_6detail12std_categoryESt14default_deleteIS9_EEESt10_Select1stISD_ENS8_12cat_ptr_lessESaISD_EE6_S_keyEPKSt13_Rb_tree_nodeISD_E
FNDA:0,_ZNSt8_Rb_treeIPKN5boost6system14error_categoryESt4pairIKS4_St10unique_ptrINS1_6detail12std_categoryESt14default_deleteIS9_EEESt10_Select1stISD_ENS8_12cat_ptr_lessESaISD_EE6_S_keyEPKSt13_Rb_tree_nodeISD_E
FN:779,_ZNSt8_Rb_treeIPKN5boost6system14error_categoryESt4pairIKS4_St10unique_ptrINS1_6detail12std_categoryESt14default_deleteIS9_EEESt10_Select1stISD_ENS8_12cat_ptr_lessESaISD_EE7_S_leftEPSt18_Rb_tree_node_base
FNDA:0,_ZNSt8_Rb_treeIPKN5boost6system14error_categoryESt4pairIKS4_St10unique_ptrINS1_6detail12std_categoryESt14default_deleteIS9_EEESt10_Select1stISD_ENS8_12cat_ptr_lessESaISD_EE7_S_leftEPSt18_Rb_tree_node_base
FN:787,_ZNSt8_Rb_treeIPKN5boost6system14error_categoryESt4pairIKS4_St10unique_ptrINS1_6detail12std_categoryESt14default_deleteIS9_EEESt10_Select1stISD_ENS8_12cat_ptr_lessESaISD_EE8_S_rightEPSt18_Rb_tree_node_base
FNDA:0,_ZNSt8_Rb_treeIPKN5boost6system14error_categoryESt4pairIKS4_St10unique_ptrINS1_6detail12std_categoryESt14default_deleteIS9_EEESt10_Select1stISD_ENS8_12cat_ptr_lessESaISD_EE8_S_rightEPSt18_Rb_tree_node_base
FN:795,_ZNSt8_Rb_treeIPKN5boost6system14error_categoryESt4pairIKS4_St10unique_ptrINS1_6detail12std_categoryESt14default_deleteIS9_EEESt10_Select1stISD_ENS8_12cat_ptr_lessESaISD_EE6_S_keyEPKSt18_Rb_tree_node_base
FNDA:0,_ZNSt8_Rb_treeIPKN5boost6system14error_categoryESt4pairIKS4_St10unique_ptrINS1_6detail12std_categoryESt14default_deleteIS9_EEESt10_Select1stISD_ENS8_12cat_ptr_lessESaISD_EE6_S_keyEPKSt18_Rb_tree_node_base
FN:928,_ZNSt8_Rb_treeIPKN5boost6system14error_categoryESt4pairIKS4_St10unique_ptrINS1_6detail12std_categoryESt14default_deleteIS9_EEESt10_Select1stISD_ENS8_12cat_ptr_lessESaISD_EEC2Ev
FNDA:0,_ZNSt8_Rb_treeIPKN5boost6system14error_categoryESt4pairIKS4_St10unique_ptrINS1_6detail12std_categoryESt14default_deleteIS9_EEESt10_Select1stISD_ENS8_12cat_ptr_lessESaISD_EEC2Ev
FN:983,_ZNSt8_Rb_treeIPKN5boost6system14error_categoryESt4pairIKS4_St10unique_ptrINS1_6detail12std_categoryESt14default_deleteIS9_EEESt10_Select1stISD_ENS8_12cat_ptr_lessESaISD_EED2Ev
FNDA:0,_ZNSt8_Rb_treeIPKN5boost6system14error_categoryESt4pairIKS4_St10unique_ptrINS1_6detail12std_categoryESt14default_deleteIS9_EEESt10_Select1stISD_ENS8_12cat_ptr_lessESaISD_EED2Ev
FN:995,_ZNSt8_Rb_treeIPKN5boost6system14error_categoryESt4pairIKS4_St10unique_ptrINS1_6detail12std_categoryESt14default_deleteIS9_EEESt10_Select1stISD_ENS8_12cat_ptr_lessESaISD_EE5beginEv
FNDA:0,_ZNSt8_Rb_treeIPKN5boost6system14error_categoryESt4pairIKS4_St10unique_ptrINS1_6detail12std_categoryESt14default_deleteIS9_EEESt10_Select1stISD_ENS8_12cat_ptr_lessESaISD_EE5beginEv
FN:1003,_ZNSt8_Rb_treeIPKN5boost6system14error_categoryESt4pairIKS4_St10unique_ptrINS1_6detail12std_categoryESt14default_deleteIS9_EEESt10_Select1stISD_ENS8_12cat_ptr_lessESaISD_EE3endEv
FNDA:0,_ZNSt8_Rb_treeIPKN5boost6system14error_categoryESt4pairIKS4_St10unique_ptrINS1_6detail12std_categoryESt14default_deleteIS9_EEESt10_Select1stISD_ENS8_12cat_ptr_lessESaISD_EE3endEv
FN:1771,_ZNSt8_Rb_treeIPKN5boost6system14error_categoryESt4pairIKS4_St10unique_ptrINS1_6detail12std_categoryESt14default_deleteIS9_EEESt10_Select1stISD_ENS8_12cat_ptr_lessESaISD_EE10_M_insert_ISD_NSI_11_Alloc_nodeEEESt17_Rb_tree_iteratorISD_EPSt18_Rb_tree_node_baseSO_OT_RT0_
FNDA:0,_ZNSt8_Rb_treeIPKN5boost6system14error_categoryESt4pairIKS4_St10unique_ptrINS1_6detail12std_categoryESt14default_deleteIS9_EEESt10_Select1stISD_ENS8_12cat_ptr_lessESaISD_EE10_M_insert_ISD_NSI_11_Alloc_nodeEEESt17_Rb_tree_iteratorISD_EPSt18_Rb_tree_node_baseSO_OT_RT0_
FN:1883,_ZNSt8_Rb_treeIPKN5boost6system14error_categoryESt4pairIKS4_St10unique_ptrINS1_6detail12std_categoryESt14default_deleteIS9_EEESt10_Select1stISD_ENS8_12cat_ptr_lessESaISD_EE8_M_eraseEPSt13_Rb_tree_nodeISD_E
FNDA:0,_ZNSt8_Rb_treeIPKN5boost6system14error_categoryESt4pairIKS4_St10unique_ptrINS1_6detail12std_categoryESt14default_deleteIS9_EEESt10_Select1stISD_ENS8_12cat_ptr_lessESaISD_EE8_M_eraseEPSt13_Rb_tree_nodeISD_E
FN:1900,_ZNSt8_Rb_treeIPKN5boost6system14error_categoryESt4pairIKS4_St10unique_ptrINS1_6detail12std_categoryESt14default_deleteIS9_EEESt10_Select1stISD_ENS8_12cat_ptr_lessESaISD_EE14_M_lower_boundEPSt13_Rb_tree_nodeISD_EPSt18_Rb_tree_node_baseRS6_
FNDA:0,_ZNSt8_Rb_treeIPKN5boost6system14error_categoryESt4pairIKS4_St10unique_ptrINS1_6detail12std_categoryESt14default_deleteIS9_EEESt10_Select1stISD_ENS8_12cat_ptr_lessESaISD_EE14_M_lower_boundEPSt13_Rb_tree_nodeISD_EPSt18_Rb_tree_node_baseRS6_
FN:2061,_ZNSt8_Rb_treeIPKN5boost6system14error_categoryESt4pairIKS4_St10unique_ptrINS1_6detail12std_categoryESt14default_deleteIS9_EEESt10_Select1stISD_ENS8_12cat_ptr_lessESaISD_EE24_M_get_insert_unique_posERS6_
FNDA:0,_ZNSt8_Rb_treeIPKN5boost6system14error_categoryESt4pairIKS4_St10unique_ptrINS1_6detail12std_categoryESt14default_deleteIS9_EEESt10_Select1stISD_ENS8_12cat_ptr_lessESaISD_EE24_M_get_insert_unique_posERS6_
FN:2115,_ZNSt8_Rb_treeIPKN5boost6system14error_categoryESt4pairIKS4_St10unique_ptrINS1_6detail12std_categoryESt14default_deleteIS9_EEESt10_Select1stISD_ENS8_12cat_ptr_lessESaISD_EE16_M_insert_uniqueISD_EES5_ISt17_Rb_tree_iteratorISD_EbEOT_
FNDA:0,_ZNSt8_Rb_treeIPKN5boost6system14error_categoryESt4pairIKS4_St10unique_ptrINS1_6detail12std_categoryESt14default_deleteIS9_EEESt10_Select1stISD_ENS8_12cat_ptr_lessESaISD_EE16_M_insert_uniqueISD_EES5_ISt17_Rb_tree_iteratorISD_EbEOT_
FN:2520,_ZNSt8_Rb_treeIPKN5boost6system14error_categoryESt4pairIKS4_St10unique_ptrINS1_6detail12std_categoryESt14default_deleteIS9_EEESt10_Select1stISD_ENS8_12cat_ptr_lessESaISD_EE4findERS6_
FNDA:0,_ZNSt8_Rb_treeIPKN5boost6system14error_categoryESt4pairIKS4_St10unique_ptrINS1_6detail12std_categoryESt14default_deleteIS9_EEESt10_Select1stISD_ENS8_12cat_ptr_lessESaISD_EE4findERS6_
DA:146,0
DA:150,0
DA:173,0
DA:174,0
DA:175,0
DA:176,0
DA:177,0
DA:206,0
DA:208,0
DA:209,0
DA:210,0
DA:211,0
DA:212,0
DA:234,0
DA:235,0
DA:238,0
DA:239,0
DA:273,0
DA:274,0
DA:281,0
DA:282,0
DA:300,0
DA:302,0
DA:303,0
DA:315,0
DA:316,0
DA:523,0
DA:524,0
DA:528,0
DA:529,0
DA:547,0
DA:548,0
DA:560,0
DA:561,0
DA:564,0
DA:565,0
DA:590,0
DA:594,0
DA:595,0
DA:605,0
DA:609,0
DA:611,0
DA:612,0
DA:613,0
DA:618,0
DA:623,0
DA:624,0
DA:626,0
DA:629,0
DA:631,0
DA:632,0
DA:633,0
DA:667,0
DA:671,0
DA:672,0
DA:734,0
DA:735,0
DA:738,0
DA:739,0
DA:749,0
DA:750,0
DA:757,0
DA:775,0
DA:779,0
DA:780,0
DA:787,0
DA:788,0
DA:795,0
DA:796,0
DA:928,0
DA:983,0
DA:984,0
DA:995,0
DA:996,0
DA:1003,0
DA:1004,0
DA:1771,0
DA:1780,0
DA:1781,0
DA:1782,0
DA:1784,0
DA:1786,0
DA:1787,0
DA:1788,0
DA:1789,0
DA:1883,0
DA:1887,0
DA:1889,0
DA:1890,0
DA:1891,0
DA:1892,0
DA:1894,0
DA:1900,0
DA:1904,0
DA:1905,0
DA:1906,0
DA:1908,0
DA:1909,0
DA:2061,0
DA:2065,0
DA:2066,0
DA:2067,0
DA:2068,0
DA:2070,0
DA:2071,0
DA:2072,0
DA:2074,0
DA:2075,0
DA:2077,0
DA:2078,0
DA:2080,0
DA:2082,0
DA:2083,0
DA:2084,0
DA:2115,0
DA:2124,0
DA:2126,0
DA:2128,0
DA:2129,0
DA:2131,0
DA:2134,0
DA:2520,0
DA:2523,0
DA:2524,0
DA:2525,0
DA:2526,0
end_of_record
SF:/usr/include/c++/11/bits/stl_construct.h
FN:80,_ZSt10destroy_atISt4pairIKPKN5boost6system14error_categoryESt10unique_ptrINS2_6detail12std_categoryESt14default_deleteIS9_EEEEvPT_
FNDA:0,_ZSt10destroy_atISt4pairIKPKN5boost6system14error_categoryESt10unique_ptrINS2_6detail12std_categoryESt14default_deleteIS9_EEEEvPT_
FN:94,_ZSt12construct_atISt4pairIKPKN5boost6system14error_categoryESt10unique_ptrINS2_6detail12std_categoryESt14default_deleteIS9_EEEJSD_EEDTgsnwcvPvLi0E_T_pispcl7declvalIT0_EEEEPSF_DpOSG_
FNDA:0,_ZSt12construct_atISt4pairIKPKN5boost6system14error_categoryESt10unique_ptrINS2_6detail12std_categoryESt14default_deleteIS9_EEEJSD_EEDTgsnwcvPvLi0E_T_pispcl7declvalIT0_EEEEPSF_DpOSG_
DA:80,0
DA:88,0
DA:89,0
DA:94,0
DA:97,0
end_of_record
SF:/usr/include/boost/system/detail/generic_category.hpp
FN:25,_ZN5boost6system6detail17strerror_r_helperEPKcS3_
FNDA:0,_ZN5boost6system6detail17strerror_r_helperEPKcS3_
FN:35,_ZN5boost6system6detail30generic_error_category_messageEiPcm
FNDA:0,_ZN5boost6system6detail30generic_error_category_messageEiPcm
FN:40,_ZN5boost6system6detail30generic_error_category_messageB5cxx11Ei
FNDA:0,_ZN5boost6system6detail30generic_error_category_messageB5cxx11Ei
DA:25,0
DA:27,0
DA:35,0
DA:37,0
DA:40,0
DA:43,0
end_of_record
SF:/usr/include/c++/11/bits/move.h
FN:49,_ZSt11__addressofIKcEPT_RS1_
FNDA:0,_ZSt11__addressofIKcEPT_RS1_
FN:49,_ZSt11__addressofIcEPT_RS0_
FNDA:0,_ZSt11__addressofIcEPT_RS0_
FN:77,_ZSt7forwardIRPSt18_Rb_tree_node_baseEOT_RNSt16remove_referenceIS3_E4typeE
FNDA:0,_ZSt7forwardIRPSt18_Rb_tree_node_baseEOT_RNSt16remove_referenceIS3_E4typeE
FN:77,_ZSt7forwardIRPSt13_Rb_tree_nodeISt4pairIKPKN5boost6system14error_categoryESt10unique_ptrINS3_6detail12std_categoryESt14default_deleteISA_EEEEEOT_RNSt16remove_referenceISI_E4typeE
FNDA:0,_ZSt7forwardIRPSt13_Rb_tree_nodeISt4pairIKPKN5boost6system14error_categoryESt10unique_ptrINS3_6detail12std_categoryESt14default_deleteISA_EEEEEOT_RNSt16remove_referenceISI_E4typeE
FN:77,_ZSt7forwardISt17_Rb_tree_iteratorISt4pairIKPKN5boost6system14error_categoryESt10unique_ptrINS3_6detail12std_categoryESt14default_deleteISA_EEEEEOT_RNSt16remove_referenceISG_E4typeE
FNDA:0,_ZSt7forwardISt17_Rb_tree_iteratorISt4pairIKPKN5boost6system14error_categoryESt10unique_ptrINS3_6detail12std_categoryESt14default_deleteISA_EEEEEOT_RNSt16remove_referenceISG_E4typeE
FN:77,_ZSt7forwardISt4pairIKPKN5boost6system14error_categoryESt10unique_ptrINS2_6detail12std_categoryESt14default_deleteIS9_EEEEOT_RNSt16remove_referenceISE_E4typeE
FNDA:0,_ZSt7forwardISt4pairIKPKN5boost6system14error_categoryESt10unique_ptrINS2_6detail12std_categoryESt14default_deleteIS9_EEEEOT_RNSt16remove_referenceISE_E4typeE
FN:77,_ZSt7forwardISt10unique_ptrIN5boost6system6detail12std_categoryESt14default_deleteIS4_EEEOT_RNSt16remove_referenceIS8_E4typeE
FNDA:0,_ZSt7forwardISt10unique_ptrIN5boost6system6detail12std_categoryESt14default_deleteIS4_EEEOT_RNSt16remove_referenceIS8_E4typeE
FN:77,_ZSt7forwardIPKN5boost6system14error_categoryEEOT_RNSt16remove_referenceIS5_E4typeE
FNDA:0,_ZSt7forwardIPKN5boost6system14error_categoryEEOT_RNSt16remove_referenceIS5_E4typeE
FN:77,_ZSt7forwardIbEOT_RNSt16remove_referenceIS0_E4typeE
FNDA:0,_ZSt7forwardIbEOT_RNSt16remove_referenceIS0_E4typeE
FN:104,_ZSt4moveIRSt5tupleIJPN5boost6system6detail12std_categoryESt14default_deleteIS4_EEEEONSt16remove_referenceIT_E4typeEOSB_
FNDA:0,_ZSt4moveIRSt5tupleIJPN5boost6system6detail12std_categoryESt14default_deleteIS4_EEEEONSt16remove_referenceIT_E4typeEOSB_
FN:104,_ZSt4moveIRSt4pairIKPKN5boost6system14error_categoryESt10unique_ptrINS2_6detail12std_categoryESt14default_deleteIS9_EEEEONSt16remove_referenceIT_E4typeEOSG_
FNDA:0,_ZSt4moveIRSt4pairIKPKN5boost6system14error_categoryESt10unique_ptrINS2_6detail12std_categoryESt14default_deleteIS9_EEEEONSt16remove_referenceIT_E4typeEOSG_
FN:104,_ZSt4moveIRPN5boost6system6detail12std_categoryEEONSt16remove_referenceIT_E4typeEOS7_
FNDA:0,_ZSt4moveIRPN5boost6system6detail12std_categoryEEONSt16remove_referenceIT_E4typeEOS7_
FN:104,_ZSt4moveIRSt10unique_ptrIN5boost6system6detail12std_categoryESt14default_deleteIS4_EEEONSt16remove_referenceIT_E4typeEOSA_
FNDA:0,_ZSt4moveIRSt10unique_ptrIN5boost6system6detail12std_categoryESt14default_deleteIS4_EEEONSt16remove_referenceIT_E4typeEOSA_
FN:145,_ZSt9addressofIKcEPT_RS1_
FNDA:0,_ZSt9addressofIKcEPT_RS1_
FN:145,_ZSt9addressofIcEPT_RS0_
FNDA:0,_ZSt9addressofIcEPT_RS0_
DA:49,0
DA:50,0
DA:49,0
DA:50,0
DA:77,0
DA:78,0
DA:77,0
DA:78,0
DA:77,0
DA:78,0
DA:77,0
DA:78,0
DA:77,0
DA:78,0
DA:77,0
DA:78,0
DA:77,0
DA:78,0
DA:104,0
DA:105,0
DA:104,0
DA:105,0
DA:104,0
DA:105,0
DA:104,0
DA:105,0
DA:145,0
DA:146,0
DA:145,0
DA:146,0
end_of_record
SF:/usr/include/boost/asio/detail/keyword_tss_ptr.hpp
FN:36,_ZN5boost4asio6detail15keyword_tss_ptrINS1_10call_stackINS1_23strand_executor_service11strand_implEhE7contextEEC2Ev
FNDA:0,_ZN5boost4asio6detail15keyword_tss_ptrINS1_10call_stackINS1_23strand_executor_service11strand_implEhE7contextEEC2Ev
FN:36,_ZN5boost4asio6detail15keyword_tss_ptrINS1_10call_stackINS1_14strand_service11strand_implEhE7contextEEC2Ev
FNDA:0,_ZN5boost4asio6detail15keyword_tss_ptrINS1_10call_stackINS1_14strand_service11strand_implEhE7contextEEC2Ev
FN:36,_ZN5boost4asio6detail15keyword_tss_ptrINS1_10call_stackINS1_14thread_contextENS1_16thread_info_baseEE7contextEEC2Ev
FNDA:0,_ZN5boost4asio6detail15keyword_tss_ptrINS1_10call_stackINS1_14thread_contextENS1_16thread_info_baseEE7contextEEC2Ev
FN:41,_ZN5boost4asio6detail15keyword_tss_ptrINS1_10call_stackINS1_23strand_executor_service11strand_implEhE7contextEED2Ev
FNDA:0,_ZN5boost4asio6detail15keyword_tss_ptrINS1_10call_stackINS1_23strand_executor_service11strand_implEhE7contextEED2Ev
FN:41,_ZN5boost4asio6detail15keyword_tss_ptrINS1_10call_stackINS1_14strand_service11strand_implEhE7contextEED2Ev
FNDA:0,_ZN5boost4asio6detail15keyword_tss_ptrINS1_10call_stackINS1_14strand_service11strand_implEhE7contextEED2Ev
FN:41,_ZN5boost4asio6detail15keyword_tss_ptrINS1_10call_stackINS1_14thread_contextENS1_16thread_info_baseEE7contextEED2Ev
FNDA:0,_ZN5boost4asio6detail15keyword_tss_ptrINS1_10call_stackINS1_14thread_contextENS1_16thread_info_baseEE7contextEED2Ev
DA:36,0
DA:37,0
DA:38,0
DA:36,0
DA:37,0
DA:38,0
DA:36,0
DA:37,0
DA:38,0
DA:41,0
DA:43,0
DA:41,0
DA:43,0
DA:41,0
DA:43,0
end_of_record
SF:/usr/include/c++/11/system_error
FN:100,_ZNSt3_V214error_categoryC2Ev
FNDA:0,_ZNSt3_V214error_categoryC2Ev
FN:144,_ZNKSt3_V214error_categoryeqERKS0_
FNDA:0,_ZNKSt3_V214error_categoryeqERKS0_
FN:229,_ZNKSt10error_code5valueEv
FNDA:0,_ZNKSt10error_code5valueEv
FN:232,_ZNKSt10error_code8categoryEv
FNDA:0,_ZNKSt10error_code8categoryEv
FN:303,_ZNSt15error_conditionC2EiRKNSt3_V214error_categoryE
FNDA:0,_ZNSt15error_conditionC2EiRKNSt3_V214error_categoryE
FN:331,_ZNKSt15error_condition5valueEv
FNDA:0,_ZNKSt15error_condition5valueEv
FN:334,_ZNKSt15error_condition8categoryEv
FNDA:0,_ZNKSt15error_condition8categoryEv
FN:376,_ZSteqRKSt15error_conditionS1_
FNDA:0,_ZSteqRKSt15error_conditionS1_
DA:100,0
DA:144,0
DA:145,0
DA:229,0
DA:232,0
DA:303,0
DA:304,0
DA:331,0
DA:334,0
DA:376,0
DA:379,0
DA:380,0
end_of_record
SF:/usr/include/boost/system/detail/system_category_posix.hpp
FN:19,_ZN5boost6system6detail16is_generic_valueEi
FNDA:0,_ZN5boost6system6detail16is_generic_valueEi
FN:116,_ZN5boost6system6detail45system_category_default_error_condition_posixEi
FNDA:0,_ZN5boost6system6detail45system_category_default_error_condition_posixEi
DA:19,0
DA:106,0
DA:108,0
DA:110,0
DA:113,0
DA:116,0
DA:118,0
DA:120,0
DA:124,0
end_of_record
TN:
SF:/usr/include/c++/11/ext/aligned_buffer.h
FN:64,_ZN9__gnu_cxx16__aligned_membufISt4pairIKPKN5boost6system14error_categoryESt10unique_ptrINS3_6detail12std_categoryESt14default_deleteISA_EEEE7_M_addrEv
FNDA:0,_ZN9__gnu_cxx16__aligned_membufISt4pairIKPKN5boost6system14error_categoryESt10unique_ptrINS3_6detail12std_categoryESt14default_deleteISA_EEEE7_M_addrEv
FN:68,_ZNK9__gnu_cxx16__aligned_membufISt4pairIKPKN5boost6system14error_categoryESt10unique_ptrINS3_6detail12std_categoryESt14default_deleteISA_EEEE7_M_addrEv
FNDA:0,_ZNK9__gnu_cxx16__aligned_membufISt4pairIKPKN5boost6system14error_categoryESt10unique_ptrINS3_6detail12std_categoryESt14default_deleteISA_EEEE7_M_addrEv
FN:72,_ZN9__gnu_cxx16__aligned_membufISt4pairIKPKN5boost6system14error_categoryESt10unique_ptrINS3_6detail12std_categoryESt14default_deleteISA_EEEE6_M_ptrEv
FNDA:0,_ZN9__gnu_cxx16__aligned_membufISt4pairIKPKN5boost6system14error_categoryESt10unique_ptrINS3_6detail12std_categoryESt14default_deleteISA_EEEE6_M_ptrEv
FN:76,_ZNK9__gnu_cxx16__aligned_membufISt4pairIKPKN5boost6system14error_categoryESt10unique_ptrINS3_6detail12std_categoryESt14default_deleteISA_EEEE6_M_ptrEv
FNDA:0,_ZNK9__gnu_cxx16__aligned_membufISt4pairIKPKN5boost6system14error_categoryESt10unique_ptrINS3_6detail12std_categoryESt14default_deleteISA_EEEE6_M_ptrEv
DA:64,0
DA:65,0
DA:68,0
DA:69,0
DA:72,0
DA:73,0
DA:76,0
DA:77,0
end_of_record
SF:/usr/include/c++/11/tuple
FN:80,_ZNSt10_Head_baseILm1ESt14default_deleteIN5boost6system6detail12std_categoryEELb1EEC2Ev
FNDA:0,_ZNSt10_Head_baseILm1ESt14default_deleteIN5boost6system6detail12std_categoryEELb1EEC2Ev
FN:124,_ZNSt10_Head_baseILm1ESt14default_deleteIN5boost6system6detail12std_categoryEELb1EE7_M_headERS6_
FNDA:0,_ZNSt10_Head_baseILm1ESt14default_deleteIN5boost6system6detail12std_categoryEELb1EE7_M_headERS6_
FN:189,_ZNSt10_Head_baseILm0EPN5boost6system6detail12std_categoryELb0EEC2Ev
FNDA:0,_ZNSt10_Head_baseILm0EPN5boost6system6detail12std_categoryELb0EEC2Ev
FN:233,_ZNSt10_Head_baseILm0EPN5boost6system6detail12std_categoryELb0EE7_M_headERS5_
FNDA:0,_ZNSt10_Head_baseILm0EPN5boost6system6detail12std_categoryELb0EE7_M_headERS5_
FN:236,_ZNSt10_Head_baseILm0EPN5boost6system6detail12std_categoryELb0EE7_M_headERKS5_
FNDA:0,_ZNSt10_Head_baseILm0EPN5boost6system6detail12std_categoryELb0EE7_M_headERKS5_
FN:268,_ZNSt11_Tuple_implILm0EJPN5boost6system6detail12std_categoryESt14default_deleteIS3_EEE7_M_headERS7_
FNDA:0,_ZNSt11_Tuple_implILm0EJPN5boost6system6detail12std_categoryESt14default_deleteIS3_EEE7_M_headERS7_
FN:271,_ZNSt11_Tuple_implILm0EJPN5boost6system6detail12std_categoryESt14default_deleteIS3_EEE7_M_headERKS7_
FNDA:0,_ZNSt11_Tuple_implILm0EJPN5boost6system6detail12std_categoryESt14default_deleteIS3_EEE7_M_headERKS7_
FN:279,_ZNSt11_Tuple_implILm0EJPN5boost6system6detail12std_categoryESt14default_deleteIS3_EEEC2Ev
FNDA:0,_ZNSt11_Tuple_implILm0EJPN5boost6system6detail12std_categoryESt14default_deleteIS3_EEEC2Ev
FN:301,_ZNSt11_Tuple_implILm0EJPN5boost6system6detail12std_categoryESt14default_deleteIS3_EEEC2EOS7_
FNDA:0,_ZNSt11_Tuple_implILm0EJPN5boost6system6detail12std_categoryESt14default_deleteIS3_EEEC2EOS7_
FN:424,_ZNSt11_Tuple_implILm1EJSt14default_deleteIN5boost6system6detail12std_categoryEEEE7_M_headERS6_
FNDA:0,_ZNSt11_Tuple_implILm1EJSt14default_deleteIN5boost6system6detail12std_categoryEEEE7_M_headERS6_
FN:430,_ZNSt11_Tuple_implILm1EJSt14default_deleteIN5boost6system6detail12std_categoryEEEEC2Ev
FNDA:0,_ZNSt11_Tuple_implILm1EJSt14default_deleteIN5boost6system6detail12std_categoryEEEEC2Ev
FN:454,_ZNSt11_Tuple_implILm1EJSt14default_deleteIN5boost6system6detail12std_categoryEEEEC2EOS6_
FNDA:0,_ZNSt11_Tuple_implILm1EJSt14default_deleteIN5boost6system6detail12std_categoryEEEEC2EOS6_
FN:1049,_ZNSt5tupleIJPN5boost6system6detail12std_categoryESt14default_deleteIS3_EEEC2ILb1ELb1EEEv
FNDA:0,_ZNSt5tupleIJPN5boost6system6detail12std_categoryESt14default_deleteIS3_EEEC2ILb1ELb1EEEv
FN:1090,_ZNSt5tupleIJPN5boost6system6detail12std_categoryESt14default_deleteIS3_EEEC2EOS7_
FNDA:0,_ZNSt5tupleIJPN5boost6system6detail12std_categoryESt14default_deleteIS3_EEEC2EOS7_
FN:1377,_ZSt12__get_helperILm1ESt14default_deleteIN5boost6system6detail12std_categoryEEJEERT0_RSt11_Tuple_implIXT_EJS6_DpT1_EE
FNDA:0,_ZSt12__get_helperILm1ESt14default_deleteIN5boost6system6detail12std_categoryEEJEERT0_RSt11_Tuple_implIXT_EJS6_DpT1_EE
FN:1377,_ZSt12__get_helperILm0EPN5boost6system6detail12std_categoryEJSt14default_deleteIS3_EEERT0_RSt11_Tuple_implIXT_EJS7_DpT1_EE
FNDA:0,_ZSt12__get_helperILm0EPN5boost6system6detail12std_categoryEJSt14default_deleteIS3_EEERT0_RSt11_Tuple_implIXT_EJS7_DpT1_EE
FN:1382,_ZSt12__get_helperILm0EPN5boost6system6detail12std_categoryEJSt14default_deleteIS3_EEERKT0_RKSt11_Tuple_implIXT_EJS7_DpT1_EE
FNDA:0,_ZSt12__get_helperILm0EPN5boost6system6detail12std_categoryEJSt14default_deleteIS3_EEERKT0_RKSt11_Tuple_implIXT_EJS7_DpT1_EE
FN:1393,_ZSt3getILm1EJPN5boost6system6detail12std_categoryESt14default_deleteIS3_EEERNSt13tuple_elementIXT_ESt5tupleIJDpT0_EEE4typeERSB_
FNDA:0,_ZSt3getILm1EJPN5boost6system6detail12std_categoryESt14default_deleteIS3_EEERNSt13tuple_elementIXT_ESt5tupleIJDpT0_EEE4typeERSB_
FN:1393,_ZSt3getILm0EJPN5boost6system6detail12std_categoryESt14default_deleteIS3_EEERNSt13tuple_elementIXT_ESt5tupleIJDpT0_EEE4typeERSB_
FNDA:0,_ZSt3getILm0EJPN5boost6system6detail12std_categoryESt14default_deleteIS3_EEERNSt13tuple_elementIXT_ESt5tupleIJDpT0_EEE4typeERSB_
FN:1399,_ZSt3getILm0EJPN5boost6system6detail12std_categoryESt14default_deleteIS3_EEERKNSt13tuple_elementIXT_ESt5tupleIJDpT0_EEE4typeERKSB_
FNDA:0,_ZSt3getILm0EJPN5boost6system6detail12std_categoryESt14default_deleteIS3_EEERKNSt13tuple_elementIXT_ESt5tupleIJDpT0_EEE4typeERKSB_
DA:80,0
DA:81,0
DA:124,0
DA:189,0
DA:190,0
DA:233,0
DA:236,0
DA:268,0
DA:271,0
DA:279,0
DA:280,0
DA:301,0
DA:424,0
DA:430,0
DA:431,0
DA:454,0
DA:457,0
DA:1049,0
DA:1051,0
DA:1090,0
DA:1377,0
DA:1378,0
DA:1377,0
DA:1378,0
DA:1382,0
DA:1383,0
DA:1393,0
DA:1394,0
DA:1393,0
DA:1394,0
DA:1399,0
DA:1400,0
end_of_record
SF:/usr/include/x86_64-linux-gnu/c++/11/bits/gthr-default.h
FN:300,_ZL18__gthread_active_pv
FNDA:0,_ZL18__gthread_active_pv
FN:746,_ZL20__gthread_mutex_lockP15pthread_mutex_t
FNDA:0,_ZL20__gthread_mutex_lockP15pthread_mutex_t
FN:776,_ZL22__gthread_mutex_unlockP15pthread_mutex_t
FNDA:0,_ZL22__gthread_mutex_unlockP15pthread_mutex_t
DA:300,0
DA:302,0
DA:746,0
DA:748,0
DA:749,0
DA:751,0
DA:776,0
DA:778,0
DA:779,0
DA:781,0
end_of_record
SF:/usr/include/c++/11/bits/stl_vector.h
FN:918,_ZNKSt6vectorISt10shared_ptrI9MediaFileESaIS2_EE4sizeEv
FNDA:65,_ZNKSt6vectorISt10shared_ptrI9MediaFileESaIS2_EE4sizeEv
DA:918,65
DA:919,65
end_of_record
SF:/usr/include/c++/11/bits/cpp_type_traits.h
FN:560,_ZSt12__miter_baseIPKcET_S2_
FNDA:0,_ZSt12__miter_baseIPKcET_S2_
DA:560,0
DA:561,0
end_of_record
SF:/usr/include/c++/11/bits/stl_iterator_base_funcs.h
FN:98,_ZSt10__distanceIPKcENSt15iterator_traitsIT_E15difference_typeES3_S3_St26random_access_iterator_tag
FNDA:0,_ZSt10__distanceIPKcENSt15iterator_traitsIT_E15difference_typeES3_S3_St26random_access_iterator_tag
FN:138,_ZSt8distanceIPKcENSt15iterator_traitsIT_E15difference_typeES3_S3_
FNDA:0,_ZSt8distanceIPKcENSt15iterator_traitsIT_E15difference_typeES3_S3_
DA:98,0
DA:104,0
DA:138,0
DA:141,0
DA:142,0
end_of_record
SF:/usr/include/boost/asio/detail/tss_ptr.hpp
end_of_record
SF:/media/sf_Share_folder/UI/Spotify-rep-1-1/project/include/controller/BaseController.hpp
FN:8,_ZN14BaseControllerD0Ev
FNDA:0,_ZN14BaseControllerD0Ev
FN:8,_ZN14BaseControllerD2Ev
FNDA:0,_ZN14BaseControllerD2Ev
DA:8,0
DA:8,0
end_of_record
SF:/usr/include/boost/asio/detail/call_stack.hpp
end_of_record
SF:/usr/include/c++/11/iostream
end_of_record
SF:/usr/include/c++/11/bits/stl_function.h
FN:447,_ZNKSt4lessIPKcEclES1_S1_
FNDA:0,_ZNKSt4lessIPKcEclES1_S1_
FN:447,_ZNKSt4lessIPKN5boost6system14error_categoryEEclES4_S4_
FNDA:0,_ZNKSt4lessIPKN5boost6system14error_categoryEEclES4_S4_
FN:1170,_ZNKSt10_Select1stISt4pairIKPKN5boost6system14error_categoryESt10unique_ptrINS2_6detail12std_categoryESt14default_deleteIS9_EEEEclERSD_
FNDA:0,_ZNKSt10_Select1stISt4pairIKPKN5boost6system14error_categoryESt10unique_ptrINS2_6detail12std_categoryESt14default_deleteIS9_EEEEclERSD_
FN:1174,_ZNKSt10_Select1stISt4pairIKPKN5boost6system14error_categoryESt10unique_ptrINS2_6detail12std_categoryESt14default_deleteIS9_EEEEclERKSD_
FNDA:0,_ZNKSt10_Select1stISt4pairIKPKN5boost6system14error_categoryESt10unique_ptrINS2_6detail12std_categoryESt14default_deleteIS9_EEEEclERKSD_
DA:447,0
DA:457,0
DA:447,0
DA:457,0
DA:1170,0
DA:1171,0
DA:1174,0
DA:1175,0
end_of_record
SF:/usr/include/c++/11/type_traits
FN:3419,_ZSt21is_constant_evaluatedv
FNDA:0,_ZSt21is_constant_evaluatedv
DA:3419,0
DA:3420,0
end_of_record
SF:/usr/include/boost/asio/impl/error.ipp
FN:35,_ZNK5boost4asio5error6detail14netdb_category4nameEv
FNDA:0,_ZNK5boost4asio5error6detail14netdb_category4nameEv
FN:40,_ZNK5boost4asio5error6detail14netdb_category7messageB5cxx11Ei
FNDA:0,_ZNK5boost4asio5error6detail14netdb_category7messageB5cxx11Ei
FN:56,_ZN5boost4asio5error18get_netdb_categoryEv
FNDA:0,_ZN5boost4asio5error18get_netdb_categoryEv
FN:67,_ZNK5boost4asio5error6detail17addrinfo_category4nameEv
FNDA:0,_ZNK5boost4asio5error6detail17addrinfo_category4nameEv
FN:72,_ZNK5boost4asio5error6detail17addrinfo_category7messageB5cxx11Ei
FNDA:0,_ZNK5boost4asio5error6detail17addrinfo_category7messageB5cxx11Ei
FN:84,_ZN5boost4asio5error21get_addrinfo_categoryEv
FNDA:0,_ZN5boost4asio5error21get_addrinfo_categoryEv
FN:97,_ZNK5boost4asio5error6detail13misc_category4nameEv
FNDA:0,_ZNK5boost4asio5error6detail13misc_category4nameEv
FN:102,_ZNK5boost4asio5error6detail13misc_category7messageB5cxx11Ei
FNDA:0,_ZNK5boost4asio5error6detail13misc_category7messageB5cxx11Ei
FN:118,_ZN5boost4asio5error17get_misc_categoryEv
FNDA:0,_ZN5boost4asio5error17get_misc_categoryEv
DA:35,0
DA:37,0
DA:40,0
DA:42,0
DA:43,0
DA:44,0
DA:45,0
DA:46,0
DA:47,0
DA:48,0
DA:49,0
DA:50,0
DA:56,0
DA:59,0
DA:67,0
DA:69,0
DA:72,0
DA:74,0
DA:75,0
DA:76,0
DA:77,0
DA:78,0
DA:84,0
DA:87,0
DA:97,0
DA:99,0
DA:102,0
DA:104,0
DA:105,0
DA:106,0
DA:107,0
DA:108,0
DA:109,0
DA:110,0
DA:111,0
DA:112,0
DA:118,0
DA:121,0
end_of_record
SF:/usr/include/c++/11/ext/type_traits.h
FN:152,_ZN9__gnu_cxx17__is_null_pointerIKcEEbPT_
FNDA:0,_ZN9__gnu_cxx17__is_null_pointerIKcEEbPT_
DA:152,0
DA:153,0
end_of_record
SF:/usr/include/c++/11/bits/stl_iterator_base_types.h
FN:238,_ZSt19__iterator_categoryIPKcENSt15iterator_traitsIT_E17iterator_categoryERKS3_
FNDA:0,_ZSt19__iterator_categoryIPKcENSt15iterator_traitsIT_E17iterator_categoryERKS3_
DA:238,0
DA:239,0
end_of_record
SF:/usr/include/boost/system/detail/std_interoperability.hpp
FN:34,_ZN5boost6system6detail12std_categoryC2EPKNS0_14error_categoryEj
FNDA:0,_ZN5boost6system6detail12std_categoryC2EPKNS0_14error_categoryEj
FN:50,_ZNK5boost6system6detail12std_category4nameEv
FNDA:0,_ZNK5boost6system6detail12std_category4nameEv
FN:55,_ZNK5boost6system6detail12std_category7messageB5cxx11Ei
FNDA:0,_ZNK5boost6system6detail12std_category7messageB5cxx11Ei
FN:60,_ZNK5boost6system6detail12std_category23default_error_conditionEi
FNDA:0,_ZNK5boost6system6detail12std_category23default_error_conditionEi
FN:75,_ZNK5boost6system6detail12cat_ptr_lessclEPKNS0_14error_categoryES5_
FNDA:0,_ZNK5boost6system6detail12cat_ptr_lessclEPKNS0_14error_categoryES5_
FN:81,_ZN5boost6system6detail15to_std_categoryERKNS0_14error_categoryE
FNDA:0,_ZN5boost6system6detail15to_std_categoryERKNS0_14error_categoryE
FN:117,_ZNK5boost6system6detail12std_category10equivalentEiRKSt15error_condition
FNDA:0,_ZNK5boost6system6detail12std_category10equivalentEiRKSt15error_condition
FN:146,_ZNK5boost6system6detail12std_category10equivalentERKSt10error_codei
FNDA:0,_ZNK5boost6system6detail12std_category10equivalentERKSt10error_codei
DA:34,0
DA:48,0
DA:50,0
DA:52,0
DA:55,0
DA:57,0
DA:60,0
DA:62,0
DA:75,0
DA:77,0
DA:81,0
DA:83,0
DA:85,0
DA:86,0
DA:88,0
DA:90,0
DA:91,0
DA:97,0
DA:100,0
DA:102,0
DA:104,0
DA:106,0
DA:108,0
DA:110,0
DA:111,0
DA:113,0
DA:114,0
DA:117,0
DA:119,0
DA:121,0
DA:122,0
DA:124,0
DA:126,0
DA:127,0
DA:132,0
DA:134,0
DA:135,0
DA:142,0
DA:146,0
DA:148,0
DA:150,0
DA:151,0
DA:153,0
DA:155,0
DA:156,0
DA:161,0
DA:163,0
DA:164,0
DA:168,0
DA:170,0
DA:174,0
end_of_record
SF:/usr/include/boost/asio/error.hpp
FN:228,_ZN5boost4asio5error19get_system_categoryEv
FNDA:0,_ZN5boost4asio5error19get_system_categoryEv
DA:228,0
DA:230,0
end_of_record
SF:/usr/include/c++/11/bits/stl_algobase.h
FN:230,_ZSt3minImERKT_S2_S2_
FNDA:0,_ZSt3minImERKT_S2_S2_
FN:313,_ZSt12__niter_baseIPcET_S1_
FNDA:0,_ZSt12__niter_baseIPcET_S1_
FN:313,_ZSt12__niter_baseIPKcET_S2_
FNDA:0,_ZSt12__niter_baseIPKcET_S2_
FN:335,_ZSt12__niter_wrapIPcET_RKS1_S1_
FNDA:0,_ZSt12__niter_wrapIPcET_RKS1_S1_
FN:380,_ZNSt11__copy_moveILb0ELb0ESt26random_access_iterator_tagE8__copy_mIPKcPcEET0_T_S7_S6_
FNDA:0,_ZNSt11__copy_moveILb0ELb0ESt26random_access_iterator_tagE8__copy_mIPKcPcEET0_T_S7_S6_
FN:420,_ZNSt11__copy_moveILb0ELb1ESt26random_access_iterator_tagE8__copy_mIcEEPT_PKS3_S6_S4_
FNDA:0,_ZNSt11__copy_moveILb0ELb1ESt26random_access_iterator_tagE8__copy_mIcEEPT_PKS3_S6_S4_
FN:486,_ZSt14__copy_move_a2ILb0EPKcPcET1_T0_S4_S3_
FNDA:0,_ZSt14__copy_move_a2ILb0EPKcPcET1_T0_S4_S3_
FN:521,_ZSt14__copy_move_a1ILb0EPKcPcET1_T0_S4_S3_
FNDA:0,_ZSt14__copy_move_a1ILb0EPKcPcET1_T0_S4_S3_
FN:527,_ZSt13__copy_move_aILb0EPKcPcET1_T0_S4_S3_
FNDA:0,_ZSt13__copy_move_aILb0EPKcPcET1_T0_S4_S3_
FN:611,_ZSt4copyIPKcPcET0_T_S4_S3_
FNDA:0,_ZSt4copyIPKcPcET0_T_S4_S3_
DA:230,0
DA:235,0
DA:236,0
DA:237,0
DA:313,0
DA:315,0
DA:313,0
DA:315,0
DA:335,0
DA:336,0
DA:380,0
DA:383,0
DA:385,0
DA:386,0
DA:387,0
DA:389,0
DA:420,0
DA:429,0
DA:430,0
DA:431,0
DA:432,0
DA:486,0
DA:490,0
DA:492,0
DA:495,0
DA:521,0
DA:522,0
DA:527,0
DA:529,0
DA:532,0
DA:611,0
DA:620,0
end_of_record
SF:/usr/include/c++/11/bits/std_function.h
FN:247,_ZNKSt14_Function_base8_M_emptyEv
FNDA:0,_ZNKSt14_Function_base8_M_emptyEv
FN:586,_ZNKSt8functionIFvRKNSt7__cxx1112basic_stringIcSt11char_traitsIcESaIcEEERS5_PFvS7_EEEclES7_S8_SA_
FNDA:0,_ZNKSt8functionIFvRKNSt7__cxx1112basic_stringIcSt11char_traitsIcESaIcEEERS5_PFvS7_EEEclES7_S8_SA_
DA:247,0
DA:586,0
DA:588,0
DA:589,0
DA:590,0
end_of_record
SF:/usr/include/boost/asio/execution_context.hpp
FN:312,_ZN5boost4asio17execution_context2idC2Ev
FNDA:0,_ZN5boost4asio17execution_context2idC2Ev
DA:312,0
end_of_record
SF:/usr/include/c++/11/bits/char_traits.h
FN:106,_ZN9__gnu_cxx11char_traitsIcE2eqERKcS3_
FNDA:0,_ZN9__gnu_cxx11char_traitsIcE2eqERKcS3_
FN:167,_ZN9__gnu_cxx11char_traitsIcE6lengthEPKc
FNDA:0,_ZN9__gnu_cxx11char_traitsIcE6lengthEPKc
FN:190,_ZN9__gnu_cxx11char_traitsIcE4moveEPcPKcm
FNDA:0,_ZN9__gnu_cxx11char_traitsIcE4moveEPcPKcm
FN:240,_ZN9__gnu_cxx11char_traitsIcE4copyEPcPKcm
FNDA:0,_ZN9__gnu_cxx11char_traitsIcE4copyEPcPKcm
FN:356,_ZNSt11char_traitsIcE6assignERcRKc
FNDA:0,_ZNSt11char_traitsIcE6assignERcRKc
FN:393,_ZNSt11char_traitsIcE6lengthEPKc
FNDA:0,_ZNSt11char_traitsIcE6lengthEPKc
FN:417,_ZNSt11char_traitsIcE4moveEPcPKcm
FNDA:0,_ZNSt11char_traitsIcE4moveEPcPKcm
FN:429,_ZNSt11char_traitsIcE4copyEPcPKcm
FNDA:0,_ZNSt11char_traitsIcE4copyEPcPKcm
DA:106,0
DA:107,0
DA:167,0
DA:170,0
DA:171,0
DA:172,0
DA:173,0
DA:190,0
DA:193,0
DA:194,0
DA:196,0
DA:198,0
DA:199,0
DA:203,0
DA:204,0
DA:205,0
DA:206,0
DA:230,0
DA:233,0
DA:234,0
DA:240,0
DA:244,0
DA:245,0
DA:290,0
DA:356,0
DA:357,0
DA:393,0
DA:396,0
DA:397,0
DA:399,0
DA:417,0
DA:419,0
DA:420,0
DA:422,0
DA:423,0
DA:425,0
DA:429,0
DA:431,0
DA:432,0
DA:434,0
DA:435,0
DA:437,0
end_of_record
SF:/usr/include/c++/11/bits/allocator.h
FN:156,_ZNSaISt13_Rb_tree_nodeISt4pairIKPKN5boost6system14error_categoryESt10unique_ptrINS2_6detail12std_categoryESt14default_deleteIS9_EEEEEC2Ev
FNDA:0,_ZNSaISt13_Rb_tree_nodeISt4pairIKPKN5boost6system14error_categoryESt10unique_ptrINS2_6detail12std_categoryESt14default_deleteIS9_EEEEEC2Ev
FN:174,_ZNSaISt13_Rb_tree_nodeISt4pairIKPKN5boost6system14error_categoryESt10unique_ptrINS2_6detail12std_categoryESt14default_deleteIS9_EEEEED2Ev
FNDA:0,_ZNSaISt13_Rb_tree_nodeISt4pairIKPKN5boost6system14error_categoryESt10unique_ptrINS2_6detail12std_categoryESt14default_deleteIS9_EEEEED2Ev
DA:156,0
DA:174,0
DA:182,0
DA:183,0
DA:185,0
DA:193,0
DA:195,0
DA:196,0
DA:199,0
end_of_record
SF:/usr/include/c++/11/bits/unique_ptr.h
FN:79,_ZNKSt14default_deleteIN5boost6system6detail12std_categoryEEclEPS3_
FNDA:0,_ZNKSt14default_deleteIN5boost6system6detail12std_categoryEEclEPS3_
FN:155,_ZNSt15__uniq_ptr_implIN5boost6system6detail12std_categoryESt14default_deleteIS3_EEC2EPS3_
FNDA:0,_ZNSt15__uniq_ptr_implIN5boost6system6detail12std_categoryESt14default_deleteIS3_EEC2EPS3_
FN:161,_ZNSt15__uniq_ptr_implIN5boost6system6detail12std_categoryESt14default_deleteIS3_EEC2EOS6_
FNDA:0,_ZNSt15__uniq_ptr_implIN5boost6system6detail12std_categoryESt14default_deleteIS3_EEC2EOS6_
FN:172,_ZNSt15__uniq_ptr_implIN5boost6system6detail12std_categoryESt14default_deleteIS3_EE6_M_ptrEv
FNDA:0,_ZNSt15__uniq_ptr_implIN5boost6system6detail12std_categoryESt14default_deleteIS3_EE6_M_ptrEv
FN:173,_ZNKSt15__uniq_ptr_implIN5boost6system6detail12std_categoryESt14default_deleteIS3_EE6_M_ptrEv
FNDA:0,_ZNKSt15__uniq_ptr_implIN5boost6system6detail12std_categoryESt14default_deleteIS3_EE6_M_ptrEv
FN:174,_ZNSt15__uniq_ptr_implIN5boost6system6detail12std_categoryESt14default_deleteIS3_EE10_M_deleterEv
FNDA:0,_ZNSt15__uniq_ptr_implIN5boost6system6detail12std_categoryESt14default_deleteIS3_EE10_M_deleterEv
FN:211,_ZNSt15__uniq_ptr_dataIN5boost6system6detail12std_categoryESt14default_deleteIS3_ELb1ELb1EEC2EOS6_
FNDA:0,_ZNSt15__uniq_ptr_dataIN5boost6system6detail12std_categoryESt14default_deleteIS3_ELb1ELb1EEC2EOS6_
FN:281,_ZNSt10unique_ptrIN5boost6system6detail12std_categoryESt14default_deleteIS3_EEC2IS5_vEEPS3_
FNDA:0,_ZNSt10unique_ptrIN5boost6system6detail12std_categoryESt14default_deleteIS3_EEC2IS5_vEEPS3_
FN:327,_ZNSt10unique_ptrIN5boost6system6detail12std_categoryESt14default_deleteIS3_EEC2EOS6_
FNDA:0,_ZNSt10unique_ptrIN5boost6system6detail12std_categoryESt14default_deleteIS3_EEC2EOS6_
FN:355,_ZNSt10unique_ptrIN5boost6system6detail12std_categoryESt14default_deleteIS3_EED2Ev
FNDA:0,_ZNSt10unique_ptrIN5boost6system6detail12std_categoryESt14default_deleteIS3_EED2Ev
FN:405,_ZNKSt10unique_ptrIN5boost6system6detail12std_categoryESt14default_deleteIS3_EEdeEv
FNDA:0,_ZNKSt10unique_ptrIN5boost6system6detail12std_categoryESt14default_deleteIS3_EEdeEv
FN:421,_ZNKSt10unique_ptrIN5boost6system6detail12std_categoryESt14default_deleteIS3_EE3getEv
FNDA:0,_ZNKSt10unique_ptrIN5boost6system6detail12std_categoryESt14default_deleteIS3_EE3getEv
FN:426,_ZNSt10unique_ptrIN5boost6system6detail12std_categoryESt14default_deleteIS3_EE11get_deleterEv
FNDA:0,_ZNSt10unique_ptrIN5boost6system6detail12std_categoryESt14default_deleteIS3_EE11get_deleterEv
DA:79,0
DA:85,0
DA:86,0
DA:155,0
DA:161,0
DA:162,0
DA:163,0
DA:172,0
DA:173,0
DA:174,0
DA:211,0
DA:281,0
DA:282,0
DA:283,0
DA:327,0
DA:355,0
DA:359,0
DA:360,0
DA:361,0
DA:362,0
DA:363,0
DA:405,0
DA:407,0
DA:408,0
DA:421,0
DA:422,0
DA:426,0
DA:427,0
end_of_record
SF:/usr/include/c++/11/bits/basic_string.tcc
FN:132,_ZNSt7__cxx1112basic_stringIcSt11char_traitsIcESaIcEE9_M_createERmm
FNDA:0,_ZNSt7__cxx1112basic_stringIcSt11char_traitsIcESaIcEE9_M_createERmm
FN:206,_ZNSt7__cxx1112basic_stringIcSt11char_traitsIcESaIcEE12_M_constructIPKcEEvT_S8_St20forward_iterator_tag
FNDA:0,_ZNSt7__cxx1112basic_stringIcSt11char_traitsIcESaIcEE12_M_constructIPKcEEvT_S8_St20forward_iterator_tag
FN:300,_ZNSt7__cxx1112basic_stringIcSt11char_traitsIcESaIcEE9_M_mutateEmmPKcm
FNDA:0,_ZNSt7__cxx1112basic_stringIcSt11char_traitsIcESaIcEE9_M_mutateEmmPKcm
FN:384,_ZNSt7__cxx1112basic_stringIcSt11char_traitsIcESaIcEE9_M_appendEPKcm
FNDA:0,_ZNSt7__cxx1112basic_stringIcSt11char_traitsIcESaIcEE9_M_appendEPKcm
FN:448,_ZNSt7__cxx1112basic_stringIcSt11char_traitsIcESaIcEE10_M_replaceEmmPKcm
FNDA:0,_ZNSt7__cxx1112basic_stringIcSt11char_traitsIcESaIcEE10_M_replaceEmmPKcm
DA:132,0
DA:137,0
DA:138,0
DA:143,0
DA:145,0
DA:147,0
DA:148,0
DA:153,0
DA:206,0
DA:211,0
DA:212,0
DA:215,0
DA:217,0
DA:219,0
DA:220,0
DA:225,0
DA:232,0
DA:233,0
DA:300,0
DA:304,0
DA:306,0
DA:307,0
DA:309,0
DA:310,0
DA:311,0
DA:312,0
DA:313,0
DA:314,0
DA:315,0
DA:317,0
DA:318,0
DA:319,0
DA:320,0
DA:384,0
DA:387,0
DA:389,0
DA:391,0
DA:392,0
DA:395,0
DA:397,0
DA:398,0
DA:448,0
DA:452,0
DA:454,0
DA:455,0
DA:457,0
DA:459,0
DA:461,0
DA:462,0
DA:464,0
DA:465,0
DA:466,0
DA:467,0
DA:472,0
DA:473,0
DA:474,0
DA:475,0
DA:476,0
DA:478,0
DA:479,0
DA:480,0
DA:484,0
DA:485,0
DA:489,0
DA:490,0
DA:491,0
DA:498,0
DA:500,0
DA:501,0
end_of_record
SF:/usr/include/c++/11/bits/std_mutex.h
FN:98,_ZNSt5mutex4lockEv
FNDA:0,_ZNSt5mutex4lockEv
FN:115,_ZNSt5mutex6unlockEv
FNDA:0,_ZNSt5mutex6unlockEv
FN:228,_ZNSt10lock_guardISt5mutexEC2ERS0_
FNDA:0,_ZNSt10lock_guardISt5mutexEC2ERS0_
FN:234,_ZNSt10lock_guardISt5mutexED2Ev
FNDA:0,_ZNSt10lock_guardISt5mutexED2Ev
DA:98,0
DA:100,0
DA:103,0
DA:104,0
DA:105,0
DA:115,0
DA:118,0
DA:119,0
DA:228,0
DA:229,0
DA:234,0
DA:235,0
end_of_record
SF:/usr/include/c++/11/bits/ptr_traits.h
FN:149,_ZNSt14pointer_traitsIPKcE10pointer_toERS0_
FNDA:0,_ZNSt14pointer_traitsIPKcE10pointer_toERS0_
FN:149,_ZNSt14pointer_traitsIPcE10pointer_toERc
FNDA:0,_ZNSt14pointer_traitsIPcE10pointer_toERc
DA:149,0
DA:150,0
DA:149,0
DA:150,0
end_of_record
SF:/usr/include/c++/11/new
FN:174,_ZnwmPv
FNDA:0,_ZnwmPv
DA:174,0
DA:175,0
end_of_record
SF:/usr/include/boost/system/system_error.hpp
FN:47,_ZN5boost6system12system_errorD0Ev
FNDA:0,_ZN5boost6system12system_errorD0Ev
FN:47,_ZN5boost6system12system_errorD2Ev
FNDA:0,_ZN5boost6system12system_errorD2Ev
FN:59,_ZNK5boost6system12system_error4whatEv
FNDA:0,_ZNK5boost6system12system_error4whatEv
DA:47,0
DA:47,0
DA:59,0
DA:62,0
DA:68,0
DA:69,0
DA:70,0
DA:73,0
DA:76,0
end_of_record
SF:/usr/include/c++/11/bits/alloc_traits.h
FN:463,_ZNSt16allocator_traitsISaISt13_Rb_tree_nodeISt4pairIKPKN5boost6system14error_categoryESt10unique_ptrINS3_6detail12std_categoryESt14default_deleteISA_EEEEEE8allocateERSG_m
FNDA:0,_ZNSt16allocator_traitsISaISt13_Rb_tree_nodeISt4pairIKPKN5boost6system14error_categoryESt10unique_ptrINS3_6detail12std_categoryESt14default_deleteISA_EEEEEE8allocateERSG_m
FN:463,_ZNSt16allocator_traitsISaIcEE8allocateERS0_m
FNDA:0,_ZNSt16allocator_traitsISaIcEE8allocateERS0_m
FN:495,_ZNSt16allocator_traitsISaISt13_Rb_tree_nodeISt4pairIKPKN5boost6system14error_categoryESt10unique_ptrINS3_6detail12std_categoryESt14default_deleteISA_EEEEEE10deallocateERSG_PSF_m
FNDA:0,_ZNSt16allocator_traitsISaISt13_Rb_tree_nodeISt4pairIKPKN5boost6system14error_categoryESt10unique_ptrINS3_6detail12std_categoryESt14default_deleteISA_EEEEEE10deallocateERSG_PSF_m
FN:495,_ZNSt16allocator_traitsISaIcEE10deallocateERS0_Pcm
FNDA:0,_ZNSt16allocator_traitsISaIcEE10deallocateERS0_Pcm
FN:511,_ZNSt16allocator_traitsISaISt13_Rb_tree_nodeISt4pairIKPKN5boost6system14error_categoryESt10unique_ptrINS3_6detail12std_categoryESt14default_deleteISA_EEEEEE9constructISE_JSE_EEEvRSG_PT_DpOT0_
FNDA:0,_ZNSt16allocator_traitsISaISt13_Rb_tree_nodeISt4pairIKPKN5boost6system14error_categoryESt10unique_ptrINS3_6detail12std_categoryESt14default_deleteISA_EEEEEE9constructISE_JSE_EEEvRSG_PT_DpOT0_
FN:531,_ZNSt16allocator_traitsISaISt13_Rb_tree_nodeISt4pairIKPKN5boost6system14error_categoryESt10unique_ptrINS3_6detail12std_categoryESt14default_deleteISA_EEEEEE7destroyISE_EEvRSG_PT_
FNDA:0,_ZNSt16allocator_traitsISaISt13_Rb_tree_nodeISt4pairIKPKN5boost6system14error_categoryESt10unique_ptrINS3_6detail12std_categoryESt14default_deleteISA_EEEEEE7destroyISE_EEvRSG_PT_
FN:547,_ZNSt16allocator_traitsISaIcEE8max_sizeERKS0_
FNDA:0,_ZNSt16allocator_traitsISaIcEE8max_sizeERKS0_
DA:463,0
DA:464,0
DA:463,0
DA:464,0
DA:495,0
DA:496,0
DA:495,0
DA:496,0
DA:511,0
DA:518,0
DA:520,0
DA:531,0
DA:537,0
DA:539,0
DA:547,0
DA:552,0
end_of_record
SF:/media/sf_Share_folder/UI/Spotify-rep-1-1/project/src/controller/MediaFileController.cpp
FN:6,_ZN19MediaFileController11handleInputEv
FNDA:7,_ZN19MediaFileController11handleInputEv
FN:75,_ZN19MediaFileController4backEv
FNDA:2,_ZN19MediaFileController4backEv
FN:80,_ZN19MediaFileController31displayMediaFilesWithPaginationERKSt6vectorISt10shared_ptrI9MediaFileESaIS3_EEm
FNDA:15,_ZN19MediaFileController31displayMediaFilesWithPaginationERKSt6vectorISt10shared_ptrI9MediaFileESaIS3_EEm
DA:6,7
DA:7,7
DA:8,7
DA:9,7
DA:12,10
DA:13,10
DA:14,10
DA:15,10
DA:17,10
DA:19,1
DA:20,1
DA:21,1
DA:23,2
DA:24,2
DA:25,2
DA:26,2
DA:27,2
DA:28,2
DA:29,2
DA:31,1
DA:32,1
DA:35,1
DA:37,2
DA:38,2
DA:40,2
DA:41,2
DA:42,2
DA:43,2
DA:44,2
DA:46,1
DA:49,1
DA:51,2
DA:52,2
DA:53,3
DA:54,3
DA:55,2
DA:58,1
DA:60,3
DA:62,2
DA:63,2
DA:64,1
DA:67,1
DA:69,2
DA:72,10
DA:73,7
DA:75,2
DA:76,2
DA:77,2
DA:80,15
DA:81,15
DA:82,15
DA:83,15
DA:84,15
DA:86,15
end_of_record
SF:/usr/include/boost/asio/detail/noncopyable.hpp
FN:29,_ZN5boost4asio6detail11noncopyableC2Ev
FNDA:0,_ZN5boost4asio6detail11noncopyableC2Ev
FN:30,_ZN5boost4asio6detail11noncopyableD2Ev
FNDA:0,_ZN5boost4asio6detail11noncopyableD2Ev
DA:29,0
DA:30,0
end_of_record
SF:/usr/include/c++/11/bits/stl_pair.h
FN:315,_ZNSt4pairIKPKN5boost6system14error_categoryESt10unique_ptrINS1_6detail12std_categoryESt14default_deleteIS8_EEEC2EOSC_
FNDA:0,_ZNSt4pairIKPKN5boost6system14error_categoryESt10unique_ptrINS1_6detail12std_categoryESt14default_deleteIS8_EEEC2EOSC_
FN:322,_ZNSt4pairIPSt18_Rb_tree_node_baseS1_EC2IRS1_Lb1EEEOT_RKS1_
FNDA:0,_ZNSt4pairIPSt18_Rb_tree_node_baseS1_EC2IRS1_Lb1EEEOT_RKS1_
FN:352,_ZNSt4pairIPSt18_Rb_tree_node_baseS1_EC2IRPSt13_Rb_tree_nodeIS_IKPKN5boost6system14error_categoryESt10unique_ptrINS6_6detail12std_categoryESt14default_deleteISD_EEEERS1_Lb1EEEOT_OT0_
FNDA:0,_ZNSt4pairIPSt18_Rb_tree_node_baseS1_EC2IRPSt13_Rb_tree_nodeIS_IKPKN5boost6system14error_categoryESt10unique_ptrINS6_6detail12std_categoryESt14default_deleteISD_EEEERS1_Lb1EEEOT_OT0_
FN:352,_ZNSt4pairISt17_Rb_tree_iteratorIS_IKPKN5boost6system14error_categoryESt10unique_ptrINS2_6detail12std_categoryESt14default_deleteIS9_EEEEbEC2ISE_bLb1EEEOT_OT0_
FNDA:0,_ZNSt4pairISt17_Rb_tree_iteratorIS_IKPKN5boost6system14error_categoryESt10unique_ptrINS2_6detail12std_categoryESt14default_deleteIS9_EEEEbEC2ISE_bLb1EEEOT_OT0_
FN:352,_ZNSt4pairIKPKN5boost6system14error_categoryESt10unique_ptrINS1_6detail12std_categoryESt14default_deleteIS8_EEEC2IS4_SB_Lb1EEEOT_OT0_
FNDA:0,_ZNSt4pairIKPKN5boost6system14error_categoryESt10unique_ptrINS1_6detail12std_categoryESt14default_deleteIS8_EEEC2IS4_SB_Lb1EEEOT_OT0_
DA:315,0
DA:322,0
DA:323,0
DA:352,0
DA:353,0
DA:352,0
DA:353,0
DA:352,0
DA:353,0
end_of_record
SF:/usr/include/boost/system/error_code.hpp
FN:233,_ZNK5boost6system14error_categoryeqERKS1_
FNDA:0,_ZNK5boost6system14error_categoryeqERKS1_
FN:243,_ZNK5boost6system14error_categoryltERKS1_
FNDA:0,_ZNK5boost6system14error_categoryltERKS1_
FN:290,_ZNK5boost6system6detail22generic_error_category4nameEv
FNDA:0,_ZNK5boost6system6detail22generic_error_category4nameEv
FN:308,_ZNK5boost6system6detail21system_error_category4nameEv
FNDA:0,_ZNK5boost6system6detail21system_error_category4nameEv
FN:346,_ZN5boost6system15system_categoryEv
FNDA:0,_ZN5boost6system15system_categoryEv
FN:351,_ZN5boost6system16generic_categoryEv
FNDA:0,_ZN5boost6system16generic_categoryEv
FN:415,_ZN5boost6system6detail11failed_implEiRKNS0_14error_categoryE
FNDA:0,_ZN5boost6system6detail11failed_implEiRKNS0_14error_categoryE
FN:452,_ZN5boost6system15error_conditionC2EiRKNS0_14error_categoryE
FNDA:0,_ZN5boost6system15error_conditionC2EiRKNS0_14error_categoryE
FN:489,_ZNK5boost6system15error_condition5valueEv
FNDA:0,_ZNK5boost6system15error_condition5valueEv
FN:494,_ZNK5boost6system15error_condition8categoryEv
FNDA:0,_ZNK5boost6system15error_condition8categoryEv
FN:542,_ZN5boost6systemeqERKNS0_15error_conditionES3_
FNDA:0,_ZN5boost6systemeqERKNS0_15error_conditionES3_
FN:554,_ZNK5boost6system15error_conditioncvSt15error_conditionEv
FNDA:0,_ZNK5boost6system15error_conditioncvSt15error_conditionEv
FN:588,_ZN5boost6system10error_codeC2EiRKNS0_14error_categoryE
FNDA:0,_ZN5boost6system10error_codeC2EiRKNS0_14error_categoryE
FN:625,_ZNK5boost6system10error_code5valueEv
FNDA:0,_ZNK5boost6system10error_code5valueEv
FN:630,_ZNK5boost6system10error_code8categoryEv
FNDA:0,_ZNK5boost6system10error_code8categoryEv
FN:640,_ZNK5boost6system10error_code7messageB5cxx11Ev
FNDA:0,_ZNK5boost6system10error_code7messageB5cxx11Ev
FN:831,_ZNK5boost6system14error_category23default_error_conditionEi
FNDA:0,_ZNK5boost6system14error_category23default_error_conditionEi
FN:836,_ZNK5boost6system14error_category10equivalentEiRKNS0_15error_conditionE
FNDA:0,_ZNK5boost6system14error_category10equivalentEiRKNS0_15error_conditionE
FN:841,_ZNK5boost6system14error_category10equivalentERKNS0_10error_codeEi
FNDA:0,_ZNK5boost6system14error_category10equivalentERKNS0_10error_codeEi
FN:846,_ZNK5boost6system14error_category7messageEiPcm
FNDA:0,_ZNK5boost6system14error_category7messageEiPcm
FN:894,_ZNK5boost6system14error_category6failedEi
FNDA:0,_ZNK5boost6system14error_category6failedEi
FN:907,_ZNK5boost6system6detail22generic_error_category7messageB5cxx11Ei
FNDA:0,_ZNK5boost6system6detail22generic_error_category7messageB5cxx11Ei
FN:912,_ZNK5boost6system6detail22generic_error_category7messageEiPcm
FNDA:0,_ZNK5boost6system6detail22generic_error_category7messageEiPcm
FN:942,_ZNK5boost6system6detail21system_error_category23default_error_conditionEi
FNDA:0,_ZNK5boost6system6detail21system_error_category23default_error_conditionEi
FN:947,_ZNK5boost6system6detail21system_error_category7messageB5cxx11Ei
FNDA:0,_ZNK5boost6system6detail21system_error_category7messageB5cxx11Ei
FN:952,_ZNK5boost6system6detail21system_error_category7messageEiPcm
FNDA:0,_ZNK5boost6system6detail21system_error_category7messageEiPcm
FN:965,_ZNK5boost6system14error_categorycvRKNSt3_V214error_categoryEEv
FNDA:0,_ZNK5boost6system14error_categorycvRKNSt3_V214error_categoryEEv
DA:233,0
DA:235,0
DA:243,0
DA:245,0
DA:247,0
DA:250,0
DA:252,0
DA:255,0
DA:257,0
DA:260,0
DA:290,0
DA:292,0
DA:308,0
DA:310,0
DA:346,0
DA:348,0
DA:351,0
DA:353,0
DA:415,0
DA:417,0
DA:419,0
DA:423,0
DA:452,0
DA:453,0
DA:455,0
DA:489,0
DA:491,0
DA:494,0
DA:496,0
DA:542,0
DA:544,0
DA:554,0
DA:556,0
DA:588,0
DA:589,0
DA:591,0
DA:625,0
DA:627,0
DA:630,0
DA:632,0
DA:640,0
DA:642,0
DA:831,0
DA:833,0
DA:836,0
DA:838,0
DA:841,0
DA:843,0
DA:846,0
DA:848,0
DA:850,0
DA:853,0
DA:855,0
DA:856,0
DA:863,0
DA:875,0
DA:876,0
DA:884,0
DA:885,0
DA:887,0
DA:889,0
DA:890,0
DA:894,0
DA:896,0
DA:907,0
DA:909,0
DA:912,0
DA:914,0
DA:942,0
DA:944,0
DA:947,0
DA:949,0
DA:952,0
DA:954,0
DA:965,0
DA:967,0
end_of_record
SF:/media/sf_Share_folder/UI/Spotify-rep-1-1/project/include/controller/MediaFileController.hpp
end_of_record
SF:/usr/include/c++/11/ext/new_allocator.h
FN:79,_ZN9__gnu_cxx13new_allocatorISt13_Rb_tree_nodeISt4pairIKPKN5boost6system14error_categoryESt10unique_ptrINS4_6detail12std_categoryESt14default_deleteISB_EEEEEC2Ev
FNDA:0,_ZN9__gnu_cxx13new_allocatorISt13_Rb_tree_nodeISt4pairIKPKN5boost6system14error_categoryESt10unique_ptrINS4_6detail12std_categoryESt14default_deleteISB_EEEEEC2Ev
FN:79,_ZN9__gnu_cxx13new_allocatorIcEC2Ev
FNDA:0,_ZN9__gnu_cxx13new_allocatorIcEC2Ev
FN:103,_ZN9__gnu_cxx13new_allocatorISt13_Rb_tree_nodeISt4pairIKPKN5boost6system14error_categoryESt10unique_ptrINS4_6detail12std_categoryESt14default_deleteISB_EEEEE8allocateEmPKv
FNDA:0,_ZN9__gnu_cxx13new_allocatorISt13_Rb_tree_nodeISt4pairIKPKN5boost6system14error_categoryESt10unique_ptrINS4_6detail12std_categoryESt14default_deleteISB_EEEEE8allocateEmPKv
FN:103,_ZN9__gnu_cxx13new_allocatorIcE8allocateEmPKv
FNDA:0,_ZN9__gnu_cxx13new_allocatorIcE8allocateEmPKv
FN:132,_ZN9__gnu_cxx13new_allocatorISt13_Rb_tree_nodeISt4pairIKPKN5boost6system14error_categoryESt10unique_ptrINS4_6detail12std_categoryESt14default_deleteISB_EEEEE10deallocateEPSG_m
FNDA:0,_ZN9__gnu_cxx13new_allocatorISt13_Rb_tree_nodeISt4pairIKPKN5boost6system14error_categoryESt10unique_ptrINS4_6detail12std_categoryESt14default_deleteISB_EEEEE10deallocateEPSG_m
FN:132,_ZN9__gnu_cxx13new_allocatorIcE10deallocateEPcm
FNDA:0,_ZN9__gnu_cxx13new_allocatorIcE10deallocateEPcm
FN:197,_ZNK9__gnu_cxx13new_allocatorISt13_Rb_tree_nodeISt4pairIKPKN5boost6system14error_categoryESt10unique_ptrINS4_6detail12std_categoryESt14default_deleteISB_EEEEE11_M_max_sizeEv
FNDA:0,_ZNK9__gnu_cxx13new_allocatorISt13_Rb_tree_nodeISt4pairIKPKN5boost6system14error_categoryESt10unique_ptrINS4_6detail12std_categoryESt14default_deleteISB_EEEEE11_M_max_sizeEv
FN:197,_ZNK9__gnu_cxx13new_allocatorIcE11_M_max_sizeEv
FNDA:0,_ZNK9__gnu_cxx13new_allocatorIcE11_M_max_sizeEv
DA:79,0
DA:79,0
DA:103,0
DA:111,0
DA:115,0
DA:116,0
DA:117,0
DA:127,0
DA:103,0
DA:111,0
DA:117,0
DA:127,0
DA:132,0
DA:145,0
DA:132,0
DA:145,0
DA:197,0
DA:200,0
DA:197,0
DA:200,0
end_of_record
SF:/usr/include/c++/11/bits/stl_map.h
FN:185,_ZNSt3mapIPKN5boost6system14error_categoryESt10unique_ptrINS1_6detail12std_categoryESt14default_deleteIS7_EENS6_12cat_ptr_lessESaISt4pairIKS4_SA_EEEC2Ev
FNDA:0,_ZNSt3mapIPKN5boost6system14error_categoryESt10unique_ptrINS1_6detail12std_categoryESt14default_deleteIS7_EENS6_12cat_ptr_lessESaISt4pairIKS4_SA_EEEC2Ev
FN:302,_ZNSt3mapIPKN5boost6system14error_categoryESt10unique_ptrINS1_6detail12std_categoryESt14default_deleteIS7_EENS6_12cat_ptr_lessESaISt4pairIKS4_SA_EEED2Ev
FNDA:0,_ZNSt3mapIPKN5boost6system14error_categoryESt10unique_ptrINS1_6detail12std_categoryESt14default_deleteIS7_EENS6_12cat_ptr_lessESaISt4pairIKS4_SA_EEED2Ev
FN:374,_ZNSt3mapIPKN5boost6system14error_categoryESt10unique_ptrINS1_6detail12std_categoryESt14default_deleteIS7_EENS6_12cat_ptr_lessESaISt4pairIKS4_SA_EEE3endEv
FNDA:0,_ZNSt3mapIPKN5boost6system14error_categoryESt10unique_ptrINS1_6detail12std_categoryESt14default_deleteIS7_EENS6_12cat_ptr_lessESaISt4pairIKS4_SA_EEE3endEv
FN:810,_ZNSt3mapIPKN5boost6system14error_categoryESt10unique_ptrINS1_6detail12std_categoryESt14default_deleteIS7_EENS6_12cat_ptr_lessESaISt4pairIKS4_SA_EEE6insertEOSE_
FNDA:0,_ZNSt3mapIPKN5boost6system14error_categoryESt10unique_ptrINS1_6detail12std_categoryESt14default_deleteIS7_EENS6_12cat_ptr_lessESaISt4pairIKS4_SA_EEE6insertEOSE_
FN:1169,_ZNSt3mapIPKN5boost6system14error_categoryESt10unique_ptrINS1_6detail12std_categoryESt14default_deleteIS7_EENS6_12cat_ptr_lessESaISt4pairIKS4_SA_EEE4findERSD_
FNDA:0,_ZNSt3mapIPKN5boost6system14error_categoryESt10unique_ptrINS1_6detail12std_categoryESt14default_deleteIS7_EENS6_12cat_ptr_lessESaISt4pairIKS4_SA_EEE4findERSD_
DA:185,0
DA:302,0
DA:374,0
DA:375,0
DA:810,0
DA:811,0
DA:1169,0
DA:1170,0
end_of_record
SF:/usr/include/boost/asio/io_context.hpp
end_of_record
SF:/usr/include/c++/11/system_error
FN:100,_ZNSt3_V214error_categoryC2Ev
FNDA:0,_ZNSt3_V214error_categoryC2Ev
FN:144,_ZNKSt3_V214error_categoryeqERKS0_
FNDA:0,_ZNKSt3_V214error_categoryeqERKS0_
FN:229,_ZNKSt10error_code5valueEv
FNDA:0,_ZNKSt10error_code5valueEv
FN:232,_ZNKSt10error_code8categoryEv
FNDA:0,_ZNKSt10error_code8categoryEv
FN:303,_ZNSt15error_conditionC2EiRKNSt3_V214error_categoryE
FNDA:0,_ZNSt15error_conditionC2EiRKNSt3_V214error_categoryE
FN:331,_ZNKSt15error_condition5valueEv
FNDA:0,_ZNKSt15error_condition5valueEv
FN:334,_ZNKSt15error_condition8categoryEv
FNDA:0,_ZNKSt15error_condition8categoryEv
FN:376,_ZSteqRKSt15error_conditionS1_
FNDA:0,_ZSteqRKSt15error_conditionS1_
DA:100,0
DA:144,0
DA:145,0
DA:229,0
DA:232,0
DA:303,0
DA:304,0
DA:331,0
DA:334,0
DA:376,0
DA:379,0
DA:380,0
end_of_record
SF:/usr/include/boost/asio/detail/keyword_tss_ptr.hpp
FN:36,_ZN5boost4asio6detail15keyword_tss_ptrINS1_10call_stackINS1_23strand_executor_service11strand_implEhE7contextEEC2Ev
FNDA:0,_ZN5boost4asio6detail15keyword_tss_ptrINS1_10call_stackINS1_23strand_executor_service11strand_implEhE7contextEEC2Ev
FN:36,_ZN5boost4asio6detail15keyword_tss_ptrINS1_10call_stackINS1_14strand_service11strand_implEhE7contextEEC2Ev
FNDA:0,_ZN5boost4asio6detail15keyword_tss_ptrINS1_10call_stackINS1_14strand_service11strand_implEhE7contextEEC2Ev
FN:36,_ZN5boost4asio6detail15keyword_tss_ptrINS1_10call_stackINS1_14thread_contextENS1_16thread_info_baseEE7contextEEC2Ev
FNDA:0,_ZN5boost4asio6detail15keyword_tss_ptrINS1_10call_stackINS1_14thread_contextENS1_16thread_info_baseEE7contextEEC2Ev
FN:41,_ZN5boost4asio6detail15keyword_tss_ptrINS1_10call_stackINS1_23strand_executor_service11strand_implEhE7contextEED2Ev
FNDA:0,_ZN5boost4asio6detail15keyword_tss_ptrINS1_10call_stackINS1_23strand_executor_service11strand_implEhE7contextEED2Ev
FN:41,_ZN5boost4asio6detail15keyword_tss_ptrINS1_10call_stackINS1_14strand_service11strand_implEhE7contextEED2Ev
FNDA:0,_ZN5boost4asio6detail15keyword_tss_ptrINS1_10call_stackINS1_14strand_service11strand_implEhE7contextEED2Ev
FN:41,_ZN5boost4asio6detail15keyword_tss_ptrINS1_10call_stackINS1_14thread_contextENS1_16thread_info_baseEE7contextEED2Ev
FNDA:0,_ZN5boost4asio6detail15keyword_tss_ptrINS1_10call_stackINS1_14thread_contextENS1_16thread_info_baseEE7contextEED2Ev
DA:36,0
DA:37,0
DA:38,0
DA:36,0
DA:37,0
DA:38,0
DA:36,0
DA:37,0
DA:38,0
DA:41,0
DA:43,0
DA:41,0
DA:43,0
DA:41,0
DA:43,0
end_of_record
SF:/usr/include/boost/system/detail/system_category_posix.hpp
FN:19,_ZN5boost6system6detail16is_generic_valueEi
FNDA:0,_ZN5boost6system6detail16is_generic_valueEi
FN:116,_ZN5boost6system6detail45system_category_default_error_condition_posixEi
FNDA:0,_ZN5boost6system6detail45system_category_default_error_condition_posixEi
DA:19,0
DA:106,0
DA:108,0
DA:110,0
DA:113,0
DA:116,0
DA:118,0
DA:120,0
DA:124,0
end_of_record
SF:/usr/include/c++/11/bits/basic_string.h
FN:164,_ZNSt7__cxx1112basic_stringIcSt11char_traitsIcESaIcEE12_Alloc_hiderC2EPcRKS3_
FNDA:0,_ZNSt7__cxx1112basic_stringIcSt11char_traitsIcESaIcEE12_Alloc_hiderC2EPcRKS3_
FN:167,_ZNSt7__cxx1112basic_stringIcSt11char_traitsIcESaIcEE12_Alloc_hiderC2EPcOS3_
FNDA:0,_ZNSt7__cxx1112basic_stringIcSt11char_traitsIcESaIcEE12_Alloc_hiderC2EPcOS3_
FN:186,_ZNSt7__cxx1112basic_stringIcSt11char_traitsIcESaIcEE7_M_dataEPc
FNDA:0,_ZNSt7__cxx1112basic_stringIcSt11char_traitsIcESaIcEE7_M_dataEPc
FN:190,_ZNSt7__cxx1112basic_stringIcSt11char_traitsIcESaIcEE9_M_lengthEm
FNDA:0,_ZNSt7__cxx1112basic_stringIcSt11char_traitsIcESaIcEE9_M_lengthEm
FN:194,_ZNKSt7__cxx1112basic_stringIcSt11char_traitsIcESaIcEE7_M_dataEv
FNDA:0,_ZNKSt7__cxx1112basic_stringIcSt11char_traitsIcESaIcEE7_M_dataEv
FN:198,_ZNSt7__cxx1112basic_stringIcSt11char_traitsIcESaIcEE13_M_local_dataEv
FNDA:0,_ZNSt7__cxx1112basic_stringIcSt11char_traitsIcESaIcEE13_M_local_dataEv
FN:208,_ZNKSt7__cxx1112basic_stringIcSt11char_traitsIcESaIcEE13_M_local_dataEv
FNDA:0,_ZNKSt7__cxx1112basic_stringIcSt11char_traitsIcESaIcEE13_M_local_dataEv
FN:218,_ZNSt7__cxx1112basic_stringIcSt11char_traitsIcESaIcEE11_M_capacityEm
FNDA:0,_ZNSt7__cxx1112basic_stringIcSt11char_traitsIcESaIcEE11_M_capacityEm
FN:222,_ZNSt7__cxx1112basic_stringIcSt11char_traitsIcESaIcEE13_M_set_lengthEm
FNDA:0,_ZNSt7__cxx1112basic_stringIcSt11char_traitsIcESaIcEE13_M_set_lengthEm
FN:229,_ZNKSt7__cxx1112basic_stringIcSt11char_traitsIcESaIcEE11_M_is_localEv
FNDA:0,_ZNKSt7__cxx1112basic_stringIcSt11char_traitsIcESaIcEE11_M_is_localEv
FN:237,_ZNSt7__cxx1112basic_stringIcSt11char_traitsIcESaIcEE10_M_disposeEv
FNDA:0,_ZNSt7__cxx1112basic_stringIcSt11char_traitsIcESaIcEE10_M_disposeEv
FN:244,_ZNSt7__cxx1112basic_stringIcSt11char_traitsIcESaIcEE10_M_destroyEm
FNDA:0,_ZNSt7__cxx1112basic_stringIcSt11char_traitsIcESaIcEE10_M_destroyEm
FN:294,_ZNSt7__cxx1112basic_stringIcSt11char_traitsIcESaIcEE16_M_get_allocatorEv
FNDA:0,_ZNSt7__cxx1112basic_stringIcSt11char_traitsIcESaIcEE16_M_get_allocatorEv
FN:298,_ZNKSt7__cxx1112basic_stringIcSt11char_traitsIcESaIcEE16_M_get_allocatorEv
FNDA:0,_ZNKSt7__cxx1112basic_stringIcSt11char_traitsIcESaIcEE16_M_get_allocatorEv
FN:328,_ZNKSt7__cxx1112basic_stringIcSt11char_traitsIcESaIcEE15_M_check_lengthEmmPKc
FNDA:0,_ZNKSt7__cxx1112basic_stringIcSt11char_traitsIcESaIcEE15_M_check_lengthEmmPKc
FN:345,_ZNKSt7__cxx1112basic_stringIcSt11char_traitsIcESaIcEE11_M_disjunctEPKc
FNDA:0,_ZNKSt7__cxx1112basic_stringIcSt11char_traitsIcESaIcEE11_M_disjunctEPKc
FN:354,_ZNSt7__cxx1112basic_stringIcSt11char_traitsIcESaIcEE7_S_copyEPcPKcm
FNDA:0,_ZNSt7__cxx1112basic_stringIcSt11char_traitsIcESaIcEE7_S_copyEPcPKcm
FN:363,_ZNSt7__cxx1112basic_stringIcSt11char_traitsIcESaIcEE7_S_moveEPcPKcm
FNDA:0,_ZNSt7__cxx1112basic_stringIcSt11char_traitsIcESaIcEE7_S_moveEPcPKcm
FN:404,_ZNSt7__cxx1112basic_stringIcSt11char_traitsIcESaIcEE13_S_copy_charsEPcPKcS7_
FNDA:0,_ZNSt7__cxx1112basic_stringIcSt11char_traitsIcESaIcEE13_S_copy_charsEPcPKcS7_
FN:439,_ZNSt7__cxx1112basic_stringIcSt11char_traitsIcESaIcEEC2Ev
FNDA:0,_ZNSt7__cxx1112basic_stringIcSt11char_traitsIcESaIcEEC2Ev
FN:533,_ZNSt7__cxx1112basic_stringIcSt11char_traitsIcESaIcEEC2IS3_EEPKcRKS3_
FNDA:0,_ZNSt7__cxx1112basic_stringIcSt11char_traitsIcESaIcEEC2IS3_EEPKcRKS3_
FN:671,_ZNSt7__cxx1112basic_stringIcSt11char_traitsIcESaIcEED2Ev
FNDA:0,_ZNSt7__cxx1112basic_stringIcSt11char_traitsIcESaIcEED2Ev
FN:689,_ZNSt7__cxx1112basic_stringIcSt11char_traitsIcESaIcEEaSEPKc
FNDA:0,_ZNSt7__cxx1112basic_stringIcSt11char_traitsIcESaIcEEaSEPKc
FN:920,_ZNKSt7__cxx1112basic_stringIcSt11char_traitsIcESaIcEE4sizeEv
FNDA:0,_ZNKSt7__cxx1112basic_stringIcSt11char_traitsIcESaIcEE4sizeEv
FN:926,_ZNKSt7__cxx1112basic_stringIcSt11char_traitsIcESaIcEE6lengthEv
FNDA:0,_ZNKSt7__cxx1112basic_stringIcSt11char_traitsIcESaIcEE6lengthEv
FN:931,_ZNKSt7__cxx1112basic_stringIcSt11char_traitsIcESaIcEE8max_sizeEv
FNDA:0,_ZNKSt7__cxx1112basic_stringIcSt11char_traitsIcESaIcEE8max_sizeEv
FN:976,_ZNKSt7__cxx1112basic_stringIcSt11char_traitsIcESaIcEE8capacityEv
FNDA:0,_ZNKSt7__cxx1112basic_stringIcSt11char_traitsIcESaIcEE8capacityEv
FN:1023,_ZNKSt7__cxx1112basic_stringIcSt11char_traitsIcESaIcEE5emptyEv
FNDA:0,_ZNKSt7__cxx1112basic_stringIcSt11char_traitsIcESaIcEE5emptyEv
FN:1160,_ZNSt7__cxx1112basic_stringIcSt11char_traitsIcESaIcEEpLERKS4_
FNDA:0,_ZNSt7__cxx1112basic_stringIcSt11char_traitsIcESaIcEEpLERKS4_
FN:1169,_ZNSt7__cxx1112basic_stringIcSt11char_traitsIcESaIcEEpLEPKc
FNDA:0,_ZNSt7__cxx1112basic_stringIcSt11char_traitsIcESaIcEEpLEPKc
FN:1213,_ZNSt7__cxx1112basic_stringIcSt11char_traitsIcESaIcEE6appendERKS4_
FNDA:0,_ZNSt7__cxx1112basic_stringIcSt11char_traitsIcESaIcEE6appendERKS4_
FN:1255,_ZNSt7__cxx1112basic_stringIcSt11char_traitsIcESaIcEE6appendEPKc
FNDA:0,_ZNSt7__cxx1112basic_stringIcSt11char_traitsIcESaIcEE6appendEPKc
FN:1456,_ZNSt7__cxx1112basic_stringIcSt11char_traitsIcESaIcEE6assignEPKc
FNDA:0,_ZNSt7__cxx1112basic_stringIcSt11char_traitsIcESaIcEE6assignEPKc
FN:2320,_ZNKSt7__cxx1112basic_stringIcSt11char_traitsIcESaIcEE5c_strEv
FNDA:0,_ZNKSt7__cxx1112basic_stringIcSt11char_traitsIcESaIcEE5c_strEv
DA:164,0
DA:165,0
DA:167,0
DA:168,0
DA:186,0
DA:187,0
DA:190,0
DA:191,0
DA:194,0
DA:195,0
DA:198,0
DA:201,0
DA:208,0
DA:211,0
DA:218,0
DA:219,0
DA:222,0
DA:224,0
DA:225,0
DA:226,0
DA:229,0
DA:230,0
DA:237,0
DA:239,0
DA:240,0
DA:241,0
DA:244,0
DA:245,0
DA:294,0
DA:295,0
DA:298,0
DA:299,0
DA:328,0
DA:330,0
DA:331,0
DA:332,0
DA:345,0
DA:347,0
DA:348,0
DA:354,0
DA:356,0
DA:357,0
DA:359,0
DA:360,0
DA:363,0
DA:365,0
DA:366,0
DA:368,0
DA:369,0
DA:404,0
DA:406,0
DA:439,0
DA:441,0
DA:442,0
DA:533,0
DA:534,0
DA:536,0
DA:539,0
DA:540,0
DA:671,0
DA:672,0
DA:689,0
DA:690,0
DA:920,0
DA:921,0
DA:926,0
DA:927,0
DA:931,0
DA:932,0
DA:976,0
DA:978,0
DA:979,0
DA:1023,0
DA:1024,0
DA:1160,0
DA:1161,0
DA:1169,0
DA:1170,0
DA:1213,0
DA:1214,0
DA:1255,0
DA:1258,0
DA:1259,0
DA:1260,0
DA:1456,0
DA:1459,0
DA:1460,0
DA:2320,0
DA:2321,0
end_of_record
SF:/usr/include/c++/11/bits/stl_tree.h
FN:146,_ZNSt20_Rb_tree_key_compareIN5boost6system6detail12cat_ptr_lessEEC2Ev
FNDA:0,_ZNSt20_Rb_tree_key_compareIN5boost6system6detail12cat_ptr_lessEEC2Ev
FN:173,_ZNSt15_Rb_tree_headerC2Ev
FNDA:0,_ZNSt15_Rb_tree_headerC2Ev
FN:206,_ZNSt15_Rb_tree_header8_M_resetEv
FNDA:0,_ZNSt15_Rb_tree_header8_M_resetEv
FN:234,_ZNSt13_Rb_tree_nodeISt4pairIKPKN5boost6system14error_categoryESt10unique_ptrINS2_6detail12std_categoryESt14default_deleteIS9_EEEE9_M_valptrEv
FNDA:0,_ZNSt13_Rb_tree_nodeISt4pairIKPKN5boost6system14error_categoryESt10unique_ptrINS2_6detail12std_categoryESt14default_deleteIS9_EEEE9_M_valptrEv
FN:238,_ZNKSt13_Rb_tree_nodeISt4pairIKPKN5boost6system14error_categoryESt10unique_ptrINS2_6detail12std_categoryESt14default_deleteIS9_EEEE9_M_valptrEv
FNDA:0,_ZNKSt13_Rb_tree_nodeISt4pairIKPKN5boost6system14error_categoryESt10unique_ptrINS2_6detail12std_categoryESt14default_deleteIS9_EEEE9_M_valptrEv
FN:273,_ZNSt17_Rb_tree_iteratorISt4pairIKPKN5boost6system14error_categoryESt10unique_ptrINS2_6detail12std_categoryESt14default_deleteIS9_EEEEC2EPSt18_Rb_tree_node_base
FNDA:0,_ZNSt17_Rb_tree_iteratorISt4pairIKPKN5boost6system14error_categoryESt10unique_ptrINS2_6detail12std_categoryESt14default_deleteIS9_EEEEC2EPSt18_Rb_tree_node_base
FN:281,_ZNKSt17_Rb_tree_iteratorISt4pairIKPKN5boost6system14error_categoryESt10unique_ptrINS2_6detail12std_categoryESt14default_deleteIS9_EEEEptEv
FNDA:0,_ZNKSt17_Rb_tree_iteratorISt4pairIKPKN5boost6system14error_categoryESt10unique_ptrINS2_6detail12std_categoryESt14default_deleteIS9_EEEEptEv
FN:300,_ZNSt17_Rb_tree_iteratorISt4pairIKPKN5boost6system14error_categoryESt10unique_ptrINS2_6detail12std_categoryESt14default_deleteIS9_EEEEmmEv
FNDA:0,_ZNSt17_Rb_tree_iteratorISt4pairIKPKN5boost6system14error_categoryESt10unique_ptrINS2_6detail12std_categoryESt14default_deleteIS9_EEEEmmEv
FN:315,_ZSteqRKSt17_Rb_tree_iteratorISt4pairIKPKN5boost6system14error_categoryESt10unique_ptrINS2_6detail12std_categoryESt14default_deleteIS9_EEEESG_
FNDA:0,_ZSteqRKSt17_Rb_tree_iteratorISt4pairIKPKN5boost6system14error_categoryESt10unique_ptrINS2_6detail12std_categoryESt14default_deleteIS9_EEEESG_
FN:523,_ZNSt8_Rb_treeIPKN5boost6system14error_categoryESt4pairIKS4_St10unique_ptrINS1_6detail12std_categoryESt14default_deleteIS9_EEESt10_Select1stISD_ENS8_12cat_ptr_lessESaISD_EE11_Alloc_nodeC2ERSI_
FNDA:0,_ZNSt8_Rb_treeIPKN5boost6system14error_categoryESt4pairIKS4_St10unique_ptrINS1_6detail12std_categoryESt14default_deleteIS9_EEESt10_Select1stISD_ENS8_12cat_ptr_lessESaISD_EE11_Alloc_nodeC2ERSI_
FN:528,_ZNKSt8_Rb_treeIPKN5boost6system14error_categoryESt4pairIKS4_St10unique_ptrINS1_6detail12std_categoryESt14default_deleteIS9_EEESt10_Select1stISD_ENS8_12cat_ptr_lessESaISD_EE11_Alloc_nodeclISD_EEPSt13_Rb_tree_nodeISD_EOT_
FNDA:0,_ZNKSt8_Rb_treeIPKN5boost6system14error_categoryESt4pairIKS4_St10unique_ptrINS1_6detail12std_categoryESt14default_deleteIS9_EEESt10_Select1stISD_ENS8_12cat_ptr_lessESaISD_EE11_Alloc_nodeclISD_EEPSt13_Rb_tree_nodeISD_EOT_
FN:547,_ZNSt8_Rb_treeIPKN5boost6system14error_categoryESt4pairIKS4_St10unique_ptrINS1_6detail12std_categoryESt14default_deleteIS9_EEESt10_Select1stISD_ENS8_12cat_ptr_lessESaISD_EE21_M_get_Node_allocatorEv
FNDA:0,_ZNSt8_Rb_treeIPKN5boost6system14error_categoryESt4pairIKS4_St10unique_ptrINS1_6detail12std_categoryESt14default_deleteIS9_EEESt10_Select1stISD_ENS8_12cat_ptr_lessESaISD_EE21_M_get_Node_allocatorEv
FN:560,_ZNSt8_Rb_treeIPKN5boost6system14error_categoryESt4pairIKS4_St10unique_ptrINS1_6detail12std_categoryESt14default_deleteIS9_EEESt10_Select1stISD_ENS8_12cat_ptr_lessESaISD_EE11_M_get_nodeEv
FNDA:0,_ZNSt8_Rb_treeIPKN5boost6system14error_categoryESt4pairIKS4_St10unique_ptrINS1_6detail12std_categoryESt14default_deleteIS9_EEESt10_Select1stISD_ENS8_12cat_ptr_lessESaISD_EE11_M_get_nodeEv
FN:564,_ZNSt8_Rb_treeIPKN5boost6system14error_categoryESt4pairIKS4_St10unique_ptrINS1_6detail12std_categoryESt14default_deleteIS9_EEESt10_Select1stISD_ENS8_12cat_ptr_lessESaISD_EE11_M_put_nodeEPSt13_Rb_tree_nodeISD_E
FNDA:0,_ZNSt8_Rb_treeIPKN5boost6system14error_categoryESt4pairIKS4_St10unique_ptrINS1_6detail12std_categoryESt14default_deleteIS9_EEESt10_Select1stISD_ENS8_12cat_ptr_lessESaISD_EE11_M_put_nodeEPSt13_Rb_tree_nodeISD_E
FN:590,_ZNSt8_Rb_treeIPKN5boost6system14error_categoryESt4pairIKS4_St10unique_ptrINS1_6detail12std_categoryESt14default_deleteIS9_EEESt10_Select1stISD_ENS8_12cat_ptr_lessESaISD_EE17_M_construct_nodeIJSD_EEEvPSt13_Rb_tree_nodeISD_EDpOT_
FNDA:0,_ZNSt8_Rb_treeIPKN5boost6system14error_categoryESt4pairIKS4_St10unique_ptrINS1_6detail12std_categoryESt14default_deleteIS9_EEESt10_Select1stISD_ENS8_12cat_ptr_lessESaISD_EE17_M_construct_nodeIJSD_EEEvPSt13_Rb_tree_nodeISD_EDpOT_
FN:609,_ZNSt8_Rb_treeIPKN5boost6system14error_categoryESt4pairIKS4_St10unique_ptrINS1_6detail12std_categoryESt14default_deleteIS9_EEESt10_Select1stISD_ENS8_12cat_ptr_lessESaISD_EE14_M_create_nodeIJSD_EEEPSt13_Rb_tree_nodeISD_EDpOT_
FNDA:0,_ZNSt8_Rb_treeIPKN5boost6system14error_categoryESt4pairIKS4_St10unique_ptrINS1_6detail12std_categoryESt14default_deleteIS9_EEESt10_Select1stISD_ENS8_12cat_ptr_lessESaISD_EE14_M_create_nodeIJSD_EEEPSt13_Rb_tree_nodeISD_EDpOT_
FN:618,_ZNSt8_Rb_treeIPKN5boost6system14error_categoryESt4pairIKS4_St10unique_ptrINS1_6detail12std_categoryESt14default_deleteIS9_EEESt10_Select1stISD_ENS8_12cat_ptr_lessESaISD_EE15_M_destroy_nodeEPSt13_Rb_tree_nodeISD_E
FNDA:0,_ZNSt8_Rb_treeIPKN5boost6system14error_categoryESt4pairIKS4_St10unique_ptrINS1_6detail12std_categoryESt14default_deleteIS9_EEESt10_Select1stISD_ENS8_12cat_ptr_lessESaISD_EE15_M_destroy_nodeEPSt13_Rb_tree_nodeISD_E
FN:629,_ZNSt8_Rb_treeIPKN5boost6system14error_categoryESt4pairIKS4_St10unique_ptrINS1_6detail12std_categoryESt14default_deleteIS9_EEESt10_Select1stISD_ENS8_12cat_ptr_lessESaISD_EE12_M_drop_nodeEPSt13_Rb_tree_nodeISD_E
FNDA:0,_ZNSt8_Rb_treeIPKN5boost6system14error_categoryESt4pairIKS4_St10unique_ptrINS1_6detail12std_categoryESt14default_deleteIS9_EEESt10_Select1stISD_ENS8_12cat_ptr_lessESaISD_EE12_M_drop_nodeEPSt13_Rb_tree_nodeISD_E
FN:667,_ZNSt8_Rb_treeIPKN5boost6system14error_categoryESt4pairIKS4_St10unique_ptrINS1_6detail12std_categoryESt14default_deleteIS9_EEESt10_Select1stISD_ENS8_12cat_ptr_lessESaISD_EE13_Rb_tree_implISG_Lb1EEC2Ev
FNDA:0,_ZNSt8_Rb_treeIPKN5boost6system14error_categoryESt4pairIKS4_St10unique_ptrINS1_6detail12std_categoryESt14default_deleteIS9_EEESt10_Select1stISD_ENS8_12cat_ptr_lessESaISD_EE13_Rb_tree_implISG_Lb1EEC2Ev
FN:734,_ZNKSt8_Rb_treeIPKN5boost6system14error_categoryESt4pairIKS4_St10unique_ptrINS1_6detail12std_categoryESt14default_deleteIS9_EEESt10_Select1stISD_ENS8_12cat_ptr_lessESaISD_EE9_M_mbeginEv
FNDA:0,_ZNKSt8_Rb_treeIPKN5boost6system14error_categoryESt4pairIKS4_St10unique_ptrINS1_6detail12std_categoryESt14default_deleteIS9_EEESt10_Select1stISD_ENS8_12cat_ptr_lessESaISD_EE9_M_mbeginEv
FN:738,_ZNSt8_Rb_treeIPKN5boost6system14error_categoryESt4pairIKS4_St10unique_ptrINS1_6detail12std_categoryESt14default_deleteIS9_EEESt10_Select1stISD_ENS8_12cat_ptr_lessESaISD_EE8_M_beginEv
FNDA:0,_ZNSt8_Rb_treeIPKN5boost6system14error_categoryESt4pairIKS4_St10unique_ptrINS1_6detail12std_categoryESt14default_deleteIS9_EEESt10_Select1stISD_ENS8_12cat_ptr_lessESaISD_EE8_M_beginEv
FN:749,_ZNSt8_Rb_treeIPKN5boost6system14error_categoryESt4pairIKS4_St10unique_ptrINS1_6detail12std_categoryESt14default_deleteIS9_EEESt10_Select1stISD_ENS8_12cat_ptr_lessESaISD_EE6_M_endEv
FNDA:0,_ZNSt8_Rb_treeIPKN5boost6system14error_categoryESt4pairIKS4_St10unique_ptrINS1_6detail12std_categoryESt14default_deleteIS9_EEESt10_Select1stISD_ENS8_12cat_ptr_lessESaISD_EE6_M_endEv
FN:757,_ZNSt8_Rb_treeIPKN5boost6system14error_categoryESt4pairIKS4_St10unique_ptrINS1_6detail12std_categoryESt14default_deleteIS9_EEESt10_Select1stISD_ENS8_12cat_ptr_lessESaISD_EE6_S_keyEPKSt13_Rb_tree_nodeISD_E
FNDA:0,_ZNSt8_Rb_treeIPKN5boost6system14error_categoryESt4pairIKS4_St10unique_ptrINS1_6detail12std_categoryESt14default_deleteIS9_EEESt10_Select1stISD_ENS8_12cat_ptr_lessESaISD_EE6_S_keyEPKSt13_Rb_tree_nodeISD_E
FN:779,_ZNSt8_Rb_treeIPKN5boost6system14error_categoryESt4pairIKS4_St10unique_ptrINS1_6detail12std_categoryESt14default_deleteIS9_EEESt10_Select1stISD_ENS8_12cat_ptr_lessESaISD_EE7_S_leftEPSt18_Rb_tree_node_base
FNDA:0,_ZNSt8_Rb_treeIPKN5boost6system14error_categoryESt4pairIKS4_St10unique_ptrINS1_6detail12std_categoryESt14default_deleteIS9_EEESt10_Select1stISD_ENS8_12cat_ptr_lessESaISD_EE7_S_leftEPSt18_Rb_tree_node_base
FN:787,_ZNSt8_Rb_treeIPKN5boost6system14error_categoryESt4pairIKS4_St10unique_ptrINS1_6detail12std_categoryESt14default_deleteIS9_EEESt10_Select1stISD_ENS8_12cat_ptr_lessESaISD_EE8_S_rightEPSt18_Rb_tree_node_base
FNDA:0,_ZNSt8_Rb_treeIPKN5boost6system14error_categoryESt4pairIKS4_St10unique_ptrINS1_6detail12std_categoryESt14default_deleteIS9_EEESt10_Select1stISD_ENS8_12cat_ptr_lessESaISD_EE8_S_rightEPSt18_Rb_tree_node_base
FN:795,_ZNSt8_Rb_treeIPKN5boost6system14error_categoryESt4pairIKS4_St10unique_ptrINS1_6detail12std_categoryESt14default_deleteIS9_EEESt10_Select1stISD_ENS8_12cat_ptr_lessESaISD_EE6_S_keyEPKSt18_Rb_tree_node_base
FNDA:0,_ZNSt8_Rb_treeIPKN5boost6system14error_categoryESt4pairIKS4_St10unique_ptrINS1_6detail12std_categoryESt14default_deleteIS9_EEESt10_Select1stISD_ENS8_12cat_ptr_lessESaISD_EE6_S_keyEPKSt18_Rb_tree_node_base
FN:928,_ZNSt8_Rb_treeIPKN5boost6system14error_categoryESt4pairIKS4_St10unique_ptrINS1_6detail12std_categoryESt14default_deleteIS9_EEESt10_Select1stISD_ENS8_12cat_ptr_lessESaISD_EEC2Ev
FNDA:0,_ZNSt8_Rb_treeIPKN5boost6system14error_categoryESt4pairIKS4_St10unique_ptrINS1_6detail12std_categoryESt14default_deleteIS9_EEESt10_Select1stISD_ENS8_12cat_ptr_lessESaISD_EEC2Ev
FN:983,_ZNSt8_Rb_treeIPKN5boost6system14error_categoryESt4pairIKS4_St10unique_ptrINS1_6detail12std_categoryESt14default_deleteIS9_EEESt10_Select1stISD_ENS8_12cat_ptr_lessESaISD_EED2Ev
FNDA:0,_ZNSt8_Rb_treeIPKN5boost6system14error_categoryESt4pairIKS4_St10unique_ptrINS1_6detail12std_categoryESt14default_deleteIS9_EEESt10_Select1stISD_ENS8_12cat_ptr_lessESaISD_EED2Ev
FN:995,_ZNSt8_Rb_treeIPKN5boost6system14error_categoryESt4pairIKS4_St10unique_ptrINS1_6detail12std_categoryESt14default_deleteIS9_EEESt10_Select1stISD_ENS8_12cat_ptr_lessESaISD_EE5beginEv
FNDA:0,_ZNSt8_Rb_treeIPKN5boost6system14error_categoryESt4pairIKS4_St10unique_ptrINS1_6detail12std_categoryESt14default_deleteIS9_EEESt10_Select1stISD_ENS8_12cat_ptr_lessESaISD_EE5beginEv
FN:1003,_ZNSt8_Rb_treeIPKN5boost6system14error_categoryESt4pairIKS4_St10unique_ptrINS1_6detail12std_categoryESt14default_deleteIS9_EEESt10_Select1stISD_ENS8_12cat_ptr_lessESaISD_EE3endEv
FNDA:0,_ZNSt8_Rb_treeIPKN5boost6system14error_categoryESt4pairIKS4_St10unique_ptrINS1_6detail12std_categoryESt14default_deleteIS9_EEESt10_Select1stISD_ENS8_12cat_ptr_lessESaISD_EE3endEv
FN:1771,_ZNSt8_Rb_treeIPKN5boost6system14error_categoryESt4pairIKS4_St10unique_ptrINS1_6detail12std_categoryESt14default_deleteIS9_EEESt10_Select1stISD_ENS8_12cat_ptr_lessESaISD_EE10_M_insert_ISD_NSI_11_Alloc_nodeEEESt17_Rb_tree_iteratorISD_EPSt18_Rb_tree_node_baseSO_OT_RT0_
FNDA:0,_ZNSt8_Rb_treeIPKN5boost6system14error_categoryESt4pairIKS4_St10unique_ptrINS1_6detail12std_categoryESt14default_deleteIS9_EEESt10_Select1stISD_ENS8_12cat_ptr_lessESaISD_EE10_M_insert_ISD_NSI_11_Alloc_nodeEEESt17_Rb_tree_iteratorISD_EPSt18_Rb_tree_node_baseSO_OT_RT0_
FN:1883,_ZNSt8_Rb_treeIPKN5boost6system14error_categoryESt4pairIKS4_St10unique_ptrINS1_6detail12std_categoryESt14default_deleteIS9_EEESt10_Select1stISD_ENS8_12cat_ptr_lessESaISD_EE8_M_eraseEPSt13_Rb_tree_nodeISD_E
FNDA:0,_ZNSt8_Rb_treeIPKN5boost6system14error_categoryESt4pairIKS4_St10unique_ptrINS1_6detail12std_categoryESt14default_deleteIS9_EEESt10_Select1stISD_ENS8_12cat_ptr_lessESaISD_EE8_M_eraseEPSt13_Rb_tree_nodeISD_E
FN:1900,_ZNSt8_Rb_treeIPKN5boost6system14error_categoryESt4pairIKS4_St10unique_ptrINS1_6detail12std_categoryESt14default_deleteIS9_EEESt10_Select1stISD_ENS8_12cat_ptr_lessESaISD_EE14_M_lower_boundEPSt13_Rb_tree_nodeISD_EPSt18_Rb_tree_node_baseRS6_
FNDA:0,_ZNSt8_Rb_treeIPKN5boost6system14error_categoryESt4pairIKS4_St10unique_ptrINS1_6detail12std_categoryESt14default_deleteIS9_EEESt10_Select1stISD_ENS8_12cat_ptr_lessESaISD_EE14_M_lower_boundEPSt13_Rb_tree_nodeISD_EPSt18_Rb_tree_node_baseRS6_
FN:2061,_ZNSt8_Rb_treeIPKN5boost6system14error_categoryESt4pairIKS4_St10unique_ptrINS1_6detail12std_categoryESt14default_deleteIS9_EEESt10_Select1stISD_ENS8_12cat_ptr_lessESaISD_EE24_M_get_insert_unique_posERS6_
FNDA:0,_ZNSt8_Rb_treeIPKN5boost6system14error_categoryESt4pairIKS4_St10unique_ptrINS1_6detail12std_categoryESt14default_deleteIS9_EEESt10_Select1stISD_ENS8_12cat_ptr_lessESaISD_EE24_M_get_insert_unique_posERS6_
FN:2115,_ZNSt8_Rb_treeIPKN5boost6system14error_categoryESt4pairIKS4_St10unique_ptrINS1_6detail12std_categoryESt14default_deleteIS9_EEESt10_Select1stISD_ENS8_12cat_ptr_lessESaISD_EE16_M_insert_uniqueISD_EES5_ISt17_Rb_tree_iteratorISD_EbEOT_
FNDA:0,_ZNSt8_Rb_treeIPKN5boost6system14error_categoryESt4pairIKS4_St10unique_ptrINS1_6detail12std_categoryESt14default_deleteIS9_EEESt10_Select1stISD_ENS8_12cat_ptr_lessESaISD_EE16_M_insert_uniqueISD_EES5_ISt17_Rb_tree_iteratorISD_EbEOT_
FN:2520,_ZNSt8_Rb_treeIPKN5boost6system14error_categoryESt4pairIKS4_St10unique_ptrINS1_6detail12std_categoryESt14default_deleteIS9_EEESt10_Select1stISD_ENS8_12cat_ptr_lessESaISD_EE4findERS6_
FNDA:0,_ZNSt8_Rb_treeIPKN5boost6system14error_categoryESt4pairIKS4_St10unique_ptrINS1_6detail12std_categoryESt14default_deleteIS9_EEESt10_Select1stISD_ENS8_12cat_ptr_lessESaISD_EE4findERS6_
DA:146,0
DA:150,0
DA:173,0
DA:174,0
DA:175,0
DA:176,0
DA:177,0
DA:206,0
DA:208,0
DA:209,0
DA:210,0
DA:211,0
DA:212,0
DA:234,0
DA:235,0
DA:238,0
DA:239,0
DA:273,0
DA:274,0
DA:281,0
DA:282,0
DA:300,0
DA:302,0
DA:303,0
DA:315,0
DA:316,0
DA:523,0
DA:524,0
DA:528,0
DA:529,0
DA:547,0
DA:548,0
DA:560,0
DA:561,0
DA:564,0
DA:565,0
DA:590,0
DA:594,0
DA:595,0
DA:605,0
DA:609,0
DA:611,0
DA:612,0
DA:613,0
DA:618,0
DA:623,0
DA:624,0
DA:626,0
DA:629,0
DA:631,0
DA:632,0
DA:633,0
DA:667,0
DA:671,0
DA:672,0
DA:734,0
DA:735,0
DA:738,0
DA:739,0
DA:749,0
DA:750,0
DA:757,0
DA:775,0
DA:779,0
DA:780,0
DA:787,0
DA:788,0
DA:795,0
DA:796,0
DA:928,0
DA:983,0
DA:984,0
DA:995,0
DA:996,0
DA:1003,0
DA:1004,0
DA:1771,0
DA:1780,0
DA:1781,0
DA:1782,0
DA:1784,0
DA:1786,0
DA:1787,0
DA:1788,0
DA:1789,0
DA:1883,0
DA:1887,0
DA:1889,0
DA:1890,0
DA:1891,0
DA:1892,0
DA:1894,0
DA:1900,0
DA:1904,0
DA:1905,0
DA:1906,0
DA:1908,0
DA:1909,0
DA:2061,0
DA:2065,0
DA:2066,0
DA:2067,0
DA:2068,0
DA:2070,0
DA:2071,0
DA:2072,0
DA:2074,0
DA:2075,0
DA:2077,0
DA:2078,0
DA:2080,0
DA:2082,0
DA:2083,0
DA:2084,0
DA:2115,0
DA:2124,0
DA:2126,0
DA:2128,0
DA:2129,0
DA:2131,0
DA:2134,0
DA:2520,0
DA:2523,0
DA:2524,0
DA:2525,0
DA:2526,0
end_of_record
SF:/usr/include/boost/system/detail/generic_category.hpp
FN:25,_ZN5boost6system6detail17strerror_r_helperEPKcS3_
FNDA:0,_ZN5boost6system6detail17strerror_r_helperEPKcS3_
FN:35,_ZN5boost6system6detail30generic_error_category_messageEiPcm
FNDA:0,_ZN5boost6system6detail30generic_error_category_messageEiPcm
FN:40,_ZN5boost6system6detail30generic_error_category_messageB5cxx11Ei
FNDA:0,_ZN5boost6system6detail30generic_error_category_messageB5cxx11Ei
DA:25,0
DA:27,0
DA:35,0
DA:37,0
DA:40,0
DA:43,0
end_of_record
SF:/usr/include/c++/11/bits/move.h
FN:49,_ZSt11__addressofIKcEPT_RS1_
FNDA:0,_ZSt11__addressofIKcEPT_RS1_
FN:49,_ZSt11__addressofIcEPT_RS0_
FNDA:0,_ZSt11__addressofIcEPT_RS0_
FN:77,_ZSt7forwardIRPSt18_Rb_tree_node_baseEOT_RNSt16remove_referenceIS3_E4typeE
FNDA:0,_ZSt7forwardIRPSt18_Rb_tree_node_baseEOT_RNSt16remove_referenceIS3_E4typeE
FN:77,_ZSt7forwardIbEOT_RNSt16remove_referenceIS0_E4typeE
FNDA:0,_ZSt7forwardIbEOT_RNSt16remove_referenceIS0_E4typeE
FN:77,_ZSt7forwardIPKN5boost6system14error_categoryEEOT_RNSt16remove_referenceIS5_E4typeE
FNDA:0,_ZSt7forwardIPKN5boost6system14error_categoryEEOT_RNSt16remove_referenceIS5_E4typeE
FN:77,_ZSt7forwardISt10unique_ptrIN5boost6system6detail12std_categoryESt14default_deleteIS4_EEEOT_RNSt16remove_referenceIS8_E4typeE
FNDA:0,_ZSt7forwardISt10unique_ptrIN5boost6system6detail12std_categoryESt14default_deleteIS4_EEEOT_RNSt16remove_referenceIS8_E4typeE
FN:77,_ZSt7forwardIRKNSt7__cxx1112basic_stringIcSt11char_traitsIcESaIcEEEEOT_RNSt16remove_referenceIS8_E4typeE
FNDA:0,_ZSt7forwardIRKNSt7__cxx1112basic_stringIcSt11char_traitsIcESaIcEEEEOT_RNSt16remove_referenceIS8_E4typeE
FN:77,_ZSt7forwardIRNSt7__cxx1112basic_stringIcSt11char_traitsIcESaIcEEEEOT_RNSt16remove_referenceIS7_E4typeE
FNDA:0,_ZSt7forwardIRNSt7__cxx1112basic_stringIcSt11char_traitsIcESaIcEEEEOT_RNSt16remove_referenceIS7_E4typeE
FN:77,_ZSt7forwardIPFvRKNSt7__cxx1112basic_stringIcSt11char_traitsIcESaIcEEEEEOT_RNSt16remove_referenceISA_E4typeE
FNDA:0,_ZSt7forwardIPFvRKNSt7__cxx1112basic_stringIcSt11char_traitsIcESaIcEEEEEOT_RNSt16remove_referenceISA_E4typeE
FN:77,_ZSt7forwardISt4pairIKPKN5boost6system14error_categoryESt10unique_ptrINS2_6detail12std_categoryESt14default_deleteIS9_EEEEOT_RNSt16remove_referenceISE_E4typeE
FNDA:0,_ZSt7forwardISt4pairIKPKN5boost6system14error_categoryESt10unique_ptrINS2_6detail12std_categoryESt14default_deleteIS9_EEEEOT_RNSt16remove_referenceISE_E4typeE
FN:77,_ZSt7forwardISt17_Rb_tree_iteratorISt4pairIKPKN5boost6system14error_categoryESt10unique_ptrINS3_6detail12std_categoryESt14default_deleteISA_EEEEEOT_RNSt16remove_referenceISG_E4typeE
FNDA:0,_ZSt7forwardISt17_Rb_tree_iteratorISt4pairIKPKN5boost6system14error_categoryESt10unique_ptrINS3_6detail12std_categoryESt14default_deleteISA_EEEEEOT_RNSt16remove_referenceISG_E4typeE
FN:77,_ZSt7forwardIRPSt13_Rb_tree_nodeISt4pairIKPKN5boost6system14error_categoryESt10unique_ptrINS3_6detail12std_categoryESt14default_deleteISA_EEEEEOT_RNSt16remove_referenceISI_E4typeE
FNDA:0,_ZSt7forwardIRPSt13_Rb_tree_nodeISt4pairIKPKN5boost6system14error_categoryESt10unique_ptrINS3_6detail12std_categoryESt14default_deleteISA_EEEEEOT_RNSt16remove_referenceISI_E4typeE
FN:104,_ZSt4moveIRSt5tupleIJPN5boost6system6detail12std_categoryESt14default_deleteIS4_EEEEONSt16remove_referenceIT_E4typeEOSB_
FNDA:0,_ZSt4moveIRSt5tupleIJPN5boost6system6detail12std_categoryESt14default_deleteIS4_EEEEONSt16remove_referenceIT_E4typeEOSB_
FN:104,_ZSt4moveIRSt4pairIKPKN5boost6system14error_categoryESt10unique_ptrINS2_6detail12std_categoryESt14default_deleteIS9_EEEEONSt16remove_referenceIT_E4typeEOSG_
FNDA:0,_ZSt4moveIRSt4pairIKPKN5boost6system14error_categoryESt10unique_ptrINS2_6detail12std_categoryESt14default_deleteIS9_EEEEONSt16remove_referenceIT_E4typeEOSG_
FN:104,_ZSt4moveIRPN5boost6system6detail12std_categoryEEONSt16remove_referenceIT_E4typeEOS7_
FNDA:0,_ZSt4moveIRPN5boost6system6detail12std_categoryEEONSt16remove_referenceIT_E4typeEOS7_
FN:104,_ZSt4moveIRSaIcEEONSt16remove_referenceIT_E4typeEOS3_
FNDA:0,_ZSt4moveIRSaIcEEONSt16remove_referenceIT_E4typeEOS3_
FN:104,_ZSt4moveIRSt10unique_ptrIN5boost6system6detail12std_categoryESt14default_deleteIS4_EEEONSt16remove_referenceIT_E4typeEOSA_
FNDA:0,_ZSt4moveIRSt10unique_ptrIN5boost6system6detail12std_categoryESt14default_deleteIS4_EEEONSt16remove_referenceIT_E4typeEOSA_
FN:145,_ZSt9addressofIcEPT_RS0_
FNDA:0,_ZSt9addressofIcEPT_RS0_
FN:145,_ZSt9addressofIKcEPT_RS1_
FNDA:0,_ZSt9addressofIKcEPT_RS1_
DA:49,0
DA:50,0
DA:49,0
DA:50,0
DA:77,0
DA:78,0
DA:77,0
DA:78,0
DA:77,0
DA:78,0
DA:77,0
DA:78,0
DA:77,0
DA:78,0
DA:77,0
DA:78,0
DA:77,0
DA:78,0
DA:77,0
DA:78,0
DA:77,0
DA:78,0
DA:77,0
DA:78,0
DA:104,0
DA:105,0
DA:104,0
DA:105,0
DA:104,0
DA:105,0
DA:104,0
DA:105,0
DA:104,0
DA:105,0
DA:145,0
DA:146,0
DA:145,0
DA:146,0
end_of_record
SF:/usr/include/c++/11/bits/stl_construct.h
FN:80,_ZSt10destroy_atISt4pairIKPKN5boost6system14error_categoryESt10unique_ptrINS2_6detail12std_categoryESt14default_deleteIS9_EEEEvPT_
FNDA:0,_ZSt10destroy_atISt4pairIKPKN5boost6system14error_categoryESt10unique_ptrINS2_6detail12std_categoryESt14default_deleteIS9_EEEEvPT_
FN:94,_ZSt12construct_atISt4pairIKPKN5boost6system14error_categoryESt10unique_ptrINS2_6detail12std_categoryESt14default_deleteIS9_EEEJSD_EEDTgsnwcvPvLi0E_T_pispcl7declvalIT0_EEEEPSF_DpOSG_
FNDA:0,_ZSt12construct_atISt4pairIKPKN5boost6system14error_categoryESt10unique_ptrINS2_6detail12std_categoryESt14default_deleteIS9_EEEJSD_EEDTgsnwcvPvLi0E_T_pispcl7declvalIT0_EEEEPSF_DpOSG_
DA:80,0
DA:88,0
DA:89,0
DA:94,0
DA:97,0
end_of_record
TN:
SF:/usr/include/boost/system/detail/system_category_posix.hpp
FN:19,_ZN5boost6system6detail16is_generic_valueEi
FNDA:0,_ZN5boost6system6detail16is_generic_valueEi
FN:116,_ZN5boost6system6detail45system_category_default_error_condition_posixEi
FNDA:0,_ZN5boost6system6detail45system_category_default_error_condition_posixEi
DA:19,0
DA:106,0
DA:108,0
DA:110,0
DA:113,0
DA:116,0
DA:118,0
DA:120,0
DA:124,0
end_of_record
SF:/usr/include/boost/asio/detail/keyword_tss_ptr.hpp
FN:36,_ZN5boost4asio6detail15keyword_tss_ptrINS1_10call_stackINS1_23strand_executor_service11strand_implEhE7contextEEC2Ev
FNDA:0,_ZN5boost4asio6detail15keyword_tss_ptrINS1_10call_stackINS1_23strand_executor_service11strand_implEhE7contextEEC2Ev
FN:36,_ZN5boost4asio6detail15keyword_tss_ptrINS1_10call_stackINS1_14strand_service11strand_implEhE7contextEEC2Ev
FNDA:0,_ZN5boost4asio6detail15keyword_tss_ptrINS1_10call_stackINS1_14strand_service11strand_implEhE7contextEEC2Ev
FN:36,_ZN5boost4asio6detail15keyword_tss_ptrINS1_10call_stackINS1_14thread_contextENS1_16thread_info_baseEE7contextEEC2Ev
FNDA:0,_ZN5boost4asio6detail15keyword_tss_ptrINS1_10call_stackINS1_14thread_contextENS1_16thread_info_baseEE7contextEEC2Ev
FN:41,_ZN5boost4asio6detail15keyword_tss_ptrINS1_10call_stackINS1_23strand_executor_service11strand_implEhE7contextEED2Ev
FNDA:0,_ZN5boost4asio6detail15keyword_tss_ptrINS1_10call_stackINS1_23strand_executor_service11strand_implEhE7contextEED2Ev
FN:41,_ZN5boost4asio6detail15keyword_tss_ptrINS1_10call_stackINS1_14strand_service11strand_implEhE7contextEED2Ev
FNDA:0,_ZN5boost4asio6detail15keyword_tss_ptrINS1_10call_stackINS1_14strand_service11strand_implEhE7contextEED2Ev
FN:41,_ZN5boost4asio6detail15keyword_tss_ptrINS1_10call_stackINS1_14thread_contextENS1_16thread_info_baseEE7contextEED2Ev
FNDA:0,_ZN5boost4asio6detail15keyword_tss_ptrINS1_10call_stackINS1_14thread_contextENS1_16thread_info_baseEE7contextEED2Ev
DA:36,0
DA:37,0
DA:38,0
DA:36,0
DA:37,0
DA:38,0
DA:36,0
DA:37,0
DA:38,0
DA:41,0
DA:43,0
DA:41,0
DA:43,0
DA:41,0
DA:43,0
end_of_record
SF:/usr/include/c++/11/system_error
FN:100,_ZNSt3_V214error_categoryC2Ev
FNDA:0,_ZNSt3_V214error_categoryC2Ev
FN:144,_ZNKSt3_V214error_categoryeqERKS0_
FNDA:0,_ZNKSt3_V214error_categoryeqERKS0_
FN:229,_ZNKSt10error_code5valueEv
FNDA:0,_ZNKSt10error_code5valueEv
FN:232,_ZNKSt10error_code8categoryEv
FNDA:0,_ZNKSt10error_code8categoryEv
FN:303,_ZNSt15error_conditionC2EiRKNSt3_V214error_categoryE
FNDA:0,_ZNSt15error_conditionC2EiRKNSt3_V214error_categoryE
FN:331,_ZNKSt15error_condition5valueEv
FNDA:0,_ZNKSt15error_condition5valueEv
FN:334,_ZNKSt15error_condition8categoryEv
FNDA:0,_ZNKSt15error_condition8categoryEv
FN:376,_ZSteqRKSt15error_conditionS1_
FNDA:0,_ZSteqRKSt15error_conditionS1_
DA:100,0
DA:144,0
DA:145,0
DA:229,0
DA:232,0
DA:303,0
DA:304,0
DA:331,0
DA:334,0
DA:376,0
DA:379,0
DA:380,0
end_of_record
SF:/usr/include/c++/11/ext/string_conversions.h
FN:54,_ZN9__gnu_cxx6__stoaIlicJiEEET0_PFT_PKT1_PPS3_DpT2_EPKcS5_PmS9_
FNDA:0,_ZN9__gnu_cxx6__stoaIlicJiEEET0_PFT_PKT1_PPS3_DpT2_EPKcS5_PmS9_
FN:63,_ZZN9__gnu_cxx6__stoaIlicJiEEET0_PFT_PKT1_PPS3_DpT2_EPKcS5_PmS9_EN11_Save_errnoC2Ev
FNDA:0,_ZZN9__gnu_cxx6__stoaIlicJiEEET0_PFT_PKT1_PPS3_DpT2_EPKcS5_PmS9_EN11_Save_errnoC2Ev
FN:64,_ZZN9__gnu_cxx6__stoaIlicJiEEET0_PFT_PKT1_PPS3_DpT2_EPKcS5_PmS9_EN11_Save_errnoD2Ev
FNDA:0,_ZZN9__gnu_cxx6__stoaIlicJiEEET0_PFT_PKT1_PPS3_DpT2_EPKcS5_PmS9_EN11_Save_errnoD2Ev
FN:73,_ZZN9__gnu_cxx6__stoaIlicJiEEET0_PFT_PKT1_PPS3_DpT2_EPKcS5_PmS9_EN10_Range_chk6_S_chkElSt17integral_constantIbLb1EE
FNDA:0,_ZZN9__gnu_cxx6__stoaIlicJiEEET0_PFT_PKT1_PPS3_DpT2_EPKcS5_PmS9_EN10_Range_chk6_S_chkElSt17integral_constantIbLb1EE
DA:54,0
DA:63,0
DA:64,0
DA:66,0
DA:73,0
DA:76,0
DA:80,0
DA:82,0
DA:83,0
DA:84,0
DA:85,0
DA:86,0
DA:88,0
DA:90,0
DA:91,0
DA:93,0
DA:94,0
end_of_record
SF:/usr/include/c++/11/bits/stl_construct.h
FN:80,_ZSt10destroy_atISt4pairIKPKN5boost6system14error_categoryESt10unique_ptrINS2_6detail12std_categoryESt14default_deleteIS9_EEEEvPT_
FNDA:0,_ZSt10destroy_atISt4pairIKPKN5boost6system14error_categoryESt10unique_ptrINS2_6detail12std_categoryESt14default_deleteIS9_EEEEvPT_
FN:94,_ZSt12construct_atISt4pairIKPKN5boost6system14error_categoryESt10unique_ptrINS2_6detail12std_categoryESt14default_deleteIS9_EEEJSD_EEDTgsnwcvPvLi0E_T_pispcl7declvalIT0_EEEEPSF_DpOSG_
FNDA:0,_ZSt12construct_atISt4pairIKPKN5boost6system14error_categoryESt10unique_ptrINS2_6detail12std_categoryESt14default_deleteIS9_EEEJSD_EEDTgsnwcvPvLi0E_T_pispcl7declvalIT0_EEEEPSF_DpOSG_
DA:80,0
DA:88,0
DA:89,0
DA:94,0
DA:97,0
end_of_record
SF:/usr/include/c++/11/bits/move.h
FN:49,_ZSt11__addressofIKcEPT_RS1_
FNDA:0,_ZSt11__addressofIKcEPT_RS1_
FN:49,_ZSt11__addressofIcEPT_RS0_
FNDA:0,_ZSt11__addressofIcEPT_RS0_
FN:77,_ZSt7forwardIRPSt18_Rb_tree_node_baseEOT_RNSt16remove_referenceIS3_E4typeE
FNDA:0,_ZSt7forwardIRPSt18_Rb_tree_node_baseEOT_RNSt16remove_referenceIS3_E4typeE
FN:77,_ZSt7forwardIbEOT_RNSt16remove_referenceIS0_E4typeE
FNDA:0,_ZSt7forwardIbEOT_RNSt16remove_referenceIS0_E4typeE
FN:77,_ZSt7forwardIPKN5boost6system14error_categoryEEOT_RNSt16remove_referenceIS5_E4typeE
FNDA:0,_ZSt7forwardIPKN5boost6system14error_categoryEEOT_RNSt16remove_referenceIS5_E4typeE
FN:77,_ZSt7forwardISt10unique_ptrIN5boost6system6detail12std_categoryESt14default_deleteIS4_EEEOT_RNSt16remove_referenceIS8_E4typeE
FNDA:0,_ZSt7forwardISt10unique_ptrIN5boost6system6detail12std_categoryESt14default_deleteIS4_EEEOT_RNSt16remove_referenceIS8_E4typeE
FN:77,_ZSt7forwardIRKNSt7__cxx1112basic_stringIcSt11char_traitsIcESaIcEEEEOT_RNSt16remove_referenceIS8_E4typeE
FNDA:0,_ZSt7forwardIRKNSt7__cxx1112basic_stringIcSt11char_traitsIcESaIcEEEEOT_RNSt16remove_referenceIS8_E4typeE
FN:77,_ZSt7forwardIRNSt7__cxx1112basic_stringIcSt11char_traitsIcESaIcEEEEOT_RNSt16remove_referenceIS7_E4typeE
FNDA:0,_ZSt7forwardIRNSt7__cxx1112basic_stringIcSt11char_traitsIcESaIcEEEEOT_RNSt16remove_referenceIS7_E4typeE
FN:77,_ZSt7forwardIPFvRKNSt7__cxx1112basic_stringIcSt11char_traitsIcESaIcEEEEEOT_RNSt16remove_referenceISA_E4typeE
FNDA:0,_ZSt7forwardIPFvRKNSt7__cxx1112basic_stringIcSt11char_traitsIcESaIcEEEEEOT_RNSt16remove_referenceISA_E4typeE
FN:77,_ZSt7forwardISt4pairIKPKN5boost6system14error_categoryESt10unique_ptrINS2_6detail12std_categoryESt14default_deleteIS9_EEEEOT_RNSt16remove_referenceISE_E4typeE
FNDA:0,_ZSt7forwardISt4pairIKPKN5boost6system14error_categoryESt10unique_ptrINS2_6detail12std_categoryESt14default_deleteIS9_EEEEOT_RNSt16remove_referenceISE_E4typeE
FN:77,_ZSt7forwardISt17_Rb_tree_iteratorISt4pairIKPKN5boost6system14error_categoryESt10unique_ptrINS3_6detail12std_categoryESt14default_deleteISA_EEEEEOT_RNSt16remove_referenceISG_E4typeE
FNDA:0,_ZSt7forwardISt17_Rb_tree_iteratorISt4pairIKPKN5boost6system14error_categoryESt10unique_ptrINS3_6detail12std_categoryESt14default_deleteISA_EEEEEOT_RNSt16remove_referenceISG_E4typeE
FN:77,_ZSt7forwardIRPSt13_Rb_tree_nodeISt4pairIKPKN5boost6system14error_categoryESt10unique_ptrINS3_6detail12std_categoryESt14default_deleteISA_EEEEEOT_RNSt16remove_referenceISI_E4typeE
FNDA:0,_ZSt7forwardIRPSt13_Rb_tree_nodeISt4pairIKPKN5boost6system14error_categoryESt10unique_ptrINS3_6detail12std_categoryESt14default_deleteISA_EEEEEOT_RNSt16remove_referenceISI_E4typeE
FN:104,_ZSt4moveIRSt5tupleIJPN5boost6system6detail12std_categoryESt14default_deleteIS4_EEEEONSt16remove_referenceIT_E4typeEOSB_
FNDA:0,_ZSt4moveIRSt5tupleIJPN5boost6system6detail12std_categoryESt14default_deleteIS4_EEEEONSt16remove_referenceIT_E4typeEOSB_
FN:104,_ZSt4moveIRSt4pairIKPKN5boost6system14error_categoryESt10unique_ptrINS2_6detail12std_categoryESt14default_deleteIS9_EEEEONSt16remove_referenceIT_E4typeEOSG_
FNDA:0,_ZSt4moveIRSt4pairIKPKN5boost6system14error_categoryESt10unique_ptrINS2_6detail12std_categoryESt14default_deleteIS9_EEEEONSt16remove_referenceIT_E4typeEOSG_
FN:104,_ZSt4moveIRPN5boost6system6detail12std_categoryEEONSt16remove_referenceIT_E4typeEOS7_
FNDA:0,_ZSt4moveIRPN5boost6system6detail12std_categoryEEONSt16remove_referenceIT_E4typeEOS7_
FN:104,_ZSt4moveIRSaIcEEONSt16remove_referenceIT_E4typeEOS3_
FNDA:0,_ZSt4moveIRSaIcEEONSt16remove_referenceIT_E4typeEOS3_
FN:104,_ZSt4moveIRSt10unique_ptrIN5boost6system6detail12std_categoryESt14default_deleteIS4_EEEONSt16remove_referenceIT_E4typeEOSA_
FNDA:0,_ZSt4moveIRSt10unique_ptrIN5boost6system6detail12std_categoryESt14default_deleteIS4_EEEONSt16remove_referenceIT_E4typeEOSA_
FN:145,_ZSt9addressofIcEPT_RS0_
FNDA:0,_ZSt9addressofIcEPT_RS0_
FN:145,_ZSt9addressofIKcEPT_RS1_
FNDA:0,_ZSt9addressofIKcEPT_RS1_
DA:49,0
DA:50,0
DA:49,0
DA:50,0
DA:77,0
DA:78,0
DA:77,0
DA:78,0
DA:77,0
DA:78,0
DA:77,0
DA:78,0
DA:77,0
DA:78,0
DA:77,0
DA:78,0
DA:77,0
DA:78,0
DA:77,0
DA:78,0
DA:77,0
DA:78,0
DA:77,0
DA:78,0
DA:104,0
DA:105,0
DA:104,0
DA:105,0
DA:104,0
DA:105,0
DA:104,0
DA:105,0
DA:104,0
DA:105,0
DA:145,0
DA:146,0
DA:145,0
DA:146,0
end_of_record
SF:/usr/include/boost/system/detail/generic_category.hpp
FN:25,_ZN5boost6system6detail17strerror_r_helperEPKcS3_
FNDA:0,_ZN5boost6system6detail17strerror_r_helperEPKcS3_
FN:35,_ZN5boost6system6detail30generic_error_category_messageEiPcm
FNDA:0,_ZN5boost6system6detail30generic_error_category_messageEiPcm
FN:40,_ZN5boost6system6detail30generic_error_category_messageB5cxx11Ei
FNDA:0,_ZN5boost6system6detail30generic_error_category_messageB5cxx11Ei
DA:25,0
DA:27,0
DA:35,0
DA:37,0
DA:40,0
DA:43,0
end_of_record
SF:/usr/include/c++/11/bits/stl_tree.h
FN:146,_ZNSt20_Rb_tree_key_compareIN5boost6system6detail12cat_ptr_lessEEC2Ev
FNDA:0,_ZNSt20_Rb_tree_key_compareIN5boost6system6detail12cat_ptr_lessEEC2Ev
FN:173,_ZNSt15_Rb_tree_headerC2Ev
FNDA:0,_ZNSt15_Rb_tree_headerC2Ev
FN:206,_ZNSt15_Rb_tree_header8_M_resetEv
FNDA:0,_ZNSt15_Rb_tree_header8_M_resetEv
FN:234,_ZNSt13_Rb_tree_nodeISt4pairIKPKN5boost6system14error_categoryESt10unique_ptrINS2_6detail12std_categoryESt14default_deleteIS9_EEEE9_M_valptrEv
FNDA:0,_ZNSt13_Rb_tree_nodeISt4pairIKPKN5boost6system14error_categoryESt10unique_ptrINS2_6detail12std_categoryESt14default_deleteIS9_EEEE9_M_valptrEv
FN:238,_ZNKSt13_Rb_tree_nodeISt4pairIKPKN5boost6system14error_categoryESt10unique_ptrINS2_6detail12std_categoryESt14default_deleteIS9_EEEE9_M_valptrEv
FNDA:0,_ZNKSt13_Rb_tree_nodeISt4pairIKPKN5boost6system14error_categoryESt10unique_ptrINS2_6detail12std_categoryESt14default_deleteIS9_EEEE9_M_valptrEv
FN:273,_ZNSt17_Rb_tree_iteratorISt4pairIKPKN5boost6system14error_categoryESt10unique_ptrINS2_6detail12std_categoryESt14default_deleteIS9_EEEEC2EPSt18_Rb_tree_node_base
FNDA:0,_ZNSt17_Rb_tree_iteratorISt4pairIKPKN5boost6system14error_categoryESt10unique_ptrINS2_6detail12std_categoryESt14default_deleteIS9_EEEEC2EPSt18_Rb_tree_node_base
FN:281,_ZNKSt17_Rb_tree_iteratorISt4pairIKPKN5boost6system14error_categoryESt10unique_ptrINS2_6detail12std_categoryESt14default_deleteIS9_EEEEptEv
FNDA:0,_ZNKSt17_Rb_tree_iteratorISt4pairIKPKN5boost6system14error_categoryESt10unique_ptrINS2_6detail12std_categoryESt14default_deleteIS9_EEEEptEv
FN:300,_ZNSt17_Rb_tree_iteratorISt4pairIKPKN5boost6system14error_categoryESt10unique_ptrINS2_6detail12std_categoryESt14default_deleteIS9_EEEEmmEv
FNDA:0,_ZNSt17_Rb_tree_iteratorISt4pairIKPKN5boost6system14error_categoryESt10unique_ptrINS2_6detail12std_categoryESt14default_deleteIS9_EEEEmmEv
FN:315,_ZSteqRKSt17_Rb_tree_iteratorISt4pairIKPKN5boost6system14error_categoryESt10unique_ptrINS2_6detail12std_categoryESt14default_deleteIS9_EEEESG_
FNDA:0,_ZSteqRKSt17_Rb_tree_iteratorISt4pairIKPKN5boost6system14error_categoryESt10unique_ptrINS2_6detail12std_categoryESt14default_deleteIS9_EEEESG_
FN:523,_ZNSt8_Rb_treeIPKN5boost6system14error_categoryESt4pairIKS4_St10unique_ptrINS1_6detail12std_categoryESt14default_deleteIS9_EEESt10_Select1stISD_ENS8_12cat_ptr_lessESaISD_EE11_Alloc_nodeC2ERSI_
FNDA:0,_ZNSt8_Rb_treeIPKN5boost6system14error_categoryESt4pairIKS4_St10unique_ptrINS1_6detail12std_categoryESt14default_deleteIS9_EEESt10_Select1stISD_ENS8_12cat_ptr_lessESaISD_EE11_Alloc_nodeC2ERSI_
FN:528,_ZNKSt8_Rb_treeIPKN5boost6system14error_categoryESt4pairIKS4_St10unique_ptrINS1_6detail12std_categoryESt14default_deleteIS9_EEESt10_Select1stISD_ENS8_12cat_ptr_lessESaISD_EE11_Alloc_nodeclISD_EEPSt13_Rb_tree_nodeISD_EOT_
FNDA:0,_ZNKSt8_Rb_treeIPKN5boost6system14error_categoryESt4pairIKS4_St10unique_ptrINS1_6detail12std_categoryESt14default_deleteIS9_EEESt10_Select1stISD_ENS8_12cat_ptr_lessESaISD_EE11_Alloc_nodeclISD_EEPSt13_Rb_tree_nodeISD_EOT_
FN:547,_ZNSt8_Rb_treeIPKN5boost6system14error_categoryESt4pairIKS4_St10unique_ptrINS1_6detail12std_categoryESt14default_deleteIS9_EEESt10_Select1stISD_ENS8_12cat_ptr_lessESaISD_EE21_M_get_Node_allocatorEv
FNDA:0,_ZNSt8_Rb_treeIPKN5boost6system14error_categoryESt4pairIKS4_St10unique_ptrINS1_6detail12std_categoryESt14default_deleteIS9_EEESt10_Select1stISD_ENS8_12cat_ptr_lessESaISD_EE21_M_get_Node_allocatorEv
FN:560,_ZNSt8_Rb_treeIPKN5boost6system14error_categoryESt4pairIKS4_St10unique_ptrINS1_6detail12std_categoryESt14default_deleteIS9_EEESt10_Select1stISD_ENS8_12cat_ptr_lessESaISD_EE11_M_get_nodeEv
FNDA:0,_ZNSt8_Rb_treeIPKN5boost6system14error_categoryESt4pairIKS4_St10unique_ptrINS1_6detail12std_categoryESt14default_deleteIS9_EEESt10_Select1stISD_ENS8_12cat_ptr_lessESaISD_EE11_M_get_nodeEv
FN:564,_ZNSt8_Rb_treeIPKN5boost6system14error_categoryESt4pairIKS4_St10unique_ptrINS1_6detail12std_categoryESt14default_deleteIS9_EEESt10_Select1stISD_ENS8_12cat_ptr_lessESaISD_EE11_M_put_nodeEPSt13_Rb_tree_nodeISD_E
FNDA:0,_ZNSt8_Rb_treeIPKN5boost6system14error_categoryESt4pairIKS4_St10unique_ptrINS1_6detail12std_categoryESt14default_deleteIS9_EEESt10_Select1stISD_ENS8_12cat_ptr_lessESaISD_EE11_M_put_nodeEPSt13_Rb_tree_nodeISD_E
FN:590,_ZNSt8_Rb_treeIPKN5boost6system14error_categoryESt4pairIKS4_St10unique_ptrINS1_6detail12std_categoryESt14default_deleteIS9_EEESt10_Select1stISD_ENS8_12cat_ptr_lessESaISD_EE17_M_construct_nodeIJSD_EEEvPSt13_Rb_tree_nodeISD_EDpOT_
FNDA:0,_ZNSt8_Rb_treeIPKN5boost6system14error_categoryESt4pairIKS4_St10unique_ptrINS1_6detail12std_categoryESt14default_deleteIS9_EEESt10_Select1stISD_ENS8_12cat_ptr_lessESaISD_EE17_M_construct_nodeIJSD_EEEvPSt13_Rb_tree_nodeISD_EDpOT_
FN:609,_ZNSt8_Rb_treeIPKN5boost6system14error_categoryESt4pairIKS4_St10unique_ptrINS1_6detail12std_categoryESt14default_deleteIS9_EEESt10_Select1stISD_ENS8_12cat_ptr_lessESaISD_EE14_M_create_nodeIJSD_EEEPSt13_Rb_tree_nodeISD_EDpOT_
FNDA:0,_ZNSt8_Rb_treeIPKN5boost6system14error_categoryESt4pairIKS4_St10unique_ptrINS1_6detail12std_categoryESt14default_deleteIS9_EEESt10_Select1stISD_ENS8_12cat_ptr_lessESaISD_EE14_M_create_nodeIJSD_EEEPSt13_Rb_tree_nodeISD_EDpOT_
FN:618,_ZNSt8_Rb_treeIPKN5boost6system14error_categoryESt4pairIKS4_St10unique_ptrINS1_6detail12std_categoryESt14default_deleteIS9_EEESt10_Select1stISD_ENS8_12cat_ptr_lessESaISD_EE15_M_destroy_nodeEPSt13_Rb_tree_nodeISD_E
FNDA:0,_ZNSt8_Rb_treeIPKN5boost6system14error_categoryESt4pairIKS4_St10unique_ptrINS1_6detail12std_categoryESt14default_deleteIS9_EEESt10_Select1stISD_ENS8_12cat_ptr_lessESaISD_EE15_M_destroy_nodeEPSt13_Rb_tree_nodeISD_E
FN:629,_ZNSt8_Rb_treeIPKN5boost6system14error_categoryESt4pairIKS4_St10unique_ptrINS1_6detail12std_categoryESt14default_deleteIS9_EEESt10_Select1stISD_ENS8_12cat_ptr_lessESaISD_EE12_M_drop_nodeEPSt13_Rb_tree_nodeISD_E
FNDA:0,_ZNSt8_Rb_treeIPKN5boost6system14error_categoryESt4pairIKS4_St10unique_ptrINS1_6detail12std_categoryESt14default_deleteIS9_EEESt10_Select1stISD_ENS8_12cat_ptr_lessESaISD_EE12_M_drop_nodeEPSt13_Rb_tree_nodeISD_E
FN:667,_ZNSt8_Rb_treeIPKN5boost6system14error_categoryESt4pairIKS4_St10unique_ptrINS1_6detail12std_categoryESt14default_deleteIS9_EEESt10_Select1stISD_ENS8_12cat_ptr_lessESaISD_EE13_Rb_tree_implISG_Lb1EEC2Ev
FNDA:0,_ZNSt8_Rb_treeIPKN5boost6system14error_categoryESt4pairIKS4_St10unique_ptrINS1_6detail12std_categoryESt14default_deleteIS9_EEESt10_Select1stISD_ENS8_12cat_ptr_lessESaISD_EE13_Rb_tree_implISG_Lb1EEC2Ev
FN:734,_ZNKSt8_Rb_treeIPKN5boost6system14error_categoryESt4pairIKS4_St10unique_ptrINS1_6detail12std_categoryESt14default_deleteIS9_EEESt10_Select1stISD_ENS8_12cat_ptr_lessESaISD_EE9_M_mbeginEv
FNDA:0,_ZNKSt8_Rb_treeIPKN5boost6system14error_categoryESt4pairIKS4_St10unique_ptrINS1_6detail12std_categoryESt14default_deleteIS9_EEESt10_Select1stISD_ENS8_12cat_ptr_lessESaISD_EE9_M_mbeginEv
FN:738,_ZNSt8_Rb_treeIPKN5boost6system14error_categoryESt4pairIKS4_St10unique_ptrINS1_6detail12std_categoryESt14default_deleteIS9_EEESt10_Select1stISD_ENS8_12cat_ptr_lessESaISD_EE8_M_beginEv
FNDA:0,_ZNSt8_Rb_treeIPKN5boost6system14error_categoryESt4pairIKS4_St10unique_ptrINS1_6detail12std_categoryESt14default_deleteIS9_EEESt10_Select1stISD_ENS8_12cat_ptr_lessESaISD_EE8_M_beginEv
FN:749,_ZNSt8_Rb_treeIPKN5boost6system14error_categoryESt4pairIKS4_St10unique_ptrINS1_6detail12std_categoryESt14default_deleteIS9_EEESt10_Select1stISD_ENS8_12cat_ptr_lessESaISD_EE6_M_endEv
FNDA:0,_ZNSt8_Rb_treeIPKN5boost6system14error_categoryESt4pairIKS4_St10unique_ptrINS1_6detail12std_categoryESt14default_deleteIS9_EEESt10_Select1stISD_ENS8_12cat_ptr_lessESaISD_EE6_M_endEv
FN:757,_ZNSt8_Rb_treeIPKN5boost6system14error_categoryESt4pairIKS4_St10unique_ptrINS1_6detail12std_categoryESt14default_deleteIS9_EEESt10_Select1stISD_ENS8_12cat_ptr_lessESaISD_EE6_S_keyEPKSt13_Rb_tree_nodeISD_E
FNDA:0,_ZNSt8_Rb_treeIPKN5boost6system14error_categoryESt4pairIKS4_St10unique_ptrINS1_6detail12std_categoryESt14default_deleteIS9_EEESt10_Select1stISD_ENS8_12cat_ptr_lessESaISD_EE6_S_keyEPKSt13_Rb_tree_nodeISD_E
FN:779,_ZNSt8_Rb_treeIPKN5boost6system14error_categoryESt4pairIKS4_St10unique_ptrINS1_6detail12std_categoryESt14default_deleteIS9_EEESt10_Select1stISD_ENS8_12cat_ptr_lessESaISD_EE7_S_leftEPSt18_Rb_tree_node_base
FNDA:0,_ZNSt8_Rb_treeIPKN5boost6system14error_categoryESt4pairIKS4_St10unique_ptrINS1_6detail12std_categoryESt14default_deleteIS9_EEESt10_Select1stISD_ENS8_12cat_ptr_lessESaISD_EE7_S_leftEPSt18_Rb_tree_node_base
FN:787,_ZNSt8_Rb_treeIPKN5boost6system14error_categoryESt4pairIKS4_St10unique_ptrINS1_6detail12std_categoryESt14default_deleteIS9_EEESt10_Select1stISD_ENS8_12cat_ptr_lessESaISD_EE8_S_rightEPSt18_Rb_tree_node_base
FNDA:0,_ZNSt8_Rb_treeIPKN5boost6system14error_categoryESt4pairIKS4_St10unique_ptrINS1_6detail12std_categoryESt14default_deleteIS9_EEESt10_Select1stISD_ENS8_12cat_ptr_lessESaISD_EE8_S_rightEPSt18_Rb_tree_node_base
FN:795,_ZNSt8_Rb_treeIPKN5boost6system14error_categoryESt4pairIKS4_St10unique_ptrINS1_6detail12std_categoryESt14default_deleteIS9_EEESt10_Select1stISD_ENS8_12cat_ptr_lessESaISD_EE6_S_keyEPKSt18_Rb_tree_node_base
FNDA:0,_ZNSt8_Rb_treeIPKN5boost6system14error_categoryESt4pairIKS4_St10unique_ptrINS1_6detail12std_categoryESt14default_deleteIS9_EEESt10_Select1stISD_ENS8_12cat_ptr_lessESaISD_EE6_S_keyEPKSt18_Rb_tree_node_base
FN:928,_ZNSt8_Rb_treeIPKN5boost6system14error_categoryESt4pairIKS4_St10unique_ptrINS1_6detail12std_categoryESt14default_deleteIS9_EEESt10_Select1stISD_ENS8_12cat_ptr_lessESaISD_EEC2Ev
FNDA:0,_ZNSt8_Rb_treeIPKN5boost6system14error_categoryESt4pairIKS4_St10unique_ptrINS1_6detail12std_categoryESt14default_deleteIS9_EEESt10_Select1stISD_ENS8_12cat_ptr_lessESaISD_EEC2Ev
FN:983,_ZNSt8_Rb_treeIPKN5boost6system14error_categoryESt4pairIKS4_St10unique_ptrINS1_6detail12std_categoryESt14default_deleteIS9_EEESt10_Select1stISD_ENS8_12cat_ptr_lessESaISD_EED2Ev
FNDA:0,_ZNSt8_Rb_treeIPKN5boost6system14error_categoryESt4pairIKS4_St10unique_ptrINS1_6detail12std_categoryESt14default_deleteIS9_EEESt10_Select1stISD_ENS8_12cat_ptr_lessESaISD_EED2Ev
FN:995,_ZNSt8_Rb_treeIPKN5boost6system14error_categoryESt4pairIKS4_St10unique_ptrINS1_6detail12std_categoryESt14default_deleteIS9_EEESt10_Select1stISD_ENS8_12cat_ptr_lessESaISD_EE5beginEv
FNDA:0,_ZNSt8_Rb_treeIPKN5boost6system14error_categoryESt4pairIKS4_St10unique_ptrINS1_6detail12std_categoryESt14default_deleteIS9_EEESt10_Select1stISD_ENS8_12cat_ptr_lessESaISD_EE5beginEv
FN:1003,_ZNSt8_Rb_treeIPKN5boost6system14error_categoryESt4pairIKS4_St10unique_ptrINS1_6detail12std_categoryESt14default_deleteIS9_EEESt10_Select1stISD_ENS8_12cat_ptr_lessESaISD_EE3endEv
FNDA:0,_ZNSt8_Rb_treeIPKN5boost6system14error_categoryESt4pairIKS4_St10unique_ptrINS1_6detail12std_categoryESt14default_deleteIS9_EEESt10_Select1stISD_ENS8_12cat_ptr_lessESaISD_EE3endEv
FN:1771,_ZNSt8_Rb_treeIPKN5boost6system14error_categoryESt4pairIKS4_St10unique_ptrINS1_6detail12std_categoryESt14default_deleteIS9_EEESt10_Select1stISD_ENS8_12cat_ptr_lessESaISD_EE10_M_insert_ISD_NSI_11_Alloc_nodeEEESt17_Rb_tree_iteratorISD_EPSt18_Rb_tree_node_baseSO_OT_RT0_
FNDA:0,_ZNSt8_Rb_treeIPKN5boost6system14error_categoryESt4pairIKS4_St10unique_ptrINS1_6detail12std_categoryESt14default_deleteIS9_EEESt10_Select1stISD_ENS8_12cat_ptr_lessESaISD_EE10_M_insert_ISD_NSI_11_Alloc_nodeEEESt17_Rb_tree_iteratorISD_EPSt18_Rb_tree_node_baseSO_OT_RT0_
FN:1883,_ZNSt8_Rb_treeIPKN5boost6system14error_categoryESt4pairIKS4_St10unique_ptrINS1_6detail12std_categoryESt14default_deleteIS9_EEESt10_Select1stISD_ENS8_12cat_ptr_lessESaISD_EE8_M_eraseEPSt13_Rb_tree_nodeISD_E
FNDA:0,_ZNSt8_Rb_treeIPKN5boost6system14error_categoryESt4pairIKS4_St10unique_ptrINS1_6detail12std_categoryESt14default_deleteIS9_EEESt10_Select1stISD_ENS8_12cat_ptr_lessESaISD_EE8_M_eraseEPSt13_Rb_tree_nodeISD_E
FN:1900,_ZNSt8_Rb_treeIPKN5boost6system14error_categoryESt4pairIKS4_St10unique_ptrINS1_6detail12std_categoryESt14default_deleteIS9_EEESt10_Select1stISD_ENS8_12cat_ptr_lessESaISD_EE14_M_lower_boundEPSt13_Rb_tree_nodeISD_EPSt18_Rb_tree_node_baseRS6_
FNDA:0,_ZNSt8_Rb_treeIPKN5boost6system14error_categoryESt4pairIKS4_St10unique_ptrINS1_6detail12std_categoryESt14default_deleteIS9_EEESt10_Select1stISD_ENS8_12cat_ptr_lessESaISD_EE14_M_lower_boundEPSt13_Rb_tree_nodeISD_EPSt18_Rb_tree_node_baseRS6_
FN:2061,_ZNSt8_Rb_treeIPKN5boost6system14error_categoryESt4pairIKS4_St10unique_ptrINS1_6detail12std_categoryESt14default_deleteIS9_EEESt10_Select1stISD_ENS8_12cat_ptr_lessESaISD_EE24_M_get_insert_unique_posERS6_
FNDA:0,_ZNSt8_Rb_treeIPKN5boost6system14error_categoryESt4pairIKS4_St10unique_ptrINS1_6detail12std_categoryESt14default_deleteIS9_EEESt10_Select1stISD_ENS8_12cat_ptr_lessESaISD_EE24_M_get_insert_unique_posERS6_
FN:2115,_ZNSt8_Rb_treeIPKN5boost6system14error_categoryESt4pairIKS4_St10unique_ptrINS1_6detail12std_categoryESt14default_deleteIS9_EEESt10_Select1stISD_ENS8_12cat_ptr_lessESaISD_EE16_M_insert_uniqueISD_EES5_ISt17_Rb_tree_iteratorISD_EbEOT_
FNDA:0,_ZNSt8_Rb_treeIPKN5boost6system14error_categoryESt4pairIKS4_St10unique_ptrINS1_6detail12std_categoryESt14default_deleteIS9_EEESt10_Select1stISD_ENS8_12cat_ptr_lessESaISD_EE16_M_insert_uniqueISD_EES5_ISt17_Rb_tree_iteratorISD_EbEOT_
FN:2520,_ZNSt8_Rb_treeIPKN5boost6system14error_categoryESt4pairIKS4_St10unique_ptrINS1_6detail12std_categoryESt14default_deleteIS9_EEESt10_Select1stISD_ENS8_12cat_ptr_lessESaISD_EE4findERS6_
FNDA:0,_ZNSt8_Rb_treeIPKN5boost6system14error_categoryESt4pairIKS4_St10unique_ptrINS1_6detail12std_categoryESt14default_deleteIS9_EEESt10_Select1stISD_ENS8_12cat_ptr_lessESaISD_EE4findERS6_
DA:146,0
DA:150,0
DA:173,0
DA:174,0
DA:175,0
DA:176,0
DA:177,0
DA:206,0
DA:208,0
DA:209,0
DA:210,0
DA:211,0
DA:212,0
DA:234,0
DA:235,0
DA:238,0
DA:239,0
DA:273,0
DA:274,0
DA:281,0
DA:282,0
DA:300,0
DA:302,0
DA:303,0
DA:315,0
DA:316,0
DA:523,0
DA:524,0
DA:528,0
DA:529,0
DA:547,0
DA:548,0
DA:560,0
DA:561,0
DA:564,0
DA:565,0
DA:590,0
DA:594,0
DA:595,0
DA:605,0
DA:609,0
DA:611,0
DA:612,0
DA:613,0
DA:618,0
DA:623,0
DA:624,0
DA:626,0
DA:629,0
DA:631,0
DA:632,0
DA:633,0
DA:667,0
DA:671,0
DA:672,0
DA:734,0
DA:735,0
DA:738,0
DA:739,0
DA:749,0
DA:750,0
DA:757,0
DA:775,0
DA:779,0
DA:780,0
DA:787,0
DA:788,0
DA:795,0
DA:796,0
DA:928,0
DA:983,0
DA:984,0
DA:995,0
DA:996,0
DA:1003,0
DA:1004,0
DA:1771,0
DA:1780,0
DA:1781,0
DA:1782,0
DA:1784,0
DA:1786,0
DA:1787,0
DA:1788,0
DA:1789,0
DA:1883,0
DA:1887,0
DA:1889,0
DA:1890,0
DA:1891,0
DA:1892,0
DA:1894,0
DA:1900,0
DA:1904,0
DA:1905,0
DA:1906,0
DA:1908,0
DA:1909,0
DA:2061,0
DA:2065,0
DA:2066,0
DA:2067,0
DA:2068,0
DA:2070,0
DA:2071,0
DA:2072,0
DA:2074,0
DA:2075,0
DA:2077,0
DA:2078,0
DA:2080,0
DA:2082,0
DA:2083,0
DA:2084,0
DA:2115,0
DA:2124,0
DA:2126,0
DA:2128,0
DA:2129,0
DA:2131,0
DA:2134,0
DA:2520,0
DA:2523,0
DA:2524,0
DA:2525,0
DA:2526,0
end_of_record
SF:/usr/include/c++/11/bits/basic_string.h
FN:164,_ZNSt7__cxx1112basic_stringIcSt11char_traitsIcESaIcEE12_Alloc_hiderC2EPcRKS3_
FNDA:0,_ZNSt7__cxx1112basic_stringIcSt11char_traitsIcESaIcEE12_Alloc_hiderC2EPcRKS3_
FN:167,_ZNSt7__cxx1112basic_stringIcSt11char_traitsIcESaIcEE12_Alloc_hiderC2EPcOS3_
FNDA:0,_ZNSt7__cxx1112basic_stringIcSt11char_traitsIcESaIcEE12_Alloc_hiderC2EPcOS3_
FN:186,_ZNSt7__cxx1112basic_stringIcSt11char_traitsIcESaIcEE7_M_dataEPc
FNDA:0,_ZNSt7__cxx1112basic_stringIcSt11char_traitsIcESaIcEE7_M_dataEPc
FN:190,_ZNSt7__cxx1112basic_stringIcSt11char_traitsIcESaIcEE9_M_lengthEm
FNDA:0,_ZNSt7__cxx1112basic_stringIcSt11char_traitsIcESaIcEE9_M_lengthEm
FN:194,_ZNKSt7__cxx1112basic_stringIcSt11char_traitsIcESaIcEE7_M_dataEv
FNDA:0,_ZNKSt7__cxx1112basic_stringIcSt11char_traitsIcESaIcEE7_M_dataEv
FN:198,_ZNSt7__cxx1112basic_stringIcSt11char_traitsIcESaIcEE13_M_local_dataEv
FNDA:0,_ZNSt7__cxx1112basic_stringIcSt11char_traitsIcESaIcEE13_M_local_dataEv
FN:208,_ZNKSt7__cxx1112basic_stringIcSt11char_traitsIcESaIcEE13_M_local_dataEv
FNDA:0,_ZNKSt7__cxx1112basic_stringIcSt11char_traitsIcESaIcEE13_M_local_dataEv
FN:218,_ZNSt7__cxx1112basic_stringIcSt11char_traitsIcESaIcEE11_M_capacityEm
FNDA:0,_ZNSt7__cxx1112basic_stringIcSt11char_traitsIcESaIcEE11_M_capacityEm
FN:222,_ZNSt7__cxx1112basic_stringIcSt11char_traitsIcESaIcEE13_M_set_lengthEm
FNDA:0,_ZNSt7__cxx1112basic_stringIcSt11char_traitsIcESaIcEE13_M_set_lengthEm
FN:229,_ZNKSt7__cxx1112basic_stringIcSt11char_traitsIcESaIcEE11_M_is_localEv
FNDA:0,_ZNKSt7__cxx1112basic_stringIcSt11char_traitsIcESaIcEE11_M_is_localEv
FN:237,_ZNSt7__cxx1112basic_stringIcSt11char_traitsIcESaIcEE10_M_disposeEv
FNDA:0,_ZNSt7__cxx1112basic_stringIcSt11char_traitsIcESaIcEE10_M_disposeEv
FN:244,_ZNSt7__cxx1112basic_stringIcSt11char_traitsIcESaIcEE10_M_destroyEm
FNDA:0,_ZNSt7__cxx1112basic_stringIcSt11char_traitsIcESaIcEE10_M_destroyEm
FN:294,_ZNSt7__cxx1112basic_stringIcSt11char_traitsIcESaIcEE16_M_get_allocatorEv
FNDA:0,_ZNSt7__cxx1112basic_stringIcSt11char_traitsIcESaIcEE16_M_get_allocatorEv
FN:298,_ZNKSt7__cxx1112basic_stringIcSt11char_traitsIcESaIcEE16_M_get_allocatorEv
FNDA:0,_ZNKSt7__cxx1112basic_stringIcSt11char_traitsIcESaIcEE16_M_get_allocatorEv
FN:328,_ZNKSt7__cxx1112basic_stringIcSt11char_traitsIcESaIcEE15_M_check_lengthEmmPKc
FNDA:0,_ZNKSt7__cxx1112basic_stringIcSt11char_traitsIcESaIcEE15_M_check_lengthEmmPKc
FN:345,_ZNKSt7__cxx1112basic_stringIcSt11char_traitsIcESaIcEE11_M_disjunctEPKc
FNDA:0,_ZNKSt7__cxx1112basic_stringIcSt11char_traitsIcESaIcEE11_M_disjunctEPKc
FN:354,_ZNSt7__cxx1112basic_stringIcSt11char_traitsIcESaIcEE7_S_copyEPcPKcm
FNDA:0,_ZNSt7__cxx1112basic_stringIcSt11char_traitsIcESaIcEE7_S_copyEPcPKcm
FN:363,_ZNSt7__cxx1112basic_stringIcSt11char_traitsIcESaIcEE7_S_moveEPcPKcm
FNDA:0,_ZNSt7__cxx1112basic_stringIcSt11char_traitsIcESaIcEE7_S_moveEPcPKcm
FN:404,_ZNSt7__cxx1112basic_stringIcSt11char_traitsIcESaIcEE13_S_copy_charsEPcPKcS7_
FNDA:0,_ZNSt7__cxx1112basic_stringIcSt11char_traitsIcESaIcEE13_S_copy_charsEPcPKcS7_
FN:439,_ZNSt7__cxx1112basic_stringIcSt11char_traitsIcESaIcEEC2Ev
FNDA:0,_ZNSt7__cxx1112basic_stringIcSt11char_traitsIcESaIcEEC2Ev
FN:533,_ZNSt7__cxx1112basic_stringIcSt11char_traitsIcESaIcEEC2IS3_EEPKcRKS3_
FNDA:0,_ZNSt7__cxx1112basic_stringIcSt11char_traitsIcESaIcEEC2IS3_EEPKcRKS3_
FN:671,_ZNSt7__cxx1112basic_stringIcSt11char_traitsIcESaIcEED2Ev
FNDA:0,_ZNSt7__cxx1112basic_stringIcSt11char_traitsIcESaIcEED2Ev
FN:689,_ZNSt7__cxx1112basic_stringIcSt11char_traitsIcESaIcEEaSEPKc
FNDA:0,_ZNSt7__cxx1112basic_stringIcSt11char_traitsIcESaIcEEaSEPKc
FN:920,_ZNKSt7__cxx1112basic_stringIcSt11char_traitsIcESaIcEE4sizeEv
FNDA:0,_ZNKSt7__cxx1112basic_stringIcSt11char_traitsIcESaIcEE4sizeEv
FN:926,_ZNKSt7__cxx1112basic_stringIcSt11char_traitsIcESaIcEE6lengthEv
FNDA:0,_ZNKSt7__cxx1112basic_stringIcSt11char_traitsIcESaIcEE6lengthEv
FN:931,_ZNKSt7__cxx1112basic_stringIcSt11char_traitsIcESaIcEE8max_sizeEv
FNDA:0,_ZNKSt7__cxx1112basic_stringIcSt11char_traitsIcESaIcEE8max_sizeEv
FN:976,_ZNKSt7__cxx1112basic_stringIcSt11char_traitsIcESaIcEE8capacityEv
FNDA:0,_ZNKSt7__cxx1112basic_stringIcSt11char_traitsIcESaIcEE8capacityEv
FN:1023,_ZNKSt7__cxx1112basic_stringIcSt11char_traitsIcESaIcEE5emptyEv
FNDA:0,_ZNKSt7__cxx1112basic_stringIcSt11char_traitsIcESaIcEE5emptyEv
FN:1160,_ZNSt7__cxx1112basic_stringIcSt11char_traitsIcESaIcEEpLERKS4_
FNDA:0,_ZNSt7__cxx1112basic_stringIcSt11char_traitsIcESaIcEEpLERKS4_
FN:1169,_ZNSt7__cxx1112basic_stringIcSt11char_traitsIcESaIcEEpLEPKc
FNDA:0,_ZNSt7__cxx1112basic_stringIcSt11char_traitsIcESaIcEEpLEPKc
FN:1213,_ZNSt7__cxx1112basic_stringIcSt11char_traitsIcESaIcEE6appendERKS4_
FNDA:0,_ZNSt7__cxx1112basic_stringIcSt11char_traitsIcESaIcEE6appendERKS4_
FN:1255,_ZNSt7__cxx1112basic_stringIcSt11char_traitsIcESaIcEE6appendEPKc
FNDA:0,_ZNSt7__cxx1112basic_stringIcSt11char_traitsIcESaIcEE6appendEPKc
FN:1456,_ZNSt7__cxx1112basic_stringIcSt11char_traitsIcESaIcEE6assignEPKc
FNDA:0,_ZNSt7__cxx1112basic_stringIcSt11char_traitsIcESaIcEE6assignEPKc
FN:2320,_ZNKSt7__cxx1112basic_stringIcSt11char_traitsIcESaIcEE5c_strEv
FNDA:0,_ZNKSt7__cxx1112basic_stringIcSt11char_traitsIcESaIcEE5c_strEv
FN:6619,_ZNSt7__cxx114stoiERKNS_12basic_stringIcSt11char_traitsIcESaIcEEEPmi
FNDA:0,_ZNSt7__cxx114stoiERKNS_12basic_stringIcSt11char_traitsIcESaIcEEEPmi
DA:164,0
DA:165,0
DA:167,0
DA:168,0
DA:186,0
DA:187,0
DA:190,0
DA:191,0
DA:194,0
DA:195,0
DA:198,0
DA:201,0
DA:208,0
DA:211,0
DA:218,0
DA:219,0
DA:222,0
DA:224,0
DA:225,0
DA:226,0
DA:229,0
DA:230,0
DA:237,0
DA:239,0
DA:240,0
DA:241,0
DA:244,0
DA:245,0
DA:294,0
DA:295,0
DA:298,0
DA:299,0
DA:328,0
DA:330,0
DA:331,0
DA:332,0
DA:345,0
DA:347,0
DA:348,0
DA:354,0
DA:356,0
DA:357,0
DA:359,0
DA:360,0
DA:363,0
DA:365,0
DA:366,0
DA:368,0
DA:369,0
DA:404,0
DA:406,0
DA:439,0
DA:441,0
DA:442,0
DA:533,0
DA:534,0
DA:536,0
DA:539,0
DA:540,0
DA:671,0
DA:672,0
DA:689,0
DA:690,0
DA:920,0
DA:921,0
DA:926,0
DA:927,0
DA:931,0
DA:932,0
DA:976,0
DA:978,0
DA:979,0
DA:1023,0
DA:1024,0
DA:1160,0
DA:1161,0
DA:1169,0
DA:1170,0
DA:1213,0
DA:1214,0
DA:1255,0
DA:1258,0
DA:1259,0
DA:1260,0
DA:1456,0
DA:1459,0
DA:1460,0
DA:2320,0
DA:2321,0
DA:6619,0
DA:6620,0
DA:6621,0
end_of_record
SF:/usr/include/c++/11/bits/stl_pair.h
FN:315,_ZNSt4pairIKPKN5boost6system14error_categoryESt10unique_ptrINS1_6detail12std_categoryESt14default_deleteIS8_EEEC2EOSC_
FNDA:0,_ZNSt4pairIKPKN5boost6system14error_categoryESt10unique_ptrINS1_6detail12std_categoryESt14default_deleteIS8_EEEC2EOSC_
FN:322,_ZNSt4pairIPSt18_Rb_tree_node_baseS1_EC2IRS1_Lb1EEEOT_RKS1_
FNDA:0,_ZNSt4pairIPSt18_Rb_tree_node_baseS1_EC2IRS1_Lb1EEEOT_RKS1_
FN:352,_ZNSt4pairIPSt18_Rb_tree_node_baseS1_EC2IRPSt13_Rb_tree_nodeIS_IKPKN5boost6system14error_categoryESt10unique_ptrINS6_6detail12std_categoryESt14default_deleteISD_EEEERS1_Lb1EEEOT_OT0_
FNDA:0,_ZNSt4pairIPSt18_Rb_tree_node_baseS1_EC2IRPSt13_Rb_tree_nodeIS_IKPKN5boost6system14error_categoryESt10unique_ptrINS6_6detail12std_categoryESt14default_deleteISD_EEEERS1_Lb1EEEOT_OT0_
FN:352,_ZNSt4pairISt17_Rb_tree_iteratorIS_IKPKN5boost6system14error_categoryESt10unique_ptrINS2_6detail12std_categoryESt14default_deleteIS9_EEEEbEC2ISE_bLb1EEEOT_OT0_
FNDA:0,_ZNSt4pairISt17_Rb_tree_iteratorIS_IKPKN5boost6system14error_categoryESt10unique_ptrINS2_6detail12std_categoryESt14default_deleteIS9_EEEEbEC2ISE_bLb1EEEOT_OT0_
FN:352,_ZNSt4pairIKPKN5boost6system14error_categoryESt10unique_ptrINS1_6detail12std_categoryESt14default_deleteIS8_EEEC2IS4_SB_Lb1EEEOT_OT0_
FNDA:0,_ZNSt4pairIKPKN5boost6system14error_categoryESt10unique_ptrINS1_6detail12std_categoryESt14default_deleteIS8_EEEC2IS4_SB_Lb1EEEOT_OT0_
DA:315,0
DA:322,0
DA:323,0
DA:352,0
DA:353,0
DA:352,0
DA:353,0
DA:352,0
DA:353,0
end_of_record
SF:/usr/include/boost/system/error_code.hpp
FN:233,_ZNK5boost6system14error_categoryeqERKS1_
FNDA:0,_ZNK5boost6system14error_categoryeqERKS1_
FN:243,_ZNK5boost6system14error_categoryltERKS1_
FNDA:0,_ZNK5boost6system14error_categoryltERKS1_
FN:290,_ZNK5boost6system6detail22generic_error_category4nameEv
FNDA:0,_ZNK5boost6system6detail22generic_error_category4nameEv
FN:308,_ZNK5boost6system6detail21system_error_category4nameEv
FNDA:0,_ZNK5boost6system6detail21system_error_category4nameEv
FN:346,_ZN5boost6system15system_categoryEv
FNDA:0,_ZN5boost6system15system_categoryEv
FN:351,_ZN5boost6system16generic_categoryEv
FNDA:0,_ZN5boost6system16generic_categoryEv
FN:415,_ZN5boost6system6detail11failed_implEiRKNS0_14error_categoryE
FNDA:0,_ZN5boost6system6detail11failed_implEiRKNS0_14error_categoryE
FN:452,_ZN5boost6system15error_conditionC2EiRKNS0_14error_categoryE
FNDA:0,_ZN5boost6system15error_conditionC2EiRKNS0_14error_categoryE
FN:489,_ZNK5boost6system15error_condition5valueEv
FNDA:0,_ZNK5boost6system15error_condition5valueEv
FN:494,_ZNK5boost6system15error_condition8categoryEv
FNDA:0,_ZNK5boost6system15error_condition8categoryEv
FN:542,_ZN5boost6systemeqERKNS0_15error_conditionES3_
FNDA:0,_ZN5boost6systemeqERKNS0_15error_conditionES3_
FN:554,_ZNK5boost6system15error_conditioncvSt15error_conditionEv
FNDA:0,_ZNK5boost6system15error_conditioncvSt15error_conditionEv
FN:588,_ZN5boost6system10error_codeC2EiRKNS0_14error_categoryE
FNDA:0,_ZN5boost6system10error_codeC2EiRKNS0_14error_categoryE
FN:625,_ZNK5boost6system10error_code5valueEv
FNDA:0,_ZNK5boost6system10error_code5valueEv
FN:630,_ZNK5boost6system10error_code8categoryEv
FNDA:0,_ZNK5boost6system10error_code8categoryEv
FN:640,_ZNK5boost6system10error_code7messageB5cxx11Ev
FNDA:0,_ZNK5boost6system10error_code7messageB5cxx11Ev
FN:831,_ZNK5boost6system14error_category23default_error_conditionEi
FNDA:0,_ZNK5boost6system14error_category23default_error_conditionEi
FN:836,_ZNK5boost6system14error_category10equivalentEiRKNS0_15error_conditionE
FNDA:0,_ZNK5boost6system14error_category10equivalentEiRKNS0_15error_conditionE
FN:841,_ZNK5boost6system14error_category10equivalentERKNS0_10error_codeEi
FNDA:0,_ZNK5boost6system14error_category10equivalentERKNS0_10error_codeEi
FN:846,_ZNK5boost6system14error_category7messageEiPcm
FNDA:0,_ZNK5boost6system14error_category7messageEiPcm
FN:894,_ZNK5boost6system14error_category6failedEi
FNDA:0,_ZNK5boost6system14error_category6failedEi
FN:907,_ZNK5boost6system6detail22generic_error_category7messageB5cxx11Ei
FNDA:0,_ZNK5boost6system6detail22generic_error_category7messageB5cxx11Ei
FN:912,_ZNK5boost6system6detail22generic_error_category7messageEiPcm
FNDA:0,_ZNK5boost6system6detail22generic_error_category7messageEiPcm
FN:942,_ZNK5boost6system6detail21system_error_category23default_error_conditionEi
FNDA:0,_ZNK5boost6system6detail21system_error_category23default_error_conditionEi
FN:947,_ZNK5boost6system6detail21system_error_category7messageB5cxx11Ei
FNDA:0,_ZNK5boost6system6detail21system_error_category7messageB5cxx11Ei
FN:952,_ZNK5boost6system6detail21system_error_category7messageEiPcm
FNDA:0,_ZNK5boost6system6detail21system_error_category7messageEiPcm
FN:965,_ZNK5boost6system14error_categorycvRKNSt3_V214error_categoryEEv
FNDA:0,_ZNK5boost6system14error_categorycvRKNSt3_V214error_categoryEEv
DA:233,0
DA:235,0
DA:243,0
DA:245,0
DA:247,0
DA:250,0
DA:252,0
DA:255,0
DA:257,0
DA:260,0
DA:290,0
DA:292,0
DA:308,0
DA:310,0
DA:346,0
DA:348,0
DA:351,0
DA:353,0
DA:415,0
DA:417,0
DA:419,0
DA:423,0
DA:452,0
DA:453,0
DA:455,0
DA:489,0
DA:491,0
DA:494,0
DA:496,0
DA:542,0
DA:544,0
DA:554,0
DA:556,0
DA:588,0
DA:589,0
DA:591,0
DA:625,0
DA:627,0
DA:630,0
DA:632,0
DA:640,0
DA:642,0
DA:831,0
DA:833,0
DA:836,0
DA:838,0
DA:841,0
DA:843,0
DA:846,0
DA:848,0
DA:850,0
DA:853,0
DA:855,0
DA:856,0
DA:863,0
DA:875,0
DA:876,0
DA:884,0
DA:885,0
DA:887,0
DA:889,0
DA:890,0
DA:894,0
DA:896,0
DA:907,0
DA:909,0
DA:912,0
DA:914,0
DA:942,0
DA:944,0
DA:947,0
DA:949,0
DA:952,0
DA:954,0
DA:965,0
DA:967,0
end_of_record
SF:/usr/include/boost/asio/detail/noncopyable.hpp
FN:29,_ZN5boost4asio6detail11noncopyableC2Ev
FNDA:0,_ZN5boost4asio6detail11noncopyableC2Ev
FN:30,_ZN5boost4asio6detail11noncopyableD2Ev
FNDA:0,_ZN5boost4asio6detail11noncopyableD2Ev
DA:29,0
DA:30,0
end_of_record
SF:/usr/include/boost/asio/io_context.hpp
end_of_record
SF:/usr/include/c++/11/bits/stl_map.h
FN:185,_ZNSt3mapIPKN5boost6system14error_categoryESt10unique_ptrINS1_6detail12std_categoryESt14default_deleteIS7_EENS6_12cat_ptr_lessESaISt4pairIKS4_SA_EEEC2Ev
FNDA:0,_ZNSt3mapIPKN5boost6system14error_categoryESt10unique_ptrINS1_6detail12std_categoryESt14default_deleteIS7_EENS6_12cat_ptr_lessESaISt4pairIKS4_SA_EEEC2Ev
FN:302,_ZNSt3mapIPKN5boost6system14error_categoryESt10unique_ptrINS1_6detail12std_categoryESt14default_deleteIS7_EENS6_12cat_ptr_lessESaISt4pairIKS4_SA_EEED2Ev
FNDA:0,_ZNSt3mapIPKN5boost6system14error_categoryESt10unique_ptrINS1_6detail12std_categoryESt14default_deleteIS7_EENS6_12cat_ptr_lessESaISt4pairIKS4_SA_EEED2Ev
FN:374,_ZNSt3mapIPKN5boost6system14error_categoryESt10unique_ptrINS1_6detail12std_categoryESt14default_deleteIS7_EENS6_12cat_ptr_lessESaISt4pairIKS4_SA_EEE3endEv
FNDA:0,_ZNSt3mapIPKN5boost6system14error_categoryESt10unique_ptrINS1_6detail12std_categoryESt14default_deleteIS7_EENS6_12cat_ptr_lessESaISt4pairIKS4_SA_EEE3endEv
FN:810,_ZNSt3mapIPKN5boost6system14error_categoryESt10unique_ptrINS1_6detail12std_categoryESt14default_deleteIS7_EENS6_12cat_ptr_lessESaISt4pairIKS4_SA_EEE6insertEOSE_
FNDA:0,_ZNSt3mapIPKN5boost6system14error_categoryESt10unique_ptrINS1_6detail12std_categoryESt14default_deleteIS7_EENS6_12cat_ptr_lessESaISt4pairIKS4_SA_EEE6insertEOSE_
FN:1169,_ZNSt3mapIPKN5boost6system14error_categoryESt10unique_ptrINS1_6detail12std_categoryESt14default_deleteIS7_EENS6_12cat_ptr_lessESaISt4pairIKS4_SA_EEE4findERSD_
FNDA:0,_ZNSt3mapIPKN5boost6system14error_categoryESt10unique_ptrINS1_6detail12std_categoryESt14default_deleteIS7_EENS6_12cat_ptr_lessESaISt4pairIKS4_SA_EEE4findERSD_
DA:185,0
DA:302,0
DA:374,0
DA:375,0
DA:810,0
DA:811,0
DA:1169,0
DA:1170,0
end_of_record
SF:/usr/include/c++/11/ext/new_allocator.h
FN:79,_ZN9__gnu_cxx13new_allocatorISt13_Rb_tree_nodeISt4pairIKPKN5boost6system14error_categoryESt10unique_ptrINS4_6detail12std_categoryESt14default_deleteISB_EEEEEC2Ev
FNDA:0,_ZN9__gnu_cxx13new_allocatorISt13_Rb_tree_nodeISt4pairIKPKN5boost6system14error_categoryESt10unique_ptrINS4_6detail12std_categoryESt14default_deleteISB_EEEEEC2Ev
FN:79,_ZN9__gnu_cxx13new_allocatorIcEC2Ev
FNDA:0,_ZN9__gnu_cxx13new_allocatorIcEC2Ev
FN:103,_ZN9__gnu_cxx13new_allocatorISt13_Rb_tree_nodeISt4pairIKPKN5boost6system14error_categoryESt10unique_ptrINS4_6detail12std_categoryESt14default_deleteISB_EEEEE8allocateEmPKv
FNDA:0,_ZN9__gnu_cxx13new_allocatorISt13_Rb_tree_nodeISt4pairIKPKN5boost6system14error_categoryESt10unique_ptrINS4_6detail12std_categoryESt14default_deleteISB_EEEEE8allocateEmPKv
FN:103,_ZN9__gnu_cxx13new_allocatorIcE8allocateEmPKv
FNDA:0,_ZN9__gnu_cxx13new_allocatorIcE8allocateEmPKv
FN:132,_ZN9__gnu_cxx13new_allocatorISt13_Rb_tree_nodeISt4pairIKPKN5boost6system14error_categoryESt10unique_ptrINS4_6detail12std_categoryESt14default_deleteISB_EEEEE10deallocateEPSG_m
FNDA:0,_ZN9__gnu_cxx13new_allocatorISt13_Rb_tree_nodeISt4pairIKPKN5boost6system14error_categoryESt10unique_ptrINS4_6detail12std_categoryESt14default_deleteISB_EEEEE10deallocateEPSG_m
FN:132,_ZN9__gnu_cxx13new_allocatorIcE10deallocateEPcm
FNDA:0,_ZN9__gnu_cxx13new_allocatorIcE10deallocateEPcm
FN:197,_ZNK9__gnu_cxx13new_allocatorISt13_Rb_tree_nodeISt4pairIKPKN5boost6system14error_categoryESt10unique_ptrINS4_6detail12std_categoryESt14default_deleteISB_EEEEE11_M_max_sizeEv
FNDA:0,_ZNK9__gnu_cxx13new_allocatorISt13_Rb_tree_nodeISt4pairIKPKN5boost6system14error_categoryESt10unique_ptrINS4_6detail12std_categoryESt14default_deleteISB_EEEEE11_M_max_sizeEv
FN:197,_ZNK9__gnu_cxx13new_allocatorIcE11_M_max_sizeEv
FNDA:0,_ZNK9__gnu_cxx13new_allocatorIcE11_M_max_sizeEv
DA:79,0
DA:79,0
DA:103,0
DA:111,0
DA:115,0
DA:116,0
DA:117,0
DA:127,0
DA:103,0
DA:111,0
DA:117,0
DA:127,0
DA:132,0
DA:145,0
DA:132,0
DA:145,0
DA:197,0
DA:200,0
DA:197,0
DA:200,0
end_of_record
SF:/usr/include/c++/11/ext/atomicity.h
DA:52,0
DA:66,0
DA:84,0
DA:85,0
DA:86,0
DA:98,0
DA:99,0
DA:101,0
end_of_record
SF:/usr/include/c++/11/bits/std_mutex.h
FN:98,_ZNSt5mutex4lockEv
FNDA:0,_ZNSt5mutex4lockEv
FN:115,_ZNSt5mutex6unlockEv
FNDA:0,_ZNSt5mutex6unlockEv
FN:228,_ZNSt10lock_guardISt5mutexEC2ERS0_
FNDA:0,_ZNSt10lock_guardISt5mutexEC2ERS0_
FN:234,_ZNSt10lock_guardISt5mutexED2Ev
FNDA:0,_ZNSt10lock_guardISt5mutexED2Ev
DA:98,0
DA:100,0
DA:103,0
DA:104,0
DA:105,0
DA:115,0
DA:118,0
DA:119,0
DA:228,0
DA:229,0
DA:234,0
DA:235,0
end_of_record
SF:/usr/include/c++/11/bits/basic_string.tcc
FN:132,_ZNSt7__cxx1112basic_stringIcSt11char_traitsIcESaIcEE9_M_createERmm
FNDA:0,_ZNSt7__cxx1112basic_stringIcSt11char_traitsIcESaIcEE9_M_createERmm
FN:206,_ZNSt7__cxx1112basic_stringIcSt11char_traitsIcESaIcEE12_M_constructIPKcEEvT_S8_St20forward_iterator_tag
FNDA:0,_ZNSt7__cxx1112basic_stringIcSt11char_traitsIcESaIcEE12_M_constructIPKcEEvT_S8_St20forward_iterator_tag
FN:300,_ZNSt7__cxx1112basic_stringIcSt11char_traitsIcESaIcEE9_M_mutateEmmPKcm
FNDA:0,_ZNSt7__cxx1112basic_stringIcSt11char_traitsIcESaIcEE9_M_mutateEmmPKcm
FN:384,_ZNSt7__cxx1112basic_stringIcSt11char_traitsIcESaIcEE9_M_appendEPKcm
FNDA:0,_ZNSt7__cxx1112basic_stringIcSt11char_traitsIcESaIcEE9_M_appendEPKcm
FN:448,_ZNSt7__cxx1112basic_stringIcSt11char_traitsIcESaIcEE10_M_replaceEmmPKcm
FNDA:0,_ZNSt7__cxx1112basic_stringIcSt11char_traitsIcESaIcEE10_M_replaceEmmPKcm
DA:132,0
DA:137,0
DA:138,0
DA:143,0
DA:145,0
DA:147,0
DA:148,0
DA:153,0
DA:206,0
DA:211,0
DA:212,0
DA:215,0
DA:217,0
DA:219,0
DA:220,0
DA:225,0
DA:232,0
DA:233,0
DA:300,0
DA:304,0
DA:306,0
DA:307,0
DA:309,0
DA:310,0
DA:311,0
DA:312,0
DA:313,0
DA:314,0
DA:315,0
DA:317,0
DA:318,0
DA:319,0
DA:320,0
DA:384,0
DA:387,0
DA:389,0
DA:391,0
DA:392,0
DA:395,0
DA:397,0
DA:398,0
DA:448,0
DA:452,0
DA:454,0
DA:455,0
DA:457,0
DA:459,0
DA:461,0
DA:462,0
DA:464,0
DA:465,0
DA:466,0
DA:467,0
DA:472,0
DA:473,0
DA:474,0
DA:475,0
DA:476,0
DA:478,0
DA:479,0
DA:480,0
DA:484,0
DA:485,0
DA:489,0
DA:490,0
DA:491,0
DA:498,0
DA:500,0
DA:501,0
end_of_record
SF:/media/sf_Share_folder/UI/Spotify-rep-1-1/project/include/controller/MetadataController.hpp
end_of_record
SF:/usr/include/c++/11/bits/alloc_traits.h
FN:463,_ZNSt16allocator_traitsISaISt13_Rb_tree_nodeISt4pairIKPKN5boost6system14error_categoryESt10unique_ptrINS3_6detail12std_categoryESt14default_deleteISA_EEEEEE8allocateERSG_m
FNDA:0,_ZNSt16allocator_traitsISaISt13_Rb_tree_nodeISt4pairIKPKN5boost6system14error_categoryESt10unique_ptrINS3_6detail12std_categoryESt14default_deleteISA_EEEEEE8allocateERSG_m
FN:463,_ZNSt16allocator_traitsISaIcEE8allocateERS0_m
FNDA:0,_ZNSt16allocator_traitsISaIcEE8allocateERS0_m
FN:495,_ZNSt16allocator_traitsISaISt13_Rb_tree_nodeISt4pairIKPKN5boost6system14error_categoryESt10unique_ptrINS3_6detail12std_categoryESt14default_deleteISA_EEEEEE10deallocateERSG_PSF_m
FNDA:0,_ZNSt16allocator_traitsISaISt13_Rb_tree_nodeISt4pairIKPKN5boost6system14error_categoryESt10unique_ptrINS3_6detail12std_categoryESt14default_deleteISA_EEEEEE10deallocateERSG_PSF_m
FN:495,_ZNSt16allocator_traitsISaIcEE10deallocateERS0_Pcm
FNDA:0,_ZNSt16allocator_traitsISaIcEE10deallocateERS0_Pcm
FN:511,_ZNSt16allocator_traitsISaISt13_Rb_tree_nodeISt4pairIKPKN5boost6system14error_categoryESt10unique_ptrINS3_6detail12std_categoryESt14default_deleteISA_EEEEEE9constructISE_JSE_EEEvRSG_PT_DpOT0_
FNDA:0,_ZNSt16allocator_traitsISaISt13_Rb_tree_nodeISt4pairIKPKN5boost6system14error_categoryESt10unique_ptrINS3_6detail12std_categoryESt14default_deleteISA_EEEEEE9constructISE_JSE_EEEvRSG_PT_DpOT0_
FN:531,_ZNSt16allocator_traitsISaISt13_Rb_tree_nodeISt4pairIKPKN5boost6system14error_categoryESt10unique_ptrINS3_6detail12std_categoryESt14default_deleteISA_EEEEEE7destroyISE_EEvRSG_PT_
FNDA:0,_ZNSt16allocator_traitsISaISt13_Rb_tree_nodeISt4pairIKPKN5boost6system14error_categoryESt10unique_ptrINS3_6detail12std_categoryESt14default_deleteISA_EEEEEE7destroyISE_EEvRSG_PT_
FN:547,_ZNSt16allocator_traitsISaIcEE8max_sizeERKS0_
FNDA:0,_ZNSt16allocator_traitsISaIcEE8max_sizeERKS0_
DA:463,0
DA:464,0
DA:463,0
DA:464,0
DA:495,0
DA:496,0
DA:495,0
DA:496,0
DA:511,0
DA:518,0
DA:520,0
DA:531,0
DA:537,0
DA:539,0
DA:547,0
DA:552,0
end_of_record
SF:/usr/include/c++/11/new
FN:174,_ZnwmPv
FNDA:0,_ZnwmPv
DA:174,0
DA:175,0
end_of_record
SF:/usr/include/boost/system/system_error.hpp
FN:47,_ZN5boost6system12system_errorD0Ev
FNDA:0,_ZN5boost6system12system_errorD0Ev
FN:47,_ZN5boost6system12system_errorD2Ev
FNDA:0,_ZN5boost6system12system_errorD2Ev
FN:59,_ZNK5boost6system12system_error4whatEv
FNDA:0,_ZNK5boost6system12system_error4whatEv
DA:47,0
DA:47,0
DA:59,0
DA:62,0
DA:68,0
DA:69,0
DA:70,0
DA:73,0
DA:76,0
end_of_record
SF:/usr/include/c++/11/bits/ptr_traits.h
FN:149,_ZNSt14pointer_traitsIPKcE10pointer_toERS0_
FNDA:0,_ZNSt14pointer_traitsIPKcE10pointer_toERS0_
FN:149,_ZNSt14pointer_traitsIPcE10pointer_toERc
FNDA:0,_ZNSt14pointer_traitsIPcE10pointer_toERc
DA:149,0
DA:150,0
DA:149,0
DA:150,0
end_of_record
SF:/usr/include/boost/asio/execution_context.hpp
FN:312,_ZN5boost4asio17execution_context2idC2Ev
FNDA:0,_ZN5boost4asio17execution_context2idC2Ev
DA:312,0
end_of_record
SF:/media/sf_Share_folder/UI/Spotify-rep-1-1/project/src/controller/MetadataController.cpp
FN:12,_ZN18MetadataController11handleInputERKNSt7__cxx1112basic_stringIcSt11char_traitsIcESaIcEEE
FNDA:2,_ZN18MetadataController11handleInputERKNSt7__cxx1112basic_stringIcSt11char_traitsIcESaIcEEE
FN:41,_ZNK18MetadataController20getMediaFileMetadataERKSt10shared_ptrI9MediaFileE
FNDA:15,_ZNK18MetadataController20getMediaFileMetadataERKSt10shared_ptrI9MediaFileE
FN:46,_ZN18MetadataController23updateMediaFileMetadataERKNSt7__cxx1112basic_stringIcSt11char_traitsIcESaIcEEES7_S7_
FNDA:7,_ZN18MetadataController23updateMediaFileMetadataERKNSt7__cxx1112basic_stringIcSt11char_traitsIcESaIcEEES7_S7_
FN:51,_ZN18MetadataController4backEv
FNDA:6,_ZN18MetadataController4backEv
FN:54,_ZN18MetadataController15handleEditAudioERKNSt7__cxx1112basic_stringIcSt11char_traitsIcESaIcEEES7_
FNDA:3,_ZN18MetadataController15handleEditAudioERKNSt7__cxx1112basic_stringIcSt11char_traitsIcESaIcEEES7_
FN:115,_ZN18MetadataController15handleEditVideoERKNSt7__cxx1112basic_stringIcSt11char_traitsIcESaIcEEES7_
FNDA:3,_ZN18MetadataController15handleEditVideoERKNSt7__cxx1112basic_stringIcSt11char_traitsIcESaIcEEES7_
DA:12,2
DA:13,2
DA:16,4
DA:17,4
DA:20,4
DA:23,4
DA:24,2
DA:25,2
DA:26,2
DA:28,2
DA:29,2
DA:30,1
DA:32,1
DA:34,2
DA:37,4
DA:38,2
DA:41,15
DA:42,15
DA:43,15
DA:46,7
DA:47,7
DA:48,7
DA:51,6
DA:52,6
DA:54,3
DA:55,3
DA:56,3
DA:58,3
DA:59,2
DA:61,8
DA:62,8
DA:63,8
DA:66,8
DA:67,2
DA:68,2
DA:69,2
DA:71,1
DA:72,1
DA:73,1
DA:74,1
DA:75,1
DA:77,1
DA:78,1
DA:79,1
DA:80,1
DA:81,1
DA:83,1
DA:84,1
DA:85,1
DA:86,1
DA:87,1
DA:89,1
DA:90,1
DA:91,1
DA:92,1
DA:93,1
DA:95,1
DA:96,1
DA:97,1
DA:98,1
DA:99,1
DA:101,1
DA:102,1
DA:103,1
DA:104,1
DA:105,1
DA:108,8
DA:109,2
DA:111,1
DA:113,3
DA:115,3
DA:116,3
DA:117,3
DA:119,3
DA:120,2
DA:122,3
DA:123,3
DA:124,3
DA:127,3
DA:128,2
DA:129,2
DA:130,2
DA:132,1
DA:133,1
DA:134,1
DA:135,1
DA:136,1
DA:139,3
DA:140,2
DA:142,1
DA:144,3
end_of_record
SF:/usr/include/c++/11/bits/unique_ptr.h
FN:79,_ZNKSt14default_deleteIN5boost6system6detail12std_categoryEEclEPS3_
FNDA:0,_ZNKSt14default_deleteIN5boost6system6detail12std_categoryEEclEPS3_
FN:155,_ZNSt15__uniq_ptr_implIN5boost6system6detail12std_categoryESt14default_deleteIS3_EEC2EPS3_
FNDA:0,_ZNSt15__uniq_ptr_implIN5boost6system6detail12std_categoryESt14default_deleteIS3_EEC2EPS3_
FN:161,_ZNSt15__uniq_ptr_implIN5boost6system6detail12std_categoryESt14default_deleteIS3_EEC2EOS6_
FNDA:0,_ZNSt15__uniq_ptr_implIN5boost6system6detail12std_categoryESt14default_deleteIS3_EEC2EOS6_
FN:172,_ZNSt15__uniq_ptr_implIN5boost6system6detail12std_categoryESt14default_deleteIS3_EE6_M_ptrEv
FNDA:0,_ZNSt15__uniq_ptr_implIN5boost6system6detail12std_categoryESt14default_deleteIS3_EE6_M_ptrEv
FN:173,_ZNKSt15__uniq_ptr_implIN5boost6system6detail12std_categoryESt14default_deleteIS3_EE6_M_ptrEv
FNDA:0,_ZNKSt15__uniq_ptr_implIN5boost6system6detail12std_categoryESt14default_deleteIS3_EE6_M_ptrEv
FN:174,_ZNSt15__uniq_ptr_implIN5boost6system6detail12std_categoryESt14default_deleteIS3_EE10_M_deleterEv
FNDA:0,_ZNSt15__uniq_ptr_implIN5boost6system6detail12std_categoryESt14default_deleteIS3_EE10_M_deleterEv
FN:211,_ZNSt15__uniq_ptr_dataIN5boost6system6detail12std_categoryESt14default_deleteIS3_ELb1ELb1EEC2EOS6_
FNDA:0,_ZNSt15__uniq_ptr_dataIN5boost6system6detail12std_categoryESt14default_deleteIS3_ELb1ELb1EEC2EOS6_
FN:281,_ZNSt10unique_ptrIN5boost6system6detail12std_categoryESt14default_deleteIS3_EEC2IS5_vEEPS3_
FNDA:0,_ZNSt10unique_ptrIN5boost6system6detail12std_categoryESt14default_deleteIS3_EEC2IS5_vEEPS3_
FN:327,_ZNSt10unique_ptrIN5boost6system6detail12std_categoryESt14default_deleteIS3_EEC2EOS6_
FNDA:0,_ZNSt10unique_ptrIN5boost6system6detail12std_categoryESt14default_deleteIS3_EEC2EOS6_
FN:355,_ZNSt10unique_ptrIN5boost6system6detail12std_categoryESt14default_deleteIS3_EED2Ev
FNDA:0,_ZNSt10unique_ptrIN5boost6system6detail12std_categoryESt14default_deleteIS3_EED2Ev
FN:405,_ZNKSt10unique_ptrIN5boost6system6detail12std_categoryESt14default_deleteIS3_EEdeEv
FNDA:0,_ZNKSt10unique_ptrIN5boost6system6detail12std_categoryESt14default_deleteIS3_EEdeEv
FN:421,_ZNKSt10unique_ptrIN5boost6system6detail12std_categoryESt14default_deleteIS3_EE3getEv
FNDA:0,_ZNKSt10unique_ptrIN5boost6system6detail12std_categoryESt14default_deleteIS3_EE3getEv
FN:426,_ZNSt10unique_ptrIN5boost6system6detail12std_categoryESt14default_deleteIS3_EE11get_deleterEv
FNDA:0,_ZNSt10unique_ptrIN5boost6system6detail12std_categoryESt14default_deleteIS3_EE11get_deleterEv
DA:79,0
DA:85,0
DA:86,0
DA:155,0
DA:161,0
DA:162,0
DA:163,0
DA:172,0
DA:173,0
DA:174,0
DA:211,0
DA:281,0
DA:282,0
DA:283,0
DA:327,0
DA:355,0
DA:359,0
DA:360,0
DA:361,0
DA:362,0
DA:363,0
DA:405,0
DA:407,0
DA:408,0
DA:421,0
DA:422,0
DA:426,0
DA:427,0
end_of_record
SF:/usr/include/c++/11/bits/allocator.h
FN:156,_ZNSaISt13_Rb_tree_nodeISt4pairIKPKN5boost6system14error_categoryESt10unique_ptrINS2_6detail12std_categoryESt14default_deleteIS9_EEEEEC2Ev
FNDA:0,_ZNSaISt13_Rb_tree_nodeISt4pairIKPKN5boost6system14error_categoryESt10unique_ptrINS2_6detail12std_categoryESt14default_deleteIS9_EEEEEC2Ev
FN:174,_ZNSaISt13_Rb_tree_nodeISt4pairIKPKN5boost6system14error_categoryESt10unique_ptrINS2_6detail12std_categoryESt14default_deleteIS9_EEEEED2Ev
FNDA:0,_ZNSaISt13_Rb_tree_nodeISt4pairIKPKN5boost6system14error_categoryESt10unique_ptrINS2_6detail12std_categoryESt14default_deleteIS9_EEEEED2Ev
DA:156,0
DA:174,0
DA:182,0
DA:183,0
DA:185,0
DA:193,0
DA:195,0
DA:196,0
DA:199,0
end_of_record
SF:/usr/include/c++/11/bits/char_traits.h
FN:106,_ZN9__gnu_cxx11char_traitsIcE2eqERKcS3_
FNDA:0,_ZN9__gnu_cxx11char_traitsIcE2eqERKcS3_
FN:167,_ZN9__gnu_cxx11char_traitsIcE6lengthEPKc
FNDA:0,_ZN9__gnu_cxx11char_traitsIcE6lengthEPKc
FN:190,_ZN9__gnu_cxx11char_traitsIcE4moveEPcPKcm
FNDA:0,_ZN9__gnu_cxx11char_traitsIcE4moveEPcPKcm
FN:240,_ZN9__gnu_cxx11char_traitsIcE4copyEPcPKcm
FNDA:0,_ZN9__gnu_cxx11char_traitsIcE4copyEPcPKcm
FN:356,_ZNSt11char_traitsIcE6assignERcRKc
FNDA:0,_ZNSt11char_traitsIcE6assignERcRKc
FN:393,_ZNSt11char_traitsIcE6lengthEPKc
FNDA:0,_ZNSt11char_traitsIcE6lengthEPKc
FN:417,_ZNSt11char_traitsIcE4moveEPcPKcm
FNDA:0,_ZNSt11char_traitsIcE4moveEPcPKcm
FN:429,_ZNSt11char_traitsIcE4copyEPcPKcm
FNDA:0,_ZNSt11char_traitsIcE4copyEPcPKcm
DA:106,0
DA:107,0
DA:167,0
DA:170,0
DA:171,0
DA:172,0
DA:173,0
DA:190,0
DA:193,0
DA:194,0
DA:196,0
DA:198,0
DA:199,0
DA:203,0
DA:204,0
DA:205,0
DA:206,0
DA:230,0
DA:233,0
DA:234,0
DA:240,0
DA:244,0
DA:245,0
DA:290,0
DA:356,0
DA:357,0
DA:393,0
DA:396,0
DA:397,0
DA:399,0
DA:417,0
DA:419,0
DA:420,0
DA:422,0
DA:423,0
DA:425,0
DA:429,0
DA:431,0
DA:432,0
DA:434,0
DA:435,0
DA:437,0
end_of_record
SF:/usr/include/boost/system/detail/std_interoperability.hpp
FN:34,_ZN5boost6system6detail12std_categoryC2EPKNS0_14error_categoryEj
FNDA:0,_ZN5boost6system6detail12std_categoryC2EPKNS0_14error_categoryEj
FN:50,_ZNK5boost6system6detail12std_category4nameEv
FNDA:0,_ZNK5boost6system6detail12std_category4nameEv
FN:55,_ZNK5boost6system6detail12std_category7messageB5cxx11Ei
FNDA:0,_ZNK5boost6system6detail12std_category7messageB5cxx11Ei
FN:60,_ZNK5boost6system6detail12std_category23default_error_conditionEi
FNDA:0,_ZNK5boost6system6detail12std_category23default_error_conditionEi
FN:75,_ZNK5boost6system6detail12cat_ptr_lessclEPKNS0_14error_categoryES5_
FNDA:0,_ZNK5boost6system6detail12cat_ptr_lessclEPKNS0_14error_categoryES5_
FN:81,_ZN5boost6system6detail15to_std_categoryERKNS0_14error_categoryE
FNDA:0,_ZN5boost6system6detail15to_std_categoryERKNS0_14error_categoryE
FN:117,_ZNK5boost6system6detail12std_category10equivalentEiRKSt15error_condition
FNDA:0,_ZNK5boost6system6detail12std_category10equivalentEiRKSt15error_condition
FN:146,_ZNK5boost6system6detail12std_category10equivalentERKSt10error_codei
FNDA:0,_ZNK5boost6system6detail12std_category10equivalentERKSt10error_codei
DA:34,0
DA:48,0
DA:50,0
DA:52,0
DA:55,0
DA:57,0
DA:60,0
DA:62,0
DA:75,0
DA:77,0
DA:81,0
DA:83,0
DA:85,0
DA:86,0
DA:88,0
DA:90,0
DA:91,0
DA:97,0
DA:100,0
DA:102,0
DA:104,0
DA:106,0
DA:108,0
DA:110,0
DA:111,0
DA:113,0
DA:114,0
DA:117,0
DA:119,0
DA:121,0
DA:122,0
DA:124,0
DA:126,0
DA:127,0
DA:132,0
DA:134,0
DA:135,0
DA:142,0
DA:146,0
DA:148,0
DA:150,0
DA:151,0
DA:153,0
DA:155,0
DA:156,0
DA:161,0
DA:163,0
DA:164,0
DA:168,0
DA:170,0
DA:174,0
end_of_record
SF:/usr/include/c++/11/bits/stl_iterator_base_types.h
FN:238,_ZSt19__iterator_categoryIPKcENSt15iterator_traitsIT_E17iterator_categoryERKS3_
FNDA:0,_ZSt19__iterator_categoryIPKcENSt15iterator_traitsIT_E17iterator_categoryERKS3_
DA:238,0
DA:239,0
end_of_record
SF:/usr/include/c++/11/bits/std_function.h
FN:247,_ZNKSt14_Function_base8_M_emptyEv
FNDA:0,_ZNKSt14_Function_base8_M_emptyEv
FN:586,_ZNKSt8functionIFvRKNSt7__cxx1112basic_stringIcSt11char_traitsIcESaIcEEERS5_PFvS7_EEEclES7_S8_SA_
FNDA:0,_ZNKSt8functionIFvRKNSt7__cxx1112basic_stringIcSt11char_traitsIcESaIcEEERS5_PFvS7_EEEclES7_S8_SA_
DA:247,0
DA:586,0
DA:588,0
DA:589,0
DA:590,0
end_of_record
SF:/usr/include/c++/11/bits/stl_algobase.h
FN:313,_ZSt12__niter_baseIPcET_S1_
FNDA:0,_ZSt12__niter_baseIPcET_S1_
FN:313,_ZSt12__niter_baseIPKcET_S2_
FNDA:0,_ZSt12__niter_baseIPKcET_S2_
FN:335,_ZSt12__niter_wrapIPcET_RKS1_S1_
FNDA:0,_ZSt12__niter_wrapIPcET_RKS1_S1_
FN:380,_ZNSt11__copy_moveILb0ELb0ESt26random_access_iterator_tagE8__copy_mIPKcPcEET0_T_S7_S6_
FNDA:0,_ZNSt11__copy_moveILb0ELb0ESt26random_access_iterator_tagE8__copy_mIPKcPcEET0_T_S7_S6_
FN:420,_ZNSt11__copy_moveILb0ELb1ESt26random_access_iterator_tagE8__copy_mIcEEPT_PKS3_S6_S4_
FNDA:0,_ZNSt11__copy_moveILb0ELb1ESt26random_access_iterator_tagE8__copy_mIcEEPT_PKS3_S6_S4_
FN:486,_ZSt14__copy_move_a2ILb0EPKcPcET1_T0_S4_S3_
FNDA:0,_ZSt14__copy_move_a2ILb0EPKcPcET1_T0_S4_S3_
FN:521,_ZSt14__copy_move_a1ILb0EPKcPcET1_T0_S4_S3_
FNDA:0,_ZSt14__copy_move_a1ILb0EPKcPcET1_T0_S4_S3_
FN:527,_ZSt13__copy_move_aILb0EPKcPcET1_T0_S4_S3_
FNDA:0,_ZSt13__copy_move_aILb0EPKcPcET1_T0_S4_S3_
FN:611,_ZSt4copyIPKcPcET0_T_S4_S3_
FNDA:0,_ZSt4copyIPKcPcET0_T_S4_S3_
DA:313,0
DA:315,0
DA:313,0
DA:315,0
DA:335,0
DA:336,0
DA:380,0
DA:383,0
DA:385,0
DA:386,0
DA:387,0
DA:389,0
DA:420,0
DA:429,0
DA:430,0
DA:431,0
DA:432,0
DA:486,0
DA:490,0
DA:492,0
DA:495,0
DA:521,0
DA:522,0
DA:527,0
DA:529,0
DA:532,0
DA:611,0
DA:620,0
end_of_record
SF:/usr/include/boost/asio/error.hpp
FN:228,_ZN5boost4asio5error19get_system_categoryEv
FNDA:0,_ZN5boost4asio5error19get_system_categoryEv
DA:228,0
DA:230,0
end_of_record
SF:/usr/include/c++/11/bits/shared_ptr.h
end_of_record
SF:/usr/include/c++/11/type_traits
FN:3419,_ZSt21is_constant_evaluatedv
FNDA:0,_ZSt21is_constant_evaluatedv
DA:3419,0
DA:3420,0
end_of_record
SF:/usr/include/c++/11/ext/type_traits.h
FN:152,_ZN9__gnu_cxx17__is_null_pointerIKcEEbPT_
FNDA:0,_ZN9__gnu_cxx17__is_null_pointerIKcEEbPT_
DA:152,0
DA:153,0
end_of_record
SF:/usr/include/boost/asio/impl/error.ipp
FN:35,_ZNK5boost4asio5error6detail14netdb_category4nameEv
FNDA:0,_ZNK5boost4asio5error6detail14netdb_category4nameEv
FN:40,_ZNK5boost4asio5error6detail14netdb_category7messageB5cxx11Ei
FNDA:0,_ZNK5boost4asio5error6detail14netdb_category7messageB5cxx11Ei
FN:56,_ZN5boost4asio5error18get_netdb_categoryEv
FNDA:0,_ZN5boost4asio5error18get_netdb_categoryEv
FN:67,_ZNK5boost4asio5error6detail17addrinfo_category4nameEv
FNDA:0,_ZNK5boost4asio5error6detail17addrinfo_category4nameEv
FN:72,_ZNK5boost4asio5error6detail17addrinfo_category7messageB5cxx11Ei
FNDA:0,_ZNK5boost4asio5error6detail17addrinfo_category7messageB5cxx11Ei
FN:84,_ZN5boost4asio5error21get_addrinfo_categoryEv
FNDA:0,_ZN5boost4asio5error21get_addrinfo_categoryEv
FN:97,_ZNK5boost4asio5error6detail13misc_category4nameEv
FNDA:0,_ZNK5boost4asio5error6detail13misc_category4nameEv
FN:102,_ZNK5boost4asio5error6detail13misc_category7messageB5cxx11Ei
FNDA:0,_ZNK5boost4asio5error6detail13misc_category7messageB5cxx11Ei
FN:118,_ZN5boost4asio5error17get_misc_categoryEv
FNDA:0,_ZN5boost4asio5error17get_misc_categoryEv
DA:35,0
DA:37,0
DA:40,0
DA:42,0
DA:43,0
DA:44,0
DA:45,0
DA:46,0
DA:47,0
DA:48,0
DA:49,0
DA:50,0
DA:56,0
DA:59,0
DA:67,0
DA:69,0
DA:72,0
DA:74,0
DA:75,0
DA:76,0
DA:77,0
DA:78,0
DA:84,0
DA:87,0
DA:97,0
DA:99,0
DA:102,0
DA:104,0
DA:105,0
DA:106,0
DA:107,0
DA:108,0
DA:109,0
DA:110,0
DA:111,0
DA:112,0
DA:118,0
DA:121,0
end_of_record
SF:/media/sf_Share_folder/UI/Spotify-rep-1-1/project/include/controller/BaseController.hpp
FN:8,_ZN14BaseControllerD0Ev
FNDA:0,_ZN14BaseControllerD0Ev
FN:8,_ZN14BaseControllerD2Ev
FNDA:0,_ZN14BaseControllerD2Ev
DA:8,0
DA:8,0
end_of_record
SF:/usr/include/boost/asio/detail/tss_ptr.hpp
end_of_record
SF:/usr/include/c++/11/bits/stl_iterator_base_funcs.h
FN:98,_ZSt10__distanceIPKcENSt15iterator_traitsIT_E15difference_typeES3_S3_St26random_access_iterator_tag
FNDA:0,_ZSt10__distanceIPKcENSt15iterator_traitsIT_E15difference_typeES3_S3_St26random_access_iterator_tag
FN:138,_ZSt8distanceIPKcENSt15iterator_traitsIT_E15difference_typeES3_S3_
FNDA:0,_ZSt8distanceIPKcENSt15iterator_traitsIT_E15difference_typeES3_S3_
DA:98,0
DA:104,0
DA:138,0
DA:141,0
DA:142,0
end_of_record
SF:/usr/include/c++/11/bits/cpp_type_traits.h
FN:560,_ZSt12__miter_baseIPKcET_S2_
FNDA:0,_ZSt12__miter_baseIPKcET_S2_
DA:560,0
DA:561,0
end_of_record
SF:/usr/include/c++/11/bits/stl_function.h
FN:447,_ZNKSt4lessIPKcEclES1_S1_
FNDA:0,_ZNKSt4lessIPKcEclES1_S1_
FN:447,_ZNKSt4lessIPKN5boost6system14error_categoryEEclES4_S4_
FNDA:0,_ZNKSt4lessIPKN5boost6system14error_categoryEEclES4_S4_
FN:1170,_ZNKSt10_Select1stISt4pairIKPKN5boost6system14error_categoryESt10unique_ptrINS2_6detail12std_categoryESt14default_deleteIS9_EEEEclERSD_
FNDA:0,_ZNKSt10_Select1stISt4pairIKPKN5boost6system14error_categoryESt10unique_ptrINS2_6detail12std_categoryESt14default_deleteIS9_EEEEclERSD_
FN:1174,_ZNKSt10_Select1stISt4pairIKPKN5boost6system14error_categoryESt10unique_ptrINS2_6detail12std_categoryESt14default_deleteIS9_EEEEclERKSD_
FNDA:0,_ZNKSt10_Select1stISt4pairIKPKN5boost6system14error_categoryESt10unique_ptrINS2_6detail12std_categoryESt14default_deleteIS9_EEEEclERKSD_
DA:447,0
DA:457,0
DA:447,0
DA:457,0
DA:1170,0
DA:1171,0
DA:1174,0
DA:1175,0
end_of_record
SF:/usr/include/c++/11/bits/shared_ptr_base.h
FN:161,_ZNSt16_Sp_counted_baseILN9__gnu_cxx12_Lock_policyE2EE10_M_releaseEv
FNDA:0,_ZNSt16_Sp_counted_baseILN9__gnu_cxx12_Lock_policyE2EE10_M_releaseEv
FN:702,_ZNSt14__shared_countILN9__gnu_cxx12_Lock_policyE2EED2Ev
FNDA:0,_ZNSt14__shared_countILN9__gnu_cxx12_Lock_policyE2EED2Ev
FN:984,_ZNKSt19__shared_ptr_accessI9MediaFileLN9__gnu_cxx12_Lock_policyE2ELb0ELb0EEptEv
FNDA:0,_ZNKSt19__shared_ptr_accessI9MediaFileLN9__gnu_cxx12_Lock_policyE2ELb0ELb0EEptEv
FN:992,_ZNKSt19__shared_ptr_accessI9MediaFileLN9__gnu_cxx12_Lock_policyE2ELb0ELb0EE6_M_getEv
FNDA:0,_ZNKSt19__shared_ptr_accessI9MediaFileLN9__gnu_cxx12_Lock_policyE2ELb0ELb0EE6_M_getEv
FN:1154,_ZNSt12__shared_ptrI9MediaFileLN9__gnu_cxx12_Lock_policyE2EED2Ev
FNDA:0,_ZNSt12__shared_ptrI9MediaFileLN9__gnu_cxx12_Lock_policyE2EED2Ev
FN:1295,_ZNKSt12__shared_ptrI9MediaFileLN9__gnu_cxx12_Lock_policyE2EE3getEv
FNDA:0,_ZNKSt12__shared_ptrI9MediaFileLN9__gnu_cxx12_Lock_policyE2EE3getEv
DA:161,0
DA:165,0
DA:168,0
DA:180,0
DA:181,0
DA:184,0
DA:187,0
DA:702,0
DA:704,0
DA:705,0
DA:706,0
DA:984,0
DA:987,0
DA:992,0
DA:993,0
DA:1154,0
DA:1295,0
DA:1296,0
end_of_record
SF:/usr/include/c++/11/iostream
end_of_record
SF:/usr/include/boost/asio/detail/call_stack.hpp
end_of_record
SF:/usr/include/x86_64-linux-gnu/c++/11/bits/gthr-default.h
FN:300,_ZL18__gthread_active_pv
FNDA:0,_ZL18__gthread_active_pv
FN:746,_ZL20__gthread_mutex_lockP15pthread_mutex_t
FNDA:0,_ZL20__gthread_mutex_lockP15pthread_mutex_t
FN:776,_ZL22__gthread_mutex_unlockP15pthread_mutex_t
FNDA:0,_ZL22__gthread_mutex_unlockP15pthread_mutex_t
DA:300,0
DA:302,0
DA:746,0
DA:748,0
DA:749,0
DA:751,0
DA:776,0
DA:778,0
DA:779,0
DA:781,0
end_of_record
SF:/usr/include/c++/11/tuple
FN:80,_ZNSt10_Head_baseILm1ESt14default_deleteIN5boost6system6detail12std_categoryEELb1EEC2Ev
FNDA:0,_ZNSt10_Head_baseILm1ESt14default_deleteIN5boost6system6detail12std_categoryEELb1EEC2Ev
FN:124,_ZNSt10_Head_baseILm1ESt14default_deleteIN5boost6system6detail12std_categoryEELb1EE7_M_headERS6_
FNDA:0,_ZNSt10_Head_baseILm1ESt14default_deleteIN5boost6system6detail12std_categoryEELb1EE7_M_headERS6_
FN:189,_ZNSt10_Head_baseILm0EPN5boost6system6detail12std_categoryELb0EEC2Ev
FNDA:0,_ZNSt10_Head_baseILm0EPN5boost6system6detail12std_categoryELb0EEC2Ev
FN:233,_ZNSt10_Head_baseILm0EPN5boost6system6detail12std_categoryELb0EE7_M_headERS5_
FNDA:0,_ZNSt10_Head_baseILm0EPN5boost6system6detail12std_categoryELb0EE7_M_headERS5_
FN:236,_ZNSt10_Head_baseILm0EPN5boost6system6detail12std_categoryELb0EE7_M_headERKS5_
FNDA:0,_ZNSt10_Head_baseILm0EPN5boost6system6detail12std_categoryELb0EE7_M_headERKS5_
FN:268,_ZNSt11_Tuple_implILm0EJPN5boost6system6detail12std_categoryESt14default_deleteIS3_EEE7_M_headERS7_
FNDA:0,_ZNSt11_Tuple_implILm0EJPN5boost6system6detail12std_categoryESt14default_deleteIS3_EEE7_M_headERS7_
FN:271,_ZNSt11_Tuple_implILm0EJPN5boost6system6detail12std_categoryESt14default_deleteIS3_EEE7_M_headERKS7_
FNDA:0,_ZNSt11_Tuple_implILm0EJPN5boost6system6detail12std_categoryESt14default_deleteIS3_EEE7_M_headERKS7_
FN:279,_ZNSt11_Tuple_implILm0EJPN5boost6system6detail12std_categoryESt14default_deleteIS3_EEEC2Ev
FNDA:0,_ZNSt11_Tuple_implILm0EJPN5boost6system6detail12std_categoryESt14default_deleteIS3_EEEC2Ev
FN:301,_ZNSt11_Tuple_implILm0EJPN5boost6system6detail12std_categoryESt14default_deleteIS3_EEEC2EOS7_
FNDA:0,_ZNSt11_Tuple_implILm0EJPN5boost6system6detail12std_categoryESt14default_deleteIS3_EEEC2EOS7_
FN:424,_ZNSt11_Tuple_implILm1EJSt14default_deleteIN5boost6system6detail12std_categoryEEEE7_M_headERS6_
FNDA:0,_ZNSt11_Tuple_implILm1EJSt14default_deleteIN5boost6system6detail12std_categoryEEEE7_M_headERS6_
FN:430,_ZNSt11_Tuple_implILm1EJSt14default_deleteIN5boost6system6detail12std_categoryEEEEC2Ev
FNDA:0,_ZNSt11_Tuple_implILm1EJSt14default_deleteIN5boost6system6detail12std_categoryEEEEC2Ev
FN:454,_ZNSt11_Tuple_implILm1EJSt14default_deleteIN5boost6system6detail12std_categoryEEEEC2EOS6_
FNDA:0,_ZNSt11_Tuple_implILm1EJSt14default_deleteIN5boost6system6detail12std_categoryEEEEC2EOS6_
FN:1049,_ZNSt5tupleIJPN5boost6system6detail12std_categoryESt14default_deleteIS3_EEEC2ILb1ELb1EEEv
FNDA:0,_ZNSt5tupleIJPN5boost6system6detail12std_categoryESt14default_deleteIS3_EEEC2ILb1ELb1EEEv
FN:1090,_ZNSt5tupleIJPN5boost6system6detail12std_categoryESt14default_deleteIS3_EEEC2EOS7_
FNDA:0,_ZNSt5tupleIJPN5boost6system6detail12std_categoryESt14default_deleteIS3_EEEC2EOS7_
FN:1377,_ZSt12__get_helperILm1ESt14default_deleteIN5boost6system6detail12std_categoryEEJEERT0_RSt11_Tuple_implIXT_EJS6_DpT1_EE
FNDA:0,_ZSt12__get_helperILm1ESt14default_deleteIN5boost6system6detail12std_categoryEEJEERT0_RSt11_Tuple_implIXT_EJS6_DpT1_EE
FN:1377,_ZSt12__get_helperILm0EPN5boost6system6detail12std_categoryEJSt14default_deleteIS3_EEERT0_RSt11_Tuple_implIXT_EJS7_DpT1_EE
FNDA:0,_ZSt12__get_helperILm0EPN5boost6system6detail12std_categoryEJSt14default_deleteIS3_EEERT0_RSt11_Tuple_implIXT_EJS7_DpT1_EE
FN:1382,_ZSt12__get_helperILm0EPN5boost6system6detail12std_categoryEJSt14default_deleteIS3_EEERKT0_RKSt11_Tuple_implIXT_EJS7_DpT1_EE
FNDA:0,_ZSt12__get_helperILm0EPN5boost6system6detail12std_categoryEJSt14default_deleteIS3_EEERKT0_RKSt11_Tuple_implIXT_EJS7_DpT1_EE
FN:1393,_ZSt3getILm1EJPN5boost6system6detail12std_categoryESt14default_deleteIS3_EEERNSt13tuple_elementIXT_ESt5tupleIJDpT0_EEE4typeERSB_
FNDA:0,_ZSt3getILm1EJPN5boost6system6detail12std_categoryESt14default_deleteIS3_EEERNSt13tuple_elementIXT_ESt5tupleIJDpT0_EEE4typeERSB_
FN:1393,_ZSt3getILm0EJPN5boost6system6detail12std_categoryESt14default_deleteIS3_EEERNSt13tuple_elementIXT_ESt5tupleIJDpT0_EEE4typeERSB_
FNDA:0,_ZSt3getILm0EJPN5boost6system6detail12std_categoryESt14default_deleteIS3_EEERNSt13tuple_elementIXT_ESt5tupleIJDpT0_EEE4typeERSB_
FN:1399,_ZSt3getILm0EJPN5boost6system6detail12std_categoryESt14default_deleteIS3_EEERKNSt13tuple_elementIXT_ESt5tupleIJDpT0_EEE4typeERKSB_
FNDA:0,_ZSt3getILm0EJPN5boost6system6detail12std_categoryESt14default_deleteIS3_EEERKNSt13tuple_elementIXT_ESt5tupleIJDpT0_EEE4typeERKSB_
DA:80,0
DA:81,0
DA:124,0
DA:189,0
DA:190,0
DA:233,0
DA:236,0
DA:268,0
DA:271,0
DA:279,0
DA:280,0
DA:301,0
DA:424,0
DA:430,0
DA:431,0
DA:454,0
DA:457,0
DA:1049,0
DA:1051,0
DA:1090,0
DA:1377,0
DA:1378,0
DA:1377,0
DA:1378,0
DA:1382,0
DA:1383,0
DA:1393,0
DA:1394,0
DA:1393,0
DA:1394,0
DA:1399,0
DA:1400,0
end_of_record
SF:/usr/include/c++/11/ext/aligned_buffer.h
FN:64,_ZN9__gnu_cxx16__aligned_membufISt4pairIKPKN5boost6system14error_categoryESt10unique_ptrINS3_6detail12std_categoryESt14default_deleteISA_EEEE7_M_addrEv
FNDA:0,_ZN9__gnu_cxx16__aligned_membufISt4pairIKPKN5boost6system14error_categoryESt10unique_ptrINS3_6detail12std_categoryESt14default_deleteISA_EEEE7_M_addrEv
FN:68,_ZNK9__gnu_cxx16__aligned_membufISt4pairIKPKN5boost6system14error_categoryESt10unique_ptrINS3_6detail12std_categoryESt14default_deleteISA_EEEE7_M_addrEv
FNDA:0,_ZNK9__gnu_cxx16__aligned_membufISt4pairIKPKN5boost6system14error_categoryESt10unique_ptrINS3_6detail12std_categoryESt14default_deleteISA_EEEE7_M_addrEv
FN:72,_ZN9__gnu_cxx16__aligned_membufISt4pairIKPKN5boost6system14error_categoryESt10unique_ptrINS3_6detail12std_categoryESt14default_deleteISA_EEEE6_M_ptrEv
FNDA:0,_ZN9__gnu_cxx16__aligned_membufISt4pairIKPKN5boost6system14error_categoryESt10unique_ptrINS3_6detail12std_categoryESt14default_deleteISA_EEEE6_M_ptrEv
FN:76,_ZNK9__gnu_cxx16__aligned_membufISt4pairIKPKN5boost6system14error_categoryESt10unique_ptrINS3_6detail12std_categoryESt14default_deleteISA_EEEE6_M_ptrEv
FNDA:0,_ZNK9__gnu_cxx16__aligned_membufISt4pairIKPKN5boost6system14error_categoryESt10unique_ptrINS3_6detail12std_categoryESt14default_deleteISA_EEEE6_M_ptrEv
DA:64,0
DA:65,0
DA:68,0
DA:69,0
DA:72,0
DA:73,0
DA:76,0
DA:77,0
end_of_record
TN:
SF:/usr/include/c++/11/bits/allocator.h
FN:156,_ZNSaISt13_Rb_tree_nodeISt4pairIKPKN5boost6system14error_categoryESt10unique_ptrINS2_6detail12std_categoryESt14default_deleteIS9_EEEEEC2Ev
FNDA:0,_ZNSaISt13_Rb_tree_nodeISt4pairIKPKN5boost6system14error_categoryESt10unique_ptrINS2_6detail12std_categoryESt14default_deleteIS9_EEEEEC2Ev
FN:174,_ZNSaISt13_Rb_tree_nodeISt4pairIKPKN5boost6system14error_categoryESt10unique_ptrINS2_6detail12std_categoryESt14default_deleteIS9_EEEEED2Ev
FNDA:0,_ZNSaISt13_Rb_tree_nodeISt4pairIKPKN5boost6system14error_categoryESt10unique_ptrINS2_6detail12std_categoryESt14default_deleteIS9_EEEEED2Ev
DA:156,0
DA:174,0
DA:182,0
DA:183,0
DA:185,0
DA:193,0
DA:195,0
DA:196,0
DA:199,0
end_of_record
SF:/usr/include/c++/11/bits/char_traits.h
FN:106,_ZN9__gnu_cxx11char_traitsIcE2eqERKcS3_
FNDA:0,_ZN9__gnu_cxx11char_traitsIcE2eqERKcS3_
FN:167,_ZN9__gnu_cxx11char_traitsIcE6lengthEPKc
FNDA:0,_ZN9__gnu_cxx11char_traitsIcE6lengthEPKc
FN:190,_ZN9__gnu_cxx11char_traitsIcE4moveEPcPKcm
FNDA:0,_ZN9__gnu_cxx11char_traitsIcE4moveEPcPKcm
FN:240,_ZN9__gnu_cxx11char_traitsIcE4copyEPcPKcm
FNDA:0,_ZN9__gnu_cxx11char_traitsIcE4copyEPcPKcm
FN:356,_ZNSt11char_traitsIcE6assignERcRKc
FNDA:0,_ZNSt11char_traitsIcE6assignERcRKc
FN:393,_ZNSt11char_traitsIcE6lengthEPKc
FNDA:0,_ZNSt11char_traitsIcE6lengthEPKc
FN:417,_ZNSt11char_traitsIcE4moveEPcPKcm
FNDA:0,_ZNSt11char_traitsIcE4moveEPcPKcm
FN:429,_ZNSt11char_traitsIcE4copyEPcPKcm
FNDA:0,_ZNSt11char_traitsIcE4copyEPcPKcm
DA:106,0
DA:107,0
DA:167,0
DA:170,0
DA:171,0
DA:172,0
DA:173,0
DA:190,0
DA:193,0
DA:194,0
DA:196,0
DA:198,0
DA:199,0
DA:203,0
DA:204,0
DA:205,0
DA:206,0
DA:230,0
DA:233,0
DA:234,0
DA:240,0
DA:244,0
DA:245,0
DA:290,0
DA:356,0
DA:357,0
DA:393,0
DA:396,0
DA:397,0
DA:399,0
DA:417,0
DA:419,0
DA:420,0
DA:422,0
DA:423,0
DA:425,0
DA:429,0
DA:431,0
DA:432,0
DA:434,0
DA:435,0
DA:437,0
end_of_record
SF:/usr/include/c++/11/bits/unique_ptr.h
FN:79,_ZNKSt14default_deleteIN5boost6system6detail12std_categoryEEclEPS3_
FNDA:0,_ZNKSt14default_deleteIN5boost6system6detail12std_categoryEEclEPS3_
FN:155,_ZNSt15__uniq_ptr_implIN5boost6system6detail12std_categoryESt14default_deleteIS3_EEC2EPS3_
FNDA:0,_ZNSt15__uniq_ptr_implIN5boost6system6detail12std_categoryESt14default_deleteIS3_EEC2EPS3_
FN:161,_ZNSt15__uniq_ptr_implIN5boost6system6detail12std_categoryESt14default_deleteIS3_EEC2EOS6_
FNDA:0,_ZNSt15__uniq_ptr_implIN5boost6system6detail12std_categoryESt14default_deleteIS3_EEC2EOS6_
FN:172,_ZNSt15__uniq_ptr_implIN5boost6system6detail12std_categoryESt14default_deleteIS3_EE6_M_ptrEv
FNDA:0,_ZNSt15__uniq_ptr_implIN5boost6system6detail12std_categoryESt14default_deleteIS3_EE6_M_ptrEv
FN:173,_ZNKSt15__uniq_ptr_implIN5boost6system6detail12std_categoryESt14default_deleteIS3_EE6_M_ptrEv
FNDA:0,_ZNKSt15__uniq_ptr_implIN5boost6system6detail12std_categoryESt14default_deleteIS3_EE6_M_ptrEv
FN:174,_ZNSt15__uniq_ptr_implIN5boost6system6detail12std_categoryESt14default_deleteIS3_EE10_M_deleterEv
FNDA:0,_ZNSt15__uniq_ptr_implIN5boost6system6detail12std_categoryESt14default_deleteIS3_EE10_M_deleterEv
FN:211,_ZNSt15__uniq_ptr_dataIN5boost6system6detail12std_categoryESt14default_deleteIS3_ELb1ELb1EEC2EOS6_
FNDA:0,_ZNSt15__uniq_ptr_dataIN5boost6system6detail12std_categoryESt14default_deleteIS3_ELb1ELb1EEC2EOS6_
FN:281,_ZNSt10unique_ptrIN5boost6system6detail12std_categoryESt14default_deleteIS3_EEC2IS5_vEEPS3_
FNDA:0,_ZNSt10unique_ptrIN5boost6system6detail12std_categoryESt14default_deleteIS3_EEC2IS5_vEEPS3_
FN:327,_ZNSt10unique_ptrIN5boost6system6detail12std_categoryESt14default_deleteIS3_EEC2EOS6_
FNDA:0,_ZNSt10unique_ptrIN5boost6system6detail12std_categoryESt14default_deleteIS3_EEC2EOS6_
FN:355,_ZNSt10unique_ptrIN5boost6system6detail12std_categoryESt14default_deleteIS3_EED2Ev
FNDA:0,_ZNSt10unique_ptrIN5boost6system6detail12std_categoryESt14default_deleteIS3_EED2Ev
FN:405,_ZNKSt10unique_ptrIN5boost6system6detail12std_categoryESt14default_deleteIS3_EEdeEv
FNDA:0,_ZNKSt10unique_ptrIN5boost6system6detail12std_categoryESt14default_deleteIS3_EEdeEv
FN:421,_ZNKSt10unique_ptrIN5boost6system6detail12std_categoryESt14default_deleteIS3_EE3getEv
FNDA:0,_ZNKSt10unique_ptrIN5boost6system6detail12std_categoryESt14default_deleteIS3_EE3getEv
FN:426,_ZNSt10unique_ptrIN5boost6system6detail12std_categoryESt14default_deleteIS3_EE11get_deleterEv
FNDA:0,_ZNSt10unique_ptrIN5boost6system6detail12std_categoryESt14default_deleteIS3_EE11get_deleterEv
DA:79,0
DA:85,0
DA:86,0
DA:155,0
DA:161,0
DA:162,0
DA:163,0
DA:172,0
DA:173,0
DA:174,0
DA:211,0
DA:281,0
DA:282,0
DA:283,0
DA:327,0
DA:355,0
DA:359,0
DA:360,0
DA:361,0
DA:362,0
DA:363,0
DA:405,0
DA:407,0
DA:408,0
DA:421,0
DA:422,0
DA:426,0
DA:427,0
end_of_record
SF:/usr/include/boost/asio/execution_context.hpp
FN:312,_ZN5boost4asio17execution_context2idC2Ev
FNDA:0,_ZN5boost4asio17execution_context2idC2Ev
DA:312,0
end_of_record
SF:/usr/include/c++/11/new
FN:174,_ZnwmPv
FNDA:0,_ZnwmPv
DA:174,0
DA:175,0
end_of_record
SF:/usr/include/c++/11/bits/alloc_traits.h
FN:463,_ZNSt16allocator_traitsISaISt13_Rb_tree_nodeISt4pairIKPKN5boost6system14error_categoryESt10unique_ptrINS3_6detail12std_categoryESt14default_deleteISA_EEEEEE8allocateERSG_m
FNDA:0,_ZNSt16allocator_traitsISaISt13_Rb_tree_nodeISt4pairIKPKN5boost6system14error_categoryESt10unique_ptrINS3_6detail12std_categoryESt14default_deleteISA_EEEEEE8allocateERSG_m
FN:463,_ZNSt16allocator_traitsISaIcEE8allocateERS0_m
FNDA:0,_ZNSt16allocator_traitsISaIcEE8allocateERS0_m
FN:495,_ZNSt16allocator_traitsISaISt13_Rb_tree_nodeISt4pairIKPKN5boost6system14error_categoryESt10unique_ptrINS3_6detail12std_categoryESt14default_deleteISA_EEEEEE10deallocateERSG_PSF_m
FNDA:0,_ZNSt16allocator_traitsISaISt13_Rb_tree_nodeISt4pairIKPKN5boost6system14error_categoryESt10unique_ptrINS3_6detail12std_categoryESt14default_deleteISA_EEEEEE10deallocateERSG_PSF_m
FN:495,_ZNSt16allocator_traitsISaIcEE10deallocateERS0_Pcm
FNDA:0,_ZNSt16allocator_traitsISaIcEE10deallocateERS0_Pcm
FN:511,_ZNSt16allocator_traitsISaISt13_Rb_tree_nodeISt4pairIKPKN5boost6system14error_categoryESt10unique_ptrINS3_6detail12std_categoryESt14default_deleteISA_EEEEEE9constructISE_JSE_EEEvRSG_PT_DpOT0_
FNDA:0,_ZNSt16allocator_traitsISaISt13_Rb_tree_nodeISt4pairIKPKN5boost6system14error_categoryESt10unique_ptrINS3_6detail12std_categoryESt14default_deleteISA_EEEEEE9constructISE_JSE_EEEvRSG_PT_DpOT0_
FN:531,_ZNSt16allocator_traitsISaISt13_Rb_tree_nodeISt4pairIKPKN5boost6system14error_categoryESt10unique_ptrINS3_6detail12std_categoryESt14default_deleteISA_EEEEEE7destroyISE_EEvRSG_PT_
FNDA:0,_ZNSt16allocator_traitsISaISt13_Rb_tree_nodeISt4pairIKPKN5boost6system14error_categoryESt10unique_ptrINS3_6detail12std_categoryESt14default_deleteISA_EEEEEE7destroyISE_EEvRSG_PT_
FN:547,_ZNSt16allocator_traitsISaIcEE8max_sizeERKS0_
FNDA:0,_ZNSt16allocator_traitsISaIcEE8max_sizeERKS0_
DA:463,0
DA:464,0
DA:463,0
DA:464,0
DA:495,0
DA:496,0
DA:495,0
DA:496,0
DA:511,0
DA:518,0
DA:520,0
DA:531,0
DA:537,0
DA:539,0
DA:547,0
DA:552,0
end_of_record
SF:/usr/include/boost/system/system_error.hpp
FN:47,_ZN5boost6system12system_errorD0Ev
FNDA:0,_ZN5boost6system12system_errorD0Ev
FN:47,_ZN5boost6system12system_errorD2Ev
FNDA:0,_ZN5boost6system12system_errorD2Ev
FN:59,_ZNK5boost6system12system_error4whatEv
FNDA:0,_ZNK5boost6system12system_error4whatEv
DA:47,0
DA:47,0
DA:59,0
DA:62,0
DA:68,0
DA:69,0
DA:70,0
DA:73,0
DA:76,0
end_of_record
SF:/usr/include/c++/11/bits/ptr_traits.h
FN:149,_ZNSt14pointer_traitsIPKcE10pointer_toERS0_
FNDA:0,_ZNSt14pointer_traitsIPKcE10pointer_toERS0_
FN:149,_ZNSt14pointer_traitsIPcE10pointer_toERc
FNDA:0,_ZNSt14pointer_traitsIPcE10pointer_toERc
DA:149,0
DA:150,0
DA:149,0
DA:150,0
end_of_record
SF:/usr/include/c++/11/bits/std_thread.h
FN:86,_ZNSt6thread2idC2Ev
FNDA:0,_ZNSt6thread2idC2Ev
FN:149,_ZNSt6threadD2Ev
FNDA:0,_ZNSt6threadD2Ev
FN:175,_ZNKSt6thread8joinableEv
FNDA:0,_ZNKSt6thread8joinableEv
FN:287,_ZSteqNSt6thread2idES0_
FNDA:0,_ZSteqNSt6thread2idES0_
DA:86,0
DA:149,0
DA:151,0
DA:152,0
DA:153,0
DA:175,0
DA:176,0
DA:287,0
DA:293,0
end_of_record
SF:/usr/include/c++/11/bits/std_mutex.h
FN:98,_ZNSt5mutex4lockEv
FNDA:0,_ZNSt5mutex4lockEv
FN:115,_ZNSt5mutex6unlockEv
FNDA:0,_ZNSt5mutex6unlockEv
FN:228,_ZNSt10lock_guardISt5mutexEC2ERS0_
FNDA:0,_ZNSt10lock_guardISt5mutexEC2ERS0_
FN:234,_ZNSt10lock_guardISt5mutexED2Ev
FNDA:0,_ZNSt10lock_guardISt5mutexED2Ev
DA:98,0
DA:100,0
DA:103,0
DA:104,0
DA:105,0
DA:115,0
DA:118,0
DA:119,0
DA:228,0
DA:229,0
DA:234,0
DA:235,0
end_of_record
SF:/usr/include/c++/11/bits/basic_string.tcc
FN:132,_ZNSt7__cxx1112basic_stringIcSt11char_traitsIcESaIcEE9_M_createERmm
FNDA:0,_ZNSt7__cxx1112basic_stringIcSt11char_traitsIcESaIcEE9_M_createERmm
FN:206,_ZNSt7__cxx1112basic_stringIcSt11char_traitsIcESaIcEE12_M_constructIPKcEEvT_S8_St20forward_iterator_tag
FNDA:0,_ZNSt7__cxx1112basic_stringIcSt11char_traitsIcESaIcEE12_M_constructIPKcEEvT_S8_St20forward_iterator_tag
FN:300,_ZNSt7__cxx1112basic_stringIcSt11char_traitsIcESaIcEE9_M_mutateEmmPKcm
FNDA:0,_ZNSt7__cxx1112basic_stringIcSt11char_traitsIcESaIcEE9_M_mutateEmmPKcm
FN:384,_ZNSt7__cxx1112basic_stringIcSt11char_traitsIcESaIcEE9_M_appendEPKcm
FNDA:0,_ZNSt7__cxx1112basic_stringIcSt11char_traitsIcESaIcEE9_M_appendEPKcm
FN:448,_ZNSt7__cxx1112basic_stringIcSt11char_traitsIcESaIcEE10_M_replaceEmmPKcm
FNDA:0,_ZNSt7__cxx1112basic_stringIcSt11char_traitsIcESaIcEE10_M_replaceEmmPKcm
DA:132,0
DA:137,0
DA:138,0
DA:143,0
DA:145,0
DA:147,0
DA:148,0
DA:153,0
DA:206,0
DA:211,0
DA:212,0
DA:215,0
DA:217,0
DA:219,0
DA:220,0
DA:225,0
DA:232,0
DA:233,0
DA:300,0
DA:304,0
DA:306,0
DA:307,0
DA:309,0
DA:310,0
DA:311,0
DA:312,0
DA:313,0
DA:314,0
DA:315,0
DA:317,0
DA:318,0
DA:319,0
DA:320,0
DA:384,0
DA:387,0
DA:389,0
DA:391,0
DA:392,0
DA:395,0
DA:397,0
DA:398,0
DA:448,0
DA:452,0
DA:454,0
DA:455,0
DA:457,0
DA:459,0
DA:461,0
DA:462,0
DA:464,0
DA:465,0
DA:466,0
DA:467,0
DA:472,0
DA:473,0
DA:474,0
DA:475,0
DA:476,0
DA:478,0
DA:479,0
DA:480,0
DA:484,0
DA:485,0
DA:489,0
DA:490,0
DA:491,0
DA:498,0
DA:500,0
DA:501,0
end_of_record
SF:/usr/include/c++/11/ext/new_allocator.h
FN:79,_ZN9__gnu_cxx13new_allocatorISt13_Rb_tree_nodeISt4pairIKPKN5boost6system14error_categoryESt10unique_ptrINS4_6detail12std_categoryESt14default_deleteISB_EEEEEC2Ev
FNDA:0,_ZN9__gnu_cxx13new_allocatorISt13_Rb_tree_nodeISt4pairIKPKN5boost6system14error_categoryESt10unique_ptrINS4_6detail12std_categoryESt14default_deleteISB_EEEEEC2Ev
FN:79,_ZN9__gnu_cxx13new_allocatorIcEC2Ev
FNDA:0,_ZN9__gnu_cxx13new_allocatorIcEC2Ev
FN:103,_ZN9__gnu_cxx13new_allocatorISt13_Rb_tree_nodeISt4pairIKPKN5boost6system14error_categoryESt10unique_ptrINS4_6detail12std_categoryESt14default_deleteISB_EEEEE8allocateEmPKv
FNDA:0,_ZN9__gnu_cxx13new_allocatorISt13_Rb_tree_nodeISt4pairIKPKN5boost6system14error_categoryESt10unique_ptrINS4_6detail12std_categoryESt14default_deleteISB_EEEEE8allocateEmPKv
FN:103,_ZN9__gnu_cxx13new_allocatorIcE8allocateEmPKv
FNDA:0,_ZN9__gnu_cxx13new_allocatorIcE8allocateEmPKv
FN:132,_ZN9__gnu_cxx13new_allocatorISt13_Rb_tree_nodeISt4pairIKPKN5boost6system14error_categoryESt10unique_ptrINS4_6detail12std_categoryESt14default_deleteISB_EEEEE10deallocateEPSG_m
FNDA:0,_ZN9__gnu_cxx13new_allocatorISt13_Rb_tree_nodeISt4pairIKPKN5boost6system14error_categoryESt10unique_ptrINS4_6detail12std_categoryESt14default_deleteISB_EEEEE10deallocateEPSG_m
FN:132,_ZN9__gnu_cxx13new_allocatorIcE10deallocateEPcm
FNDA:0,_ZN9__gnu_cxx13new_allocatorIcE10deallocateEPcm
FN:197,_ZNK9__gnu_cxx13new_allocatorISt13_Rb_tree_nodeISt4pairIKPKN5boost6system14error_categoryESt10unique_ptrINS4_6detail12std_categoryESt14default_deleteISB_EEEEE11_M_max_sizeEv
FNDA:0,_ZNK9__gnu_cxx13new_allocatorISt13_Rb_tree_nodeISt4pairIKPKN5boost6system14error_categoryESt10unique_ptrINS4_6detail12std_categoryESt14default_deleteISB_EEEEE11_M_max_sizeEv
FN:197,_ZNK9__gnu_cxx13new_allocatorIcE11_M_max_sizeEv
FNDA:0,_ZNK9__gnu_cxx13new_allocatorIcE11_M_max_sizeEv
DA:79,0
DA:79,0
DA:103,0
DA:111,0
DA:115,0
DA:116,0
DA:117,0
DA:127,0
DA:103,0
DA:111,0
DA:117,0
DA:127,0
DA:132,0
DA:145,0
DA:132,0
DA:145,0
DA:197,0
DA:200,0
DA:197,0
DA:200,0
end_of_record
SF:/usr/include/c++/11/ext/atomicity.h
DA:52,0
DA:66,0
DA:84,0
DA:85,0
DA:86,0
DA:98,0
DA:99,0
DA:101,0
end_of_record
SF:/usr/include/boost/asio/io_context.hpp
end_of_record
SF:/usr/include/c++/11/bits/stl_map.h
FN:185,_ZNSt3mapIPKN5boost6system14error_categoryESt10unique_ptrINS1_6detail12std_categoryESt14default_deleteIS7_EENS6_12cat_ptr_lessESaISt4pairIKS4_SA_EEEC2Ev
FNDA:0,_ZNSt3mapIPKN5boost6system14error_categoryESt10unique_ptrINS1_6detail12std_categoryESt14default_deleteIS7_EENS6_12cat_ptr_lessESaISt4pairIKS4_SA_EEEC2Ev
FN:302,_ZNSt3mapIPKN5boost6system14error_categoryESt10unique_ptrINS1_6detail12std_categoryESt14default_deleteIS7_EENS6_12cat_ptr_lessESaISt4pairIKS4_SA_EEED2Ev
FNDA:0,_ZNSt3mapIPKN5boost6system14error_categoryESt10unique_ptrINS1_6detail12std_categoryESt14default_deleteIS7_EENS6_12cat_ptr_lessESaISt4pairIKS4_SA_EEED2Ev
FN:374,_ZNSt3mapIPKN5boost6system14error_categoryESt10unique_ptrINS1_6detail12std_categoryESt14default_deleteIS7_EENS6_12cat_ptr_lessESaISt4pairIKS4_SA_EEE3endEv
FNDA:0,_ZNSt3mapIPKN5boost6system14error_categoryESt10unique_ptrINS1_6detail12std_categoryESt14default_deleteIS7_EENS6_12cat_ptr_lessESaISt4pairIKS4_SA_EEE3endEv
